---
triple:          'arm64-apple-darwin'
binary-path:     '/Users/paul/Projects/arkavo/llama.cpp/build-visionos-sim/framework/llama.framework/llama'
relocations:
  - { offset: 0x1DAD4, size: 0x8, addend: 0x0, symName: __ZNSt3__127__tree_balance_after_insertB8ne200100IPNS_16__tree_node_baseIPvEEEEvT_S5_, symObjAddr: 0x29B4, symBinAddr: 0x36D4, symSize: 0x1AC }
  - { offset: 0x1F0D5, size: 0x8, addend: 0x0, symName: __ZNSt3__120__throw_length_errorB8ne200100EPKc, symObjAddr: 0x2B74, symBinAddr: 0x3894, symSize: 0x50 }
  - { offset: 0x1F265, size: 0x8, addend: 0x0, symName: __ZNSt3__120__throw_out_of_rangeB8ne200100EPKc, symObjAddr: 0x2E18, symBinAddr: 0x3B38, symSize: 0x50 }
  - { offset: 0x20914, size: 0x8, addend: 0x0, symName: __ZSt28__throw_bad_array_new_lengthB8ne200100v, symObjAddr: 0x298C, symBinAddr: 0x36AC, symSize: 0x28 }
  - { offset: 0x263D4, size: 0x8, addend: 0x0, symName: __ZNK18llama_adapter_cvec10tensor_forEi, symObjAddr: 0x0, symBinAddr: 0xD20, symSize: 0x40 }
  - { offset: 0x2643E, size: 0x8, addend: 0x0, symName: __ZNK18llama_adapter_cvec8apply_toEP12ggml_contextP11ggml_tensori, symObjAddr: 0x40, symBinAddr: 0xD60, symSize: 0x50 }
  - { offset: 0x264A5, size: 0x8, addend: 0x0, symName: __ZNK18llama_adapter_cvec8apply_toEP12ggml_contextP11ggml_tensori, symObjAddr: 0x40, symBinAddr: 0xD60, symSize: 0x50 }
  - { offset: 0x26AF3, size: 0x8, addend: 0x0, symName: __ZN18llama_adapter_cvec4initERK11llama_model, symObjAddr: 0x90, symBinAddr: 0xDB0, symSize: 0x738 }
  - { offset: 0x29832, size: 0x8, addend: 0x0, symName: __ZNSt3__16__treeINS_12__value_typeIP24ggml_backend_buffer_typeP12ggml_contextEENS_19__map_value_compareIS3_S6_NS_4lessIS3_EELb1EEENS_9allocatorIS6_EEE7destroyEPNS_11__tree_nodeIS6_PvEE, symObjAddr: 0x3D10, symBinAddr: 0x4A30, symSize: 0x44 }
  - { offset: 0x29949, size: 0x8, addend: 0x0, symName: __ZNSt3__16vectorINS_10unique_ptrI19ggml_backend_buffer27ggml_backend_buffer_deleterEENS_9allocatorIS4_EEE20__throw_length_errorB8ne200100Ev, symObjAddr: 0x3B90, symBinAddr: 0x48B0, symSize: 0x14 }
  - { offset: 0x29961, size: 0x8, addend: 0x0, symName: __ZNSt3__16vectorIhNS_9allocatorIhEEE20__throw_length_errorB8ne200100Ev, symObjAddr: 0x3BA4, symBinAddr: 0x48C4, symSize: 0x14 }
  - { offset: 0x2996C, size: 0x8, addend: 0x0, symName: __ZNSt3__16vectorIP11ggml_tensorNS_9allocatorIS2_EEE20__throw_length_errorB8ne200100Ev, symObjAddr: 0x3D54, symBinAddr: 0x4A74, symSize: 0x14 }
  - { offset: 0x29984, size: 0x8, addend: 0x0, symName: __ZNSt3__112__hash_tableINS_17__hash_value_typeINS_12basic_stringIcNS_11char_traitsIcEENS_9allocatorIcEEEE25llama_adapter_lora_weightEENS_22__unordered_map_hasherIS7_S9_NS_4hashIS7_EENS_8equal_toIS7_EELb1EEENS_21__unordered_map_equalIS7_S9_SE_SC_Lb1EEENS5_IS9_EEE4findIS7_EENS_15__hash_iteratorIPNS_11__hash_nodeIS9_PvEEEERKT_, symObjAddr: 0x3D68, symBinAddr: 0x4A88, symSize: 0x1B4 }
  - { offset: 0x2998F, size: 0x8, addend: 0x0, symName: __ZNSt3__16vectorINS_10unique_ptrI12ggml_context20ggml_context_deleterEENS_9allocatorIS4_EEE20__throw_length_errorB8ne200100Ev, symObjAddr: 0x2B60, symBinAddr: 0x3880, symSize: 0x14 }
  - { offset: 0x299A7, size: 0x8, addend: 0x0, symName: __ZNSt3__120__throw_length_errorB8ne200100EPKc, symObjAddr: 0x2B74, symBinAddr: 0x3894, symSize: 0x50 }
  - { offset: 0x299EE, size: 0x8, addend: 0x0, symName: __ZN18llama_adapter_cvec5applyERK11llama_modelPKfmiii, symObjAddr: 0x7C8, symBinAddr: 0x14E8, symSize: 0x12C }
  - { offset: 0x29F31, size: 0x8, addend: 0x0, symName: __ZN18llama_adapter_lora10get_weightEP11ggml_tensor, symObjAddr: 0x8F4, symBinAddr: 0x1614, symSize: 0x100 }
  - { offset: 0x2A423, size: 0x8, addend: 0x0, symName: __ZNSt3__112__hash_tableINS_17__hash_value_typeINS_12basic_stringIcNS_11char_traitsIcEENS_9allocatorIcEEEE25llama_adapter_lora_weightEENS_22__unordered_map_hasherIS7_S9_NS_4hashIS7_EENS_8equal_toIS7_EELb1EEENS_21__unordered_map_equalIS7_S9_SE_SC_Lb1EEENS5_IS9_EEE4findIS7_EENS_15__hash_iteratorIPNS_11__hash_nodeIS9_PvEEEERKT_, symObjAddr: 0x3D68, symBinAddr: 0x4A88, symSize: 0x1B4 }
  - { offset: 0x2A72C, size: 0x8, addend: 0x0, symName: __ZNSt3__112basic_stringIcNS_11char_traitsIcEENS_9allocatorIcEEE20__throw_length_errorB8ne200100Ev, symObjAddr: 0x311C, symBinAddr: 0x3E3C, symSize: 0x14 }
  - { offset: 0x2A744, size: 0x8, addend: 0x0, symName: __ZNSt3__16vectorIP24ggml_backend_buffer_typeNS_9allocatorIS2_EEE20__throw_length_errorB8ne200100Ev, symObjAddr: 0x3130, symBinAddr: 0x3E50, symSize: 0x14 }
  - { offset: 0x2A74F, size: 0x8, addend: 0x0, symName: __ZNSt3__112basic_stringIcNS_11char_traitsIcEENS_9allocatorIcEEEC1B8ne200100ILi0EEEPKc, symObjAddr: 0x9F4, symBinAddr: 0x1714, symSize: 0xA4 }
  - { offset: 0x2A9B7, size: 0x8, addend: 0x0, symName: _llama_adapter_lora_init, symObjAddr: 0xA98, symBinAddr: 0x17B8, symSize: 0x1EC8 }
  - { offset: 0x2C01F, size: 0x8, addend: 0x0, symName: _llama_adapter_lora_init, symObjAddr: 0xA98, symBinAddr: 0x17B8, symSize: 0x1EC8 }
  - { offset: 0x333ED, size: 0x8, addend: 0x0, symName: __ZNSt3__16__treeINS_12__value_typeINS_12basic_stringIcNS_11char_traitsIcEENS_9allocatorIcEEEE25llama_adapter_lora_weightEENS_19__map_value_compareIS7_S9_NS_4lessIS7_EELb1EEENS5_IS9_EEE25__emplace_unique_key_argsIS7_JRKNS_21piecewise_construct_tENS_5tupleIJRKS7_EEENSK_IJEEEEEENS_4pairINS_15__tree_iteratorIS9_PNS_11__tree_nodeIS9_PvEElEEbEERKT_DpOT0_, symObjAddr: 0x2E8C, symBinAddr: 0x3BAC, symSize: 0x1A8 }
  - { offset: 0x33B02, size: 0x8, addend: 0x0, symName: __ZNSt3__112__hash_tableINS_17__hash_value_typeINS_12basic_stringIcNS_11char_traitsIcEENS_9allocatorIcEEEE25llama_adapter_lora_weightEENS_22__unordered_map_hasherIS7_S9_NS_4hashIS7_EENS_8equal_toIS7_EELb1EEENS_21__unordered_map_equalIS7_S9_SE_SC_Lb1EEENS5_IS9_EEE25__emplace_unique_key_argsIS7_JRKNS_21piecewise_construct_tENS_5tupleIJRKS7_EEENSO_IJEEEEEENS_4pairINS_15__hash_iteratorIPNS_11__hash_nodeIS9_PvEEEEbEERKT_DpOT0_, symObjAddr: 0x3144, symBinAddr: 0x3E64, symSize: 0x420 }
  - { offset: 0x34434, size: 0x8, addend: 0x0, symName: '__ZZL28llama_adapter_lora_init_implR11llama_modelPKcR18llama_adapter_loraENK3$_4clEP11ggml_tensorS7_', symObjAddr: 0x2C50, symBinAddr: 0x3970, symSize: 0x180 }
  - { offset: 0x34A17, size: 0x8, addend: 0x0, symName: __ZNSt3__110unique_ptrI12gguf_context20gguf_context_deleterED1B8ne200100Ev, symObjAddr: 0x2DD0, symBinAddr: 0x3AF0, symSize: 0x34 }
  - { offset: 0x34A22, size: 0x8, addend: 0x0, symName: __ZNSt3__16__treeINS_12__value_typeINS_12basic_stringIcNS_11char_traitsIcEENS_9allocatorIcEEEE25llama_adapter_lora_weightEENS_19__map_value_compareIS7_S9_NS_4lessIS7_EELb1EEENS5_IS9_EEE7destroyEPNS_11__tree_nodeIS9_PvEE, symObjAddr: 0x3BB8, symBinAddr: 0x48D8, symSize: 0x60 }
  - { offset: 0x34C7F, size: 0x8, addend: 0x0, symName: __ZNSt3__112basic_stringIcNS_11char_traitsIcEENS_9allocatorIcEEE20__throw_out_of_rangeB8ne200100Ev, symObjAddr: 0x2E04, symBinAddr: 0x3B24, symSize: 0x14 }
  - { offset: 0x34C97, size: 0x8, addend: 0x0, symName: __ZNSt3__120__throw_out_of_rangeB8ne200100EPKc, symObjAddr: 0x2E18, symBinAddr: 0x3B38, symSize: 0x50 }
  - { offset: 0x34CB8, size: 0x8, addend: 0x0, symName: __ZNSt3__16vectorIP24ggml_backend_buffer_typeNS_9allocatorIS2_EEE20__throw_length_errorB8ne200100Ev, symObjAddr: 0x3130, symBinAddr: 0x3E50, symSize: 0x14 }
  - { offset: 0x34CD0, size: 0x8, addend: 0x0, symName: __ZNSt3__112__hash_tableINS_17__hash_value_typeINS_12basic_stringIcNS_11char_traitsIcEENS_9allocatorIcEEEE25llama_adapter_lora_weightEENS_22__unordered_map_hasherIS7_S9_NS_4hashIS7_EENS_8equal_toIS7_EELb1EEENS_21__unordered_map_equalIS7_S9_SE_SC_Lb1EEENS5_IS9_EEE25__emplace_unique_key_argsIS7_JRKNS_21piecewise_construct_tENS_5tupleIJRKS7_EEENSO_IJEEEEEENS_4pairINS_15__hash_iteratorIPNS_11__hash_nodeIS9_PvEEEEbEERKT_DpOT0_, symObjAddr: 0x3144, symBinAddr: 0x3E64, symSize: 0x420 }
  - { offset: 0x34CDB, size: 0x8, addend: 0x0, symName: __ZNSt3__110unique_ptrI19ggml_backend_buffer27ggml_backend_buffer_deleterED1B8ne200100Ev, symObjAddr: 0x2C1C, symBinAddr: 0x393C, symSize: 0x34 }
  - { offset: 0x34D6F, size: 0x8, addend: 0x0, symName: __ZNSt3__110unique_ptrI12ggml_context20ggml_context_deleterED1B8ne200100Ev, symObjAddr: 0x2BE8, symBinAddr: 0x3908, symSize: 0x34 }
  - { offset: 0x34E03, size: 0x8, addend: 0x0, symName: __ZNSt3__110unique_ptrI12gguf_context20gguf_context_deleterED1B8ne200100Ev, symObjAddr: 0x2DD0, symBinAddr: 0x3AF0, symSize: 0x34 }
  - { offset: 0x34E97, size: 0x8, addend: 0x0, symName: __ZN18llama_adapter_loraD2Ev, symObjAddr: 0x3C18, symBinAddr: 0x4938, symSize: 0xF8 }
  - { offset: 0x35675, size: 0x8, addend: 0x0, symName: _llama_adapter_lora_free, symObjAddr: 0x2970, symBinAddr: 0x3690, symSize: 0x1C }
  - { offset: 0x35703, size: 0x8, addend: 0x0, symName: __ZNSt12length_errorC1B8ne200100EPKc, symObjAddr: 0x2BC4, symBinAddr: 0x38E4, symSize: 0x24 }
  - { offset: 0x35C8F, size: 0x8, addend: 0x0, symName: __ZNSt3__16vectorIhNS_9allocatorIhEEE20__throw_length_errorB8ne200100Ev, symObjAddr: 0x3BA4, symBinAddr: 0x48C4, symSize: 0x14 }
  - { offset: 0x35CA7, size: 0x8, addend: 0x0, symName: __ZNSt3__16__treeINS_12__value_typeINS_12basic_stringIcNS_11char_traitsIcEENS_9allocatorIcEEEE25llama_adapter_lora_weightEENS_19__map_value_compareIS7_S9_NS_4lessIS7_EELb1EEENS5_IS9_EEE7destroyEPNS_11__tree_nodeIS9_PvEE, symObjAddr: 0x3BB8, symBinAddr: 0x48D8, symSize: 0x60 }
  - { offset: 0x35CB2, size: 0x8, addend: 0x0, symName: __ZNSt12out_of_rangeC1B8ne200100EPKc, symObjAddr: 0x2E68, symBinAddr: 0x3B88, symSize: 0x24 }
  - { offset: 0x361A1, size: 0x8, addend: 0x0, symName: __ZNSt3__112basic_stringIcNS_11char_traitsIcEENS_9allocatorIcEEE25__init_copy_ctor_externalEPKcm, symObjAddr: 0x3094, symBinAddr: 0x3DB4, symSize: 0x88 }
  - { offset: 0x36361, size: 0x8, addend: 0x0, symName: __ZNSt3__112basic_stringIcNS_11char_traitsIcEENS_9allocatorIcEEE20__throw_length_errorB8ne200100Ev, symObjAddr: 0x311C, symBinAddr: 0x3E3C, symSize: 0x14 }
  - { offset: 0x3636C, size: 0x8, addend: 0x0, symName: __ZNSt3__110unique_ptrINS_11__tree_nodeINS_12__value_typeINS_12basic_stringIcNS_11char_traitsIcEENS_9allocatorIcEEEE25llama_adapter_lora_weightEEPvEENS_22__tree_node_destructorINS6_ISC_EEEEED1B8ne200100Ev, symObjAddr: 0x3034, symBinAddr: 0x3D54, symSize: 0x60 }
  - { offset: 0x36BD6, size: 0x8, addend: 0x0, symName: __ZNKSt3__121__murmur2_or_cityhashImLm64EEclB8ne200100EPKvm, symObjAddr: 0x35C4, symBinAddr: 0x42E4, symSize: 0x44C }
  - { offset: 0x3762A, size: 0x8, addend: 0x0, symName: __ZNSt3__112__hash_tableINS_17__hash_value_typeINS_12basic_stringIcNS_11char_traitsIcEENS_9allocatorIcEEEE25llama_adapter_lora_weightEENS_22__unordered_map_hasherIS7_S9_NS_4hashIS7_EENS_8equal_toIS7_EELb1EEENS_21__unordered_map_equalIS7_S9_SE_SC_Lb1EEENS5_IS9_EEE11__do_rehashILb1EEEvm, symObjAddr: 0x3A10, symBinAddr: 0x4730, symSize: 0x180 }
  - { offset: 0x379B7, size: 0x8, addend: 0x0, symName: __ZNSt3__16vectorINS_10unique_ptrI19ggml_backend_buffer27ggml_backend_buffer_deleterEENS_9allocatorIS4_EEE20__throw_length_errorB8ne200100Ev, symObjAddr: 0x3B90, symBinAddr: 0x48B0, symSize: 0x14 }
  - { offset: 0x379CC, size: 0x8, addend: 0x0, symName: __ZNSt3__110unique_ptrINS_11__hash_nodeINS_17__hash_value_typeINS_12basic_stringIcNS_11char_traitsIcEENS_9allocatorIcEEEE25llama_adapter_lora_weightEEPvEENS_22__hash_node_destructorINS6_ISC_EEEEED1B8ne200100Ev, symObjAddr: 0x3564, symBinAddr: 0x4284, symSize: 0x60 }
  - { offset: 0x3A7F5, size: 0x8, addend: 0x0, symName: __MergedGlobals, symObjAddr: 0xB2A90, symBinAddr: 0x2E9318, symSize: 0x0 }
  - { offset: 0x4AFEF, size: 0x8, addend: 0x0, symName: __MergedGlobals, symObjAddr: 0xB2A90, symBinAddr: 0x2E9318, symSize: 0x0 }
  - { offset: 0x4B39F, size: 0x8, addend: 0x0, symName: __ZL16LLM_TENSOR_NAMES, symObjAddr: 0xB2A78, symBinAddr: 0x2E9300, symSize: 0x0 }
  - { offset: 0x4BF0A, size: 0x8, addend: 0x0, symName: __MergedGlobals, symObjAddr: 0xB2A90, symBinAddr: 0x2E9318, symSize: 0x0 }
  - { offset: 0x4C42D, size: 0x8, addend: 0x0, symName: __ZNSt3__13mapI8llm_archPKcNS_4lessIS1_EENS_9allocatorINS_4pairIKS1_S3_EEEEED1B8ne200100Ev, symObjAddr: 0x0, symBinAddr: 0x4C3C, symSize: 0x28 }
  - { offset: 0x4C4E1, size: 0x8, addend: 0x0, symName: __ZNSt3__16__treeINS_12__value_typeI8llm_archPKcEENS_19__map_value_compareIS2_S5_NS_4lessIS2_EELb1EEENS_9allocatorIS5_EEE7destroyEPNS_11__tree_nodeIS5_PvEE, symObjAddr: 0xCF0, symBinAddr: 0x5770, symSize: 0x44 }
  - { offset: 0x4C66A, size: 0x8, addend: 0x0, symName: __ZNSt3__13mapI6llm_kvPKcNS_4lessIS1_EENS_9allocatorINS_4pairIKS1_S3_EEEEED1B8ne200100Ev, symObjAddr: 0x28, symBinAddr: 0x4C64, symSize: 0x28 }
  - { offset: 0x4C71E, size: 0x8, addend: 0x0, symName: __ZNSt3__16__treeINS_12__value_typeI6llm_kvPKcEENS_19__map_value_compareIS2_S5_NS_4lessIS2_EELb1EEENS_9allocatorIS5_EEE7destroyEPNS_11__tree_nodeIS5_PvEE, symObjAddr: 0xFD4, symBinAddr: 0x5A54, symSize: 0x44 }
  - { offset: 0x4CD47, size: 0x8, addend: 0x0, symName: ___cxx_global_var_init.221, symObjAddr: 0x17CC, symBinAddr: 0x61C4, symSize: 0x4CA4 }
  - { offset: 0x6198A, size: 0x8, addend: 0x0, symName: __ZNSt3__13mapI10llm_tensorPKcNS_4lessIS1_EENS_9allocatorINS_4pairIKS1_S3_EEEEEC2B8ne200100ESt16initializer_listIS9_ERKS5_, symObjAddr: 0x1018, symBinAddr: 0x5A98, symSize: 0xF0 }
  - { offset: 0x61D02, size: 0x8, addend: 0x0, symName: __ZNSt3__13mapI10llm_tensorPKcNS_4lessIS1_EENS_9allocatorINS_4pairIKS1_S3_EEEEE6insertB8ne200100INS_20__map_const_iteratorINS_21__tree_const_iteratorINS_12__value_typeIS1_S3_EEPNS_11__tree_nodeISG_PvEElEEEEEEvT_SN_, symObjAddr: 0x5A8, symBinAddr: 0x51E4, symSize: 0xF8 }
  - { offset: 0x61D48, size: 0x8, addend: 0x0, symName: __ZNSt3__13mapI10llm_tensorPKcNS_4lessIS1_EENS_9allocatorINS_4pairIKS1_S3_EEEEE6insertB8ne200100INS_20__map_const_iteratorINS_21__tree_const_iteratorINS_12__value_typeIS1_S3_EEPNS_11__tree_nodeISG_PvEElEEEEEEvT_SN_, symObjAddr: 0x5A8, symBinAddr: 0x51E4, symSize: 0xF8 }
  - { offset: 0x62052, size: 0x8, addend: 0x0, symName: __ZNSt3__16__treeINS_12__value_typeI8llm_archNS_3mapI10llm_tensorPKcNS_4lessIS4_EENS_9allocatorINS_4pairIKS4_S6_EEEEEEEENS_19__map_value_compareIS2_SF_NS7_IS2_EELb1EEENS9_ISF_EEE30__emplace_hint_unique_key_argsIS2_JRKNSA_IKS2_SE_EEEEENSA_INS_15__tree_iteratorISF_PNS_11__tree_nodeISF_PvEElEEbEENS_21__tree_const_iteratorISF_SU_lEERKT_DpOT0_, symObjAddr: 0x1108, symBinAddr: 0x5B88, symSize: 0x100 }
  - { offset: 0x62556, size: 0x8, addend: 0x0, symName: __ZNSt3__16__treeINS_12__value_typeI10llm_tensorPKcEENS_19__map_value_compareIS2_S5_NS_4lessIS2_EELb1EEENS_9allocatorIS5_EEE7destroyEPNS_11__tree_nodeIS5_PvEE, symObjAddr: 0xA0C, symBinAddr: 0x548C, symSize: 0x44 }
  - { offset: 0x6266D, size: 0x8, addend: 0x0, symName: __ZNSt3__16__treeINS_12__value_typeI8llm_archNS_3mapI10llm_tensorPKcNS_4lessIS4_EENS_9allocatorINS_4pairIKS4_S6_EEEEEEEENS_19__map_value_compareIS2_SF_NS7_IS2_EELb1EEENS9_ISF_EEE7destroyEPNS_11__tree_nodeISF_PvEE, symObjAddr: 0x1404, symBinAddr: 0x5E84, symSize: 0x50 }
  - { offset: 0x62878, size: 0x8, addend: 0x0, symName: __ZNSt3__13mapI8llm_archNS0_I10llm_tensorPKcNS_4lessIS2_EENS_9allocatorINS_4pairIKS2_S4_EEEEEENS5_IS1_EENS7_INS8_IKS1_SC_EEEEED1B8ne200100Ev, symObjAddr: 0x50, symBinAddr: 0x4C8C, symSize: 0x28 }
  - { offset: 0x6299E, size: 0x8, addend: 0x0, symName: __ZNSt3__13mapI10llm_tensor15llm_tensor_infoNS_4lessIS1_EENS_9allocatorINS_4pairIKS1_S2_EEEEED1B8ne200100Ev, symObjAddr: 0x78, symBinAddr: 0x4CB4, symSize: 0x28 }
  - { offset: 0x62A52, size: 0x8, addend: 0x0, symName: __ZNSt3__16__treeINS_12__value_typeI10llm_tensor15llm_tensor_infoEENS_19__map_value_compareIS2_S4_NS_4lessIS2_EELb1EEENS_9allocatorIS4_EEE7destroyEPNS_11__tree_nodeIS4_PvEE, symObjAddr: 0x1700, symBinAddr: 0x6180, symSize: 0x44 }
  - { offset: 0x62B6E, size: 0x8, addend: 0x0, symName: __ZN6LLM_KVC2E8llm_archPKc, symObjAddr: 0xA0, symBinAddr: 0x4CDC, symSize: 0xC }
  - { offset: 0x62BD6, size: 0x8, addend: 0x0, symName: __ZN6LLM_KVC1E8llm_archPKc, symObjAddr: 0xAC, symBinAddr: 0x4CE8, symSize: 0xC }
  - { offset: 0x62C20, size: 0x8, addend: 0x0, symName: __ZN6LLM_KVC1E8llm_archPKc, symObjAddr: 0xAC, symBinAddr: 0x4CE8, symSize: 0xC }
  - { offset: 0x62F96, size: 0x8, addend: 0x0, symName: __ZNK6LLM_KVclE6llm_kv, symObjAddr: 0xB8, symBinAddr: 0x4CF4, symSize: 0xFC }
  - { offset: 0x6373F, size: 0x8, addend: 0x0, symName: __ZNK11LLM_TN_IMPL3strEv, symObjAddr: 0x1B4, symBinAddr: 0x4DF0, symSize: 0x1E4 }
  - { offset: 0x63FBD, size: 0x8, addend: 0x0, symName: __Z13llm_arch_name8llm_arch, symObjAddr: 0x398, symBinAddr: 0x4FD4, symSize: 0x58 }
  - { offset: 0x63FFF, size: 0x8, addend: 0x0, symName: __Z13llm_arch_name8llm_arch, symObjAddr: 0x398, symBinAddr: 0x4FD4, symSize: 0x58 }
  - { offset: 0x64014, size: 0x8, addend: 0x0, symName: __Z13llm_arch_name8llm_arch, symObjAddr: 0x398, symBinAddr: 0x4FD4, symSize: 0x58 }
  - { offset: 0x64032, size: 0x8, addend: 0x0, symName: __Z13llm_arch_name8llm_arch, symObjAddr: 0x398, symBinAddr: 0x4FD4, symSize: 0x58 }
  - { offset: 0x64209, size: 0x8, addend: 0x0, symName: __Z20llm_arch_from_stringRKNSt3__112basic_stringIcNS_11char_traitsIcEENS_9allocatorIcEEEE, symObjAddr: 0x3F0, symBinAddr: 0x502C, symSize: 0x108 }
  - { offset: 0x644B3, size: 0x8, addend: 0x0, symName: ___cxx_global_var_init.221, symObjAddr: 0x17CC, symBinAddr: 0x61C4, symSize: 0x4CA4 }
  - { offset: 0x645B8, size: 0x8, addend: 0x0, symName: __Z19llm_tensor_info_for10llm_tensor, symObjAddr: 0x4F8, symBinAddr: 0x5134, symSize: 0x50 }
  - { offset: 0x646A4, size: 0x8, addend: 0x0, symName: __Z21llm_arch_is_recurrentRK8llm_arch, symObjAddr: 0x548, symBinAddr: 0x5184, symSize: 0x24 }
  - { offset: 0x646D4, size: 0x8, addend: 0x0, symName: __Z18llm_arch_is_hybridRK8llm_arch, symObjAddr: 0x56C, symBinAddr: 0x51A8, symSize: 0x28 }
  - { offset: 0x64704, size: 0x8, addend: 0x0, symName: __Z21llm_arch_is_diffusionRK8llm_arch, symObjAddr: 0x594, symBinAddr: 0x51D0, symSize: 0x14 }
  - { offset: 0x649F7, size: 0x8, addend: 0x0, symName: __ZNSt3__16__treeINS_12__value_typeI10llm_tensorPKcEENS_19__map_value_compareIS2_S5_NS_4lessIS2_EELb1EEENS_9allocatorIS5_EEE12__find_equalIS2_EERPNS_16__tree_node_baseIPvEENS_21__tree_const_iteratorIS5_PNS_11__tree_nodeIS5_SF_EElEERPNS_15__tree_end_nodeISH_EESI_RKT_, symObjAddr: 0x6A0, symBinAddr: 0x52DC, symSize: 0x1B0 }
  - { offset: 0x64A5A, size: 0x8, addend: 0x0, symName: __ZNSt3__16__treeINS_12__value_typeI10llm_tensorPKcEENS_19__map_value_compareIS2_S5_NS_4lessIS2_EELb1EEENS_9allocatorIS5_EEE12__find_equalIS2_EERPNS_16__tree_node_baseIPvEENS_21__tree_const_iteratorIS5_PNS_11__tree_nodeIS5_SF_EElEERPNS_15__tree_end_nodeISH_EESI_RKT_, symObjAddr: 0x6A0, symBinAddr: 0x52DC, symSize: 0x1B0 }
  - { offset: 0x64A76, size: 0x8, addend: 0x0, symName: __ZNSt3__16__treeINS_12__value_typeI10llm_tensorPKcEENS_19__map_value_compareIS2_S5_NS_4lessIS2_EELb1EEENS_9allocatorIS5_EEE12__find_equalIS2_EERPNS_16__tree_node_baseIPvEENS_21__tree_const_iteratorIS5_PNS_11__tree_nodeIS5_SF_EElEERPNS_15__tree_end_nodeISH_EESI_RKT_, symObjAddr: 0x6A0, symBinAddr: 0x52DC, symSize: 0x1B0 }
  - { offset: 0x65177, size: 0x8, addend: 0x0, symName: __ZNSt3__13mapI8llm_archPKcNS_4lessIS1_EENS_9allocatorINS_4pairIKS1_S3_EEEEEC2B8ne200100ESt16initializer_listIS9_ERKS5_, symObjAddr: 0xA50, symBinAddr: 0x54D0, symSize: 0xF0 }
  - { offset: 0x654EF, size: 0x8, addend: 0x0, symName: __ZNSt3__16__treeINS_12__value_typeI8llm_archPKcEENS_19__map_value_compareIS2_S5_NS_4lessIS2_EELb1EEENS_9allocatorIS5_EEE12__find_equalIS2_EERPNS_16__tree_node_baseIPvEENS_21__tree_const_iteratorIS5_PNS_11__tree_nodeIS5_SF_EElEERPNS_15__tree_end_nodeISH_EESI_RKT_, symObjAddr: 0xB40, symBinAddr: 0x55C0, symSize: 0x1B0 }
  - { offset: 0x65552, size: 0x8, addend: 0x0, symName: __ZNSt3__16__treeINS_12__value_typeI8llm_archPKcEENS_19__map_value_compareIS2_S5_NS_4lessIS2_EELb1EEENS_9allocatorIS5_EEE12__find_equalIS2_EERPNS_16__tree_node_baseIPvEENS_21__tree_const_iteratorIS5_PNS_11__tree_nodeIS5_SF_EElEERPNS_15__tree_end_nodeISH_EESI_RKT_, symObjAddr: 0xB40, symBinAddr: 0x55C0, symSize: 0x1B0 }
  - { offset: 0x6556E, size: 0x8, addend: 0x0, symName: __ZNSt3__16__treeINS_12__value_typeI8llm_archPKcEENS_19__map_value_compareIS2_S5_NS_4lessIS2_EELb1EEENS_9allocatorIS5_EEE12__find_equalIS2_EERPNS_16__tree_node_baseIPvEENS_21__tree_const_iteratorIS5_PNS_11__tree_nodeIS5_SF_EElEERPNS_15__tree_end_nodeISH_EESI_RKT_, symObjAddr: 0xB40, symBinAddr: 0x55C0, symSize: 0x1B0 }
  - { offset: 0x65C32, size: 0x8, addend: 0x0, symName: __ZNSt3__13mapI6llm_kvPKcNS_4lessIS1_EENS_9allocatorINS_4pairIKS1_S3_EEEEEC2B8ne200100ESt16initializer_listIS9_ERKS5_, symObjAddr: 0xD34, symBinAddr: 0x57B4, symSize: 0xF0 }
  - { offset: 0x65FAA, size: 0x8, addend: 0x0, symName: __ZNSt3__16__treeINS_12__value_typeI6llm_kvPKcEENS_19__map_value_compareIS2_S5_NS_4lessIS2_EELb1EEENS_9allocatorIS5_EEE12__find_equalIS2_EERPNS_16__tree_node_baseIPvEENS_21__tree_const_iteratorIS5_PNS_11__tree_nodeIS5_SF_EElEERPNS_15__tree_end_nodeISH_EESI_RKT_, symObjAddr: 0xE24, symBinAddr: 0x58A4, symSize: 0x1B0 }
  - { offset: 0x6600D, size: 0x8, addend: 0x0, symName: __ZNSt3__16__treeINS_12__value_typeI6llm_kvPKcEENS_19__map_value_compareIS2_S5_NS_4lessIS2_EELb1EEENS_9allocatorIS5_EEE12__find_equalIS2_EERPNS_16__tree_node_baseIPvEENS_21__tree_const_iteratorIS5_PNS_11__tree_nodeIS5_SF_EElEERPNS_15__tree_end_nodeISH_EESI_RKT_, symObjAddr: 0xE24, symBinAddr: 0x58A4, symSize: 0x1B0 }
  - { offset: 0x66029, size: 0x8, addend: 0x0, symName: __ZNSt3__16__treeINS_12__value_typeI6llm_kvPKcEENS_19__map_value_compareIS2_S5_NS_4lessIS2_EELb1EEENS_9allocatorIS5_EEE12__find_equalIS2_EERPNS_16__tree_node_baseIPvEENS_21__tree_const_iteratorIS5_PNS_11__tree_nodeIS5_SF_EElEERPNS_15__tree_end_nodeISH_EESI_RKT_, symObjAddr: 0xE24, symBinAddr: 0x58A4, symSize: 0x1B0 }
  - { offset: 0x66749, size: 0x8, addend: 0x0, symName: __ZNSt3__16__treeINS_12__value_typeI8llm_archNS_3mapI10llm_tensorPKcNS_4lessIS4_EENS_9allocatorINS_4pairIKS4_S6_EEEEEEEENS_19__map_value_compareIS2_SF_NS7_IS2_EELb1EEENS9_ISF_EEE12__find_equalIS2_EERPNS_16__tree_node_baseIPvEENS_21__tree_const_iteratorISF_PNS_11__tree_nodeISF_SN_EElEERPNS_15__tree_end_nodeISP_EESQ_RKT_, symObjAddr: 0x1208, symBinAddr: 0x5C88, symSize: 0x1B0 }
  - { offset: 0x667AC, size: 0x8, addend: 0x0, symName: __ZNSt3__16__treeINS_12__value_typeI8llm_archNS_3mapI10llm_tensorPKcNS_4lessIS4_EENS_9allocatorINS_4pairIKS4_S6_EEEEEEEENS_19__map_value_compareIS2_SF_NS7_IS2_EELb1EEENS9_ISF_EEE12__find_equalIS2_EERPNS_16__tree_node_baseIPvEENS_21__tree_const_iteratorISF_PNS_11__tree_nodeISF_SN_EElEERPNS_15__tree_end_nodeISP_EESQ_RKT_, symObjAddr: 0x1208, symBinAddr: 0x5C88, symSize: 0x1B0 }
  - { offset: 0x667C8, size: 0x8, addend: 0x0, symName: __ZNSt3__16__treeINS_12__value_typeI8llm_archNS_3mapI10llm_tensorPKcNS_4lessIS4_EENS_9allocatorINS_4pairIKS4_S6_EEEEEEEENS_19__map_value_compareIS2_SF_NS7_IS2_EELb1EEENS9_ISF_EEE12__find_equalIS2_EERPNS_16__tree_node_baseIPvEENS_21__tree_const_iteratorISF_PNS_11__tree_nodeISF_SN_EElEERPNS_15__tree_end_nodeISP_EESQ_RKT_, symObjAddr: 0x1208, symBinAddr: 0x5C88, symSize: 0x1B0 }
  - { offset: 0x66B01, size: 0x8, addend: 0x0, symName: __ZNSt3__110unique_ptrINS_11__tree_nodeINS_12__value_typeI8llm_archNS_3mapI10llm_tensorPKcNS_4lessIS5_EENS_9allocatorINS_4pairIKS5_S7_EEEEEEEEPvEENS_22__tree_node_destructorINSA_ISI_EEEEED1B8ne200100Ev, symObjAddr: 0x13B8, symBinAddr: 0x5E38, symSize: 0x4C }
  - { offset: 0x67183, size: 0x8, addend: 0x0, symName: __ZNSt3__13mapI10llm_tensor15llm_tensor_infoNS_4lessIS1_EENS_9allocatorINS_4pairIKS1_S2_EEEEEC2B8ne200100ESt16initializer_listIS8_ERKS4_, symObjAddr: 0x1454, symBinAddr: 0x5ED4, symSize: 0xFC }
  - { offset: 0x674FB, size: 0x8, addend: 0x0, symName: __ZNSt3__16__treeINS_12__value_typeI10llm_tensor15llm_tensor_infoEENS_19__map_value_compareIS2_S4_NS_4lessIS2_EELb1EEENS_9allocatorIS4_EEE12__find_equalIS2_EERPNS_16__tree_node_baseIPvEENS_21__tree_const_iteratorIS4_PNS_11__tree_nodeIS4_SE_EElEERPNS_15__tree_end_nodeISG_EESH_RKT_, symObjAddr: 0x1550, symBinAddr: 0x5FD0, symSize: 0x1B0 }
  - { offset: 0x6755E, size: 0x8, addend: 0x0, symName: __ZNSt3__16__treeINS_12__value_typeI10llm_tensor15llm_tensor_infoEENS_19__map_value_compareIS2_S4_NS_4lessIS2_EELb1EEENS_9allocatorIS4_EEE12__find_equalIS2_EERPNS_16__tree_node_baseIPvEENS_21__tree_const_iteratorIS4_PNS_11__tree_nodeIS4_SE_EElEERPNS_15__tree_end_nodeISG_EESH_RKT_, symObjAddr: 0x1550, symBinAddr: 0x5FD0, symSize: 0x1B0 }
  - { offset: 0x6757A, size: 0x8, addend: 0x0, symName: __ZNSt3__16__treeINS_12__value_typeI10llm_tensor15llm_tensor_infoEENS_19__map_value_compareIS2_S4_NS_4lessIS2_EELb1EEENS_9allocatorIS4_EEE12__find_equalIS2_EERPNS_16__tree_node_baseIPvEENS_21__tree_const_iteratorIS4_PNS_11__tree_nodeIS4_SE_EElEERPNS_15__tree_end_nodeISG_EESH_RKT_, symObjAddr: 0x1550, symBinAddr: 0x5FD0, symSize: 0x1B0 }
  - { offset: 0x67AC0, size: 0x8, addend: 0x0, symName: __GLOBAL__sub_I_llama_arch.cpp, symObjAddr: 0x6470, symBinAddr: 0xAE68, symSize: 0x11C }
  - { offset: 0x796D2, size: 0x8, addend: 0x0, symName: __ZNSt3__124__put_character_sequenceB8ne200100IcNS_11char_traitsIcEEEERNS_13basic_ostreamIT_T0_EES7_PKS4_m, symObjAddr: 0x56A0, symBinAddr: 0x10504, symSize: 0x170 }
  - { offset: 0x80C02, size: 0x8, addend: 0x0, symName: __ZNSt3__116__pad_and_outputB8ne200100IcNS_11char_traitsIcEEEENS_19ostreambuf_iteratorIT_T0_EES6_PKS4_S8_S8_RNS_8ios_baseES4_, symObjAddr: 0x5810, symBinAddr: 0x10674, symSize: 0x1A4 }
  - { offset: 0x84F54, size: 0x8, addend: 0x0, symName: __ZN18llama_batch_allocrC2Ej, symObjAddr: 0x0, symBinAddr: 0xAF84, symSize: 0x2C8 }
  - { offset: 0x85D2C, size: 0x8, addend: 0x0, symName: __ZNSt3__16vectorINS_3setIiNS_4lessIiEENS_9allocatorIiEEEENS4_IS6_EEE8__appendEm, symObjAddr: 0x468C, symBinAddr: 0xF600, symSize: 0x224 }
  - { offset: 0x863C2, size: 0x8, addend: 0x0, symName: __ZNSt3__16vectorINS_3setIiNS_4lessIiEENS_9allocatorIiEEEENS4_IS6_EEE20__throw_length_errorB8ne200100Ev, symObjAddr: 0x48B0, symBinAddr: 0xF824, symSize: 0x14 }
  - { offset: 0x863CD, size: 0x8, addend: 0x0, symName: __ZNSt3__16vectorINS0_IbNS_9allocatorIbEEEENS1_IS3_EEE8__appendEm, symObjAddr: 0x4960, symBinAddr: 0xF838, symSize: 0x1CC }
  - { offset: 0x86A22, size: 0x8, addend: 0x0, symName: __ZNSt3__16vectorINS0_IbNS_9allocatorIbEEEENS1_IS3_EEE20__throw_length_errorB8ne200100Ev, symObjAddr: 0x4B2C, symBinAddr: 0xFA04, symSize: 0x14 }
  - { offset: 0x86A2D, size: 0x8, addend: 0x0, symName: __ZNSt3__16vectorIbNS_9allocatorIbEEE6resizeEmb, symObjAddr: 0x2C8, symBinAddr: 0xB24C, symSize: 0x264 }
  - { offset: 0x87209, size: 0x8, addend: 0x0, symName: __ZNSt3__16vectorIiNS_9allocatorIiEEE8__appendEmRKi, symObjAddr: 0x4C5C, symBinAddr: 0xFB34, symSize: 0x234 }
  - { offset: 0x87651, size: 0x8, addend: 0x0, symName: __ZNSt3__16vectorIiNS_9allocatorIiEEE20__throw_length_errorB8ne200100Ev, symObjAddr: 0x4E90, symBinAddr: 0xFD68, symSize: 0x14 }
  - { offset: 0x8765C, size: 0x8, addend: 0x0, symName: __ZNSt3__113unordered_mapINS_6bitsetILm64EEENS_6vectorIiNS_9allocatorIiEEEENS_4hashIS2_EENS_8equal_toIS2_EENS4_INS_4pairIKS2_S6_EEEEED1B8ne200100Ev, symObjAddr: 0x52C, symBinAddr: 0xB4B0, symSize: 0x68 }
  - { offset: 0x87A76, size: 0x8, addend: 0x0, symName: __ZNSt3__16vectorINS0_IbNS_9allocatorIbEEEENS1_IS3_EEED1B8ne200100Ev, symObjAddr: 0x594, symBinAddr: 0xB518, symSize: 0x68 }
  - { offset: 0x87CDC, size: 0x8, addend: 0x0, symName: __ZNSt3__16vectorINS_3setIiNS_4lessIiEENS_9allocatorIiEEEENS4_IS6_EEED1B8ne200100Ev, symObjAddr: 0x5FC, symBinAddr: 0xB580, symSize: 0x68 }
  - { offset: 0x880FC, size: 0x8, addend: 0x0, symName: __ZNSt3__16vectorIbNS_9allocatorIbEEE7reserveEm, symObjAddr: 0x4B40, symBinAddr: 0xFA18, symSize: 0x108 }
  - { offset: 0x88511, size: 0x8, addend: 0x0, symName: __ZNSt3__16vectorIbNS_9allocatorIbEEE20__throw_length_errorB8ne200100Ev, symObjAddr: 0x4C48, symBinAddr: 0xFB20, symSize: 0x14 }
  - { offset: 0x8851C, size: 0x8, addend: 0x0, symName: __ZNSt3__16vectorIbNS_9allocatorIbEEE20__throw_length_errorB8ne200100Ev, symObjAddr: 0x4C48, symBinAddr: 0xFB20, symSize: 0x14 }
  - { offset: 0x88534, size: 0x8, addend: 0x0, symName: __ZNSt3__16vectorIiNS_9allocatorIiEEE8__appendEmRKi, symObjAddr: 0x4C5C, symBinAddr: 0xFB34, symSize: 0x234 }
  - { offset: 0x88A21, size: 0x8, addend: 0x0, symName: __ZNSt3__16__treeIiNS_4lessIiEENS_9allocatorIiEEE7destroyEPNS_11__tree_nodeIiPvEE, symObjAddr: 0x4648, symBinAddr: 0xF5BC, symSize: 0x44 }
  - { offset: 0x88B38, size: 0x8, addend: 0x0, symName: __ZN18llama_batch_allocrC1Ej, symObjAddr: 0x664, symBinAddr: 0xB5E8, symSize: 0x4 }
  - { offset: 0x88B74, size: 0x8, addend: 0x0, symName: __ZN18llama_batch_allocrC1Ej, symObjAddr: 0x664, symBinAddr: 0xB5E8, symSize: 0x4 }
  - { offset: 0x8A17F, size: 0x8, addend: 0x0, symName: __ZN18llama_batch_allocr4initERK11llama_batchRK11llama_vocabPK14llama_memory_ijjb, symObjAddr: 0x668, symBinAddr: 0xB5EC, symSize: 0x1834 }
  - { offset: 0x8DC1A, size: 0x8, addend: 0x0, symName: __ZN18llama_batch_allocr5clearEv, symObjAddr: 0x1E9C, symBinAddr: 0xCE20, symSize: 0x194 }
  - { offset: 0x8E57D, size: 0x8, addend: 0x0, symName: __ZNSt3__16vectorIiNS_9allocatorIiEEE8__appendEm, symObjAddr: 0x4EA4, symBinAddr: 0xFD7C, symSize: 0x120 }
  - { offset: 0x8E959, size: 0x8, addend: 0x0, symName: __ZNSt3__16vectorIPiNS_9allocatorIS1_EEE8__appendEm, symObjAddr: 0x4FC4, symBinAddr: 0xFE9C, symSize: 0x120 }
  - { offset: 0x8E964, size: 0x8, addend: 0x0, symName: __ZNSt3__16vectorIPiNS_9allocatorIS1_EEE8__appendEm, symObjAddr: 0x4FC4, symBinAddr: 0xFE9C, symSize: 0x120 }
  - { offset: 0x8ED40, size: 0x8, addend: 0x0, symName: __ZNSt3__16vectorIPiNS_9allocatorIS1_EEE20__throw_length_errorB8ne200100Ev, symObjAddr: 0x50E4, symBinAddr: 0xFFBC, symSize: 0x14 }
  - { offset: 0x8ED5B, size: 0x8, addend: 0x0, symName: __ZNSt3__112__hash_tableINS_17__hash_value_typeINS_6bitsetILm64EEENS_6vectorIiNS_9allocatorIiEEEEEENS_22__unordered_map_hasherIS3_S8_NS_4hashIS3_EENS_8equal_toIS3_EELb1EEENS_21__unordered_map_equalIS3_S8_SD_SB_Lb1EEENS5_IS8_EEE25__emplace_unique_key_argsIS3_JRKNS_21piecewise_construct_tENS_5tupleIJRKS3_EEENSN_IJEEEEEENS_4pairINS_15__hash_iteratorIPNS_11__hash_nodeIS8_PvEEEEbEERKT_DpOT0_, symObjAddr: 0x5194, symBinAddr: 0xFFF8, symSize: 0x32C }
  - { offset: 0x8F539, size: 0x8, addend: 0x0, symName: __ZN18llama_batch_allocr12ubatch_printERK12llama_ubatchi, symObjAddr: 0x211C, symBinAddr: 0xD0A0, symSize: 0x9A4 }
  - { offset: 0x908F3, size: 0x8, addend: 0x0, symName: __ZNSt3__118basic_stringstreamIcNS_11char_traitsIcEENS_9allocatorIcEEEC1B8ne200100Ev, symObjAddr: 0x2AC0, symBinAddr: 0xDA44, symSize: 0x194 }
  - { offset: 0x90C49, size: 0x8, addend: 0x0, symName: __ZNSt3__16vectorIiNS_9allocatorIiEEE20__throw_length_errorB8ne200100Ev, symObjAddr: 0x4E90, symBinAddr: 0xFD68, symSize: 0x14 }
  - { offset: 0x90C61, size: 0x8, addend: 0x0, symName: __ZNSt3__16vectorIiNS_9allocatorIiEEE8__appendEm, symObjAddr: 0x4EA4, symBinAddr: 0xFD7C, symSize: 0x120 }
  - { offset: 0x90C6C, size: 0x8, addend: 0x0, symName: __ZNSt3__16vectorINS_6bitsetILm64EEENS_9allocatorIS2_EEE20__throw_length_errorB8ne200100Ev, symObjAddr: 0x5180, symBinAddr: 0xFFE4, symSize: 0x14 }
  - { offset: 0x90C84, size: 0x8, addend: 0x0, symName: __ZNSt3__112__hash_tableINS_17__hash_value_typeINS_6bitsetILm64EEENS_6vectorIiNS_9allocatorIiEEEEEENS_22__unordered_map_hasherIS3_S8_NS_4hashIS3_EENS_8equal_toIS3_EELb1EEENS_21__unordered_map_equalIS3_S8_SD_SB_Lb1EEENS5_IS8_EEE25__emplace_unique_key_argsIS3_JRKNS_21piecewise_construct_tENS_5tupleIJRKS3_EEENSN_IJEEEEEENS_4pairINS_15__hash_iteratorIPNS_11__hash_nodeIS8_PvEEEEbEERKT_DpOT0_, symObjAddr: 0x5194, symBinAddr: 0xFFF8, symSize: 0x32C }
  - { offset: 0x90CA9, size: 0x8, addend: 0x0, symName: __ZNSt3__16vectorIaNS_9allocatorIaEEE20__throw_length_errorB8ne200100Ev, symObjAddr: 0x50F8, symBinAddr: 0xFFD0, symSize: 0x14 }
  - { offset: 0x90CD1, size: 0x8, addend: 0x0, symName: __ZN12llama_ubatchD1Ev, symObjAddr: 0x2D54, symBinAddr: 0xDCD8, symSize: 0x5C }
  - { offset: 0x90D9D, size: 0x8, addend: 0x0, symName: __ZNSt3__118basic_stringstreamIcNS_11char_traitsIcEENS_9allocatorIcEEED1Ev, symObjAddr: 0x2CCC, symBinAddr: 0xDC50, symSize: 0x88 }
  - { offset: 0x91038, size: 0x8, addend: 0x0, symName: __ZNSt3__16vectorIiNS_9allocatorIiEEE9push_backB8ne200100ERKi, symObjAddr: 0x2030, symBinAddr: 0xCFB4, symSize: 0xEC }
  - { offset: 0x91433, size: 0x8, addend: 0x0, symName: __ZN18llama_batch_allocr12ubatch_printERK12llama_ubatchi, symObjAddr: 0x211C, symBinAddr: 0xD0A0, symSize: 0x9A4 }
  - { offset: 0x91818, size: 0x8, addend: 0x0, symName: __ZNK18llama_batch_allocr11seq_pos_minEi, symObjAddr: 0x2C54, symBinAddr: 0xDBD8, symSize: 0x28 }
  - { offset: 0x91843, size: 0x8, addend: 0x0, symName: __ZNK18llama_batch_allocr11seq_pos_minEi, symObjAddr: 0x2C54, symBinAddr: 0xDBD8, symSize: 0x28 }
  - { offset: 0x918B8, size: 0x8, addend: 0x0, symName: __ZNK18llama_batch_allocr11seq_pos_maxEi, symObjAddr: 0x2C7C, symBinAddr: 0xDC00, symSize: 0x50 }
  - { offset: 0x918E3, size: 0x8, addend: 0x0, symName: __ZNK18llama_batch_allocr11seq_pos_maxEi, symObjAddr: 0x2C7C, symBinAddr: 0xDC00, symSize: 0x50 }
  - { offset: 0x91A51, size: 0x8, addend: 0x0, symName: __ZN18llama_batch_allocr11split_resetEv, symObjAddr: 0x2DB0, symBinAddr: 0xDD34, symSize: 0x20 }
  - { offset: 0x91A75, size: 0x8, addend: 0x0, symName: __ZN18llama_batch_allocr11split_resetEv, symObjAddr: 0x2DB0, symBinAddr: 0xDD34, symSize: 0x20 }
  - { offset: 0x91A94, size: 0x8, addend: 0x0, symName: __ZN18llama_batch_allocr11split_resetEv, symObjAddr: 0x2DB0, symBinAddr: 0xDD34, symSize: 0x20 }
  - { offset: 0x91F55, size: 0x8, addend: 0x0, symName: __ZN18llama_batch_allocr14ubatch_reserveEjj, symObjAddr: 0x2DD0, symBinAddr: 0xDD54, symSize: 0x430 }
  - { offset: 0x93093, size: 0x8, addend: 0x0, symName: __ZNSt3__110shared_ptrIN12llama_ubatch6data_tEED1B8ne200100Ev, symObjAddr: 0x3200, symBinAddr: 0xE184, symSize: 0x5C }
  - { offset: 0x93128, size: 0x8, addend: 0x0, symName: __ZNK18llama_batch_allocr9get_batchEv, symObjAddr: 0x325C, symBinAddr: 0xE1E0, symSize: 0x4 }
  - { offset: 0x93150, size: 0x8, addend: 0x0, symName: __ZNK18llama_batch_allocr12get_n_tokensEv, symObjAddr: 0x3260, symBinAddr: 0xE1E4, symSize: 0x8 }
  - { offset: 0x93172, size: 0x8, addend: 0x0, symName: __ZNK18llama_batch_allocr13get_n_outputsEv, symObjAddr: 0x3268, symBinAddr: 0xE1EC, symSize: 0x8 }
  - { offset: 0x9319C, size: 0x8, addend: 0x0, symName: __ZNK18llama_batch_allocr10get_n_usedEv, symObjAddr: 0x3270, symBinAddr: 0xE1F4, symSize: 0x8 }
  - { offset: 0x931C6, size: 0x8, addend: 0x0, symName: __ZN18llama_batch_allocr11get_out_idsEv, symObjAddr: 0x3278, symBinAddr: 0xE1FC, symSize: 0x8 }
  - { offset: 0x931F0, size: 0x8, addend: 0x0, symName: __ZN18llama_batch_allocr12split_simpleEj, symObjAddr: 0x3280, symBinAddr: 0xE204, symSize: 0x200 }
  - { offset: 0x93946, size: 0x8, addend: 0x0, symName: __ZN18llama_batch_allocr10ubatch_addERKNSt3__16vectorIiNS0_9allocatorIiEEEEjb, symObjAddr: 0x3480, symBinAddr: 0xE404, symSize: 0x6E4 }
  - { offset: 0x94EFC, size: 0x8, addend: 0x0, symName: __ZNSt3__16vectorIfNS_9allocatorIfEEE8__appendEm, symObjAddr: 0x5F2C, symBinAddr: 0x10D7C, symSize: 0x120 }
  - { offset: 0x952D8, size: 0x8, addend: 0x0, symName: __ZNSt3__16vectorIfNS_9allocatorIfEEE20__throw_length_errorB8ne200100Ev, symObjAddr: 0x604C, symBinAddr: 0x10E9C, symSize: 0x14 }
  - { offset: 0x957E1, size: 0x8, addend: 0x0, symName: __ZN18llama_batch_allocr11split_equalEjb, symObjAddr: 0x3B64, symBinAddr: 0xEAE8, symSize: 0x660 }
  - { offset: 0x970F8, size: 0x8, addend: 0x0, symName: __ZNSt3__16vectorIiNS_9allocatorIiEEE18__insert_with_sizeB8ne200100INS_11__wrap_iterIPiEES7_EES7_NS5_IPKiEET_T0_l, symObjAddr: 0x5B30, symBinAddr: 0x10980, symSize: 0x3FC }
  - { offset: 0x97BC2, size: 0x8, addend: 0x0, symName: __ZNSt3__16vectorIfNS_9allocatorIfEEE8__appendEm, symObjAddr: 0x5F2C, symBinAddr: 0x10D7C, symSize: 0x120 }
  - { offset: 0x97BDF, size: 0x8, addend: 0x0, symName: __ZNSt3__128__exception_guard_exceptionsINS_6vectorINS1_IiNS_9allocatorIiEEEENS2_IS4_EEE16__destroy_vectorEED1B8ne200100Ev, symObjAddr: 0x5AAC, symBinAddr: 0x108FC, symSize: 0x84 }
  - { offset: 0x97E68, size: 0x8, addend: 0x0, symName: __ZNSt3__16vectorINS0_IiNS_9allocatorIiEEEENS1_IS3_EEED1B8ne200100Ev, symObjAddr: 0x41C4, symBinAddr: 0xF148, symSize: 0x74 }
  - { offset: 0x980E3, size: 0x8, addend: 0x0, symName: __ZN18llama_batch_allocr9split_seqEj, symObjAddr: 0x4238, symBinAddr: 0xF1BC, symSize: 0x284 }
  - { offset: 0x98953, size: 0x8, addend: 0x0, symName: _llama_batch_get_one, symObjAddr: 0x44BC, symBinAddr: 0xF440, symSize: 0x1C }
  - { offset: 0x9898B, size: 0x8, addend: 0x0, symName: _llama_batch_init, symObjAddr: 0x44D8, symBinAddr: 0xF45C, symSize: 0xD0 }
  - { offset: 0x98A84, size: 0x8, addend: 0x0, symName: _llama_batch_free, symObjAddr: 0x45A8, symBinAddr: 0xF52C, symSize: 0x90 }
  - { offset: 0x9904A, size: 0x8, addend: 0x0, symName: __ZNSt3__16vectorINS_3setIiNS_4lessIiEENS_9allocatorIiEEEENS4_IS6_EEE20__throw_length_errorB8ne200100Ev, symObjAddr: 0x48B0, symBinAddr: 0xF824, symSize: 0x14 }
  - { offset: 0x9944D, size: 0x8, addend: 0x0, symName: __ZNSt3__16vectorINS0_IbNS_9allocatorIbEEEENS1_IS3_EEE20__throw_length_errorB8ne200100Ev, symObjAddr: 0x4B2C, symBinAddr: 0xFA04, symSize: 0x14 }
  - { offset: 0x99465, size: 0x8, addend: 0x0, symName: __ZNSt3__16vectorIbNS_9allocatorIbEEE7reserveEm, symObjAddr: 0x4B40, symBinAddr: 0xFA18, symSize: 0x108 }
  - { offset: 0x99A5E, size: 0x8, addend: 0x0, symName: __ZNSt3__16vectorIPiNS_9allocatorIS1_EEE20__throw_length_errorB8ne200100Ev, symObjAddr: 0x50E4, symBinAddr: 0xFFBC, symSize: 0x14 }
  - { offset: 0x99A76, size: 0x8, addend: 0x0, symName: __ZNSt3__16vectorIaNS_9allocatorIaEEE20__throw_length_errorB8ne200100Ev, symObjAddr: 0x50F8, symBinAddr: 0xFFD0, symSize: 0x14 }
  - { offset: 0x9A081, size: 0x8, addend: 0x0, symName: __ZNSt3__112__hash_tableINS_17__hash_value_typeINS_6bitsetILm64EEENS_6vectorIiNS_9allocatorIiEEEEEENS_22__unordered_map_hasherIS3_S8_NS_4hashIS3_EENS_8equal_toIS3_EELb1EEENS_21__unordered_map_equalIS3_S8_SD_SB_Lb1EEENS5_IS8_EEE11__do_rehashILb1EEEvm, symObjAddr: 0x5520, symBinAddr: 0x10384, symSize: 0x180 }
  - { offset: 0x9A40E, size: 0x8, addend: 0x0, symName: __ZNSt3__124__put_character_sequenceB8ne200100IcNS_11char_traitsIcEEEERNS_13basic_ostreamIT_T0_EES7_PKS4_m, symObjAddr: 0x56A0, symBinAddr: 0x10504, symSize: 0x170 }
  - { offset: 0x9A423, size: 0x8, addend: 0x0, symName: __ZNSt3__110unique_ptrINS_11__hash_nodeINS_17__hash_value_typeINS_6bitsetILm64EEENS_6vectorIiNS_9allocatorIiEEEEEEPvEENS_22__hash_node_destructorINS6_ISB_EEEEED1B8ne200100Ev, symObjAddr: 0x54C0, symBinAddr: 0x10324, symSize: 0x60 }
  - { offset: 0x9AC3F, size: 0x8, addend: 0x0, symName: __ZNSt3__120__shared_ptr_emplaceIN12llama_ubatch6data_tENS_9allocatorIS2_EEED1Ev, symObjAddr: 0x59C8, symBinAddr: 0x10818, symSize: 0x14 }
  - { offset: 0x9AC66, size: 0x8, addend: 0x0, symName: __ZNSt3__120__shared_ptr_emplaceIN12llama_ubatch6data_tENS_9allocatorIS2_EEED1Ev, symObjAddr: 0x59C8, symBinAddr: 0x10818, symSize: 0x14 }
  - { offset: 0x9AC88, size: 0x8, addend: 0x0, symName: __ZNSt3__120__shared_ptr_emplaceIN12llama_ubatch6data_tENS_9allocatorIS2_EEED1Ev, symObjAddr: 0x59C8, symBinAddr: 0x10818, symSize: 0x14 }
  - { offset: 0x9ACBE, size: 0x8, addend: 0x0, symName: __ZNSt3__120__shared_ptr_emplaceIN12llama_ubatch6data_tENS_9allocatorIS2_EEED0Ev, symObjAddr: 0x59DC, symBinAddr: 0x1082C, symSize: 0x24 }
  - { offset: 0x9ADDE, size: 0x8, addend: 0x0, symName: __ZNSt3__120__shared_ptr_emplaceIN12llama_ubatch6data_tENS_9allocatorIS2_EEE16__on_zero_sharedEv, symObjAddr: 0x5A00, symBinAddr: 0x10850, symSize: 0x8 }
  - { offset: 0x9AE07, size: 0x8, addend: 0x0, symName: __ZNSt3__120__shared_ptr_emplaceIN12llama_ubatch6data_tENS_9allocatorIS2_EEE16__on_zero_sharedEv, symObjAddr: 0x5A00, symBinAddr: 0x10850, symSize: 0x8 }
  - { offset: 0x9AE2B, size: 0x8, addend: 0x0, symName: __ZNSt3__120__shared_ptr_emplaceIN12llama_ubatch6data_tENS_9allocatorIS2_EEE16__on_zero_sharedEv, symObjAddr: 0x5A00, symBinAddr: 0x10850, symSize: 0x8 }
  - { offset: 0x9AE94, size: 0x8, addend: 0x0, symName: __ZN12llama_ubatch6data_tD2Ev, symObjAddr: 0x5A0C, symBinAddr: 0x1085C, symSize: 0xA0 }
  - { offset: 0x9B838, size: 0x8, addend: 0x0, symName: __ZNSt3__120__shared_ptr_emplaceIN12llama_ubatch6data_tENS_9allocatorIS2_EEE21__on_zero_shared_weakEv, symObjAddr: 0x5A08, symBinAddr: 0x10858, symSize: 0x4 }
  - { offset: 0x9B86C, size: 0x8, addend: 0x0, symName: __ZNSt3__120__shared_ptr_emplaceIN12llama_ubatch6data_tENS_9allocatorIS2_EEE21__on_zero_shared_weakEv, symObjAddr: 0x5A08, symBinAddr: 0x10858, symSize: 0x4 }
  - { offset: 0x9B88E, size: 0x8, addend: 0x0, symName: __ZNSt3__120__shared_ptr_emplaceIN12llama_ubatch6data_tENS_9allocatorIS2_EEE21__on_zero_shared_weakEv, symObjAddr: 0x5A08, symBinAddr: 0x10858, symSize: 0x4 }
  - { offset: 0x9B8B1, size: 0x8, addend: 0x0, symName: __ZNSt3__120__shared_ptr_emplaceIN12llama_ubatch6data_tENS_9allocatorIS2_EEE21__on_zero_shared_weakEv, symObjAddr: 0x5A08, symBinAddr: 0x10858, symSize: 0x4 }
  - { offset: 0x9B8E6, size: 0x8, addend: 0x0, symName: __ZNSt3__120__shared_ptr_emplaceIN12llama_ubatch6data_tENS_9allocatorIS2_EEE21__on_zero_shared_weakEv, symObjAddr: 0x5A08, symBinAddr: 0x10858, symSize: 0x4 }
  - { offset: 0x9BF4A, size: 0x8, addend: 0x0, symName: __ZNSt3__16vectorIfNS_9allocatorIfEEE20__throw_length_errorB8ne200100Ev, symObjAddr: 0x604C, symBinAddr: 0x10E9C, symSize: 0x14 }
  - { offset: 0x9DE2D, size: 0x8, addend: 0x0, symName: __ZL18LLM_CHAT_TEMPLATES, symObjAddr: 0x813A8, symBinAddr: 0x2E9360, symSize: 0x0 }
  - { offset: 0xA5BCB, size: 0x8, addend: 0x0, symName: __ZNSt3__1eqB8ne200100IcNS_11char_traitsIcEENS_9allocatorIcEEEEbRKNS_12basic_stringIT_T0_T1_EEPKS6_, symObjAddr: 0x548C, symBinAddr: 0x16104, symSize: 0x88 }
  - { offset: 0xA7D06, size: 0x8, addend: 0x0, symName: __ZNSt3__13mapINS_12basic_stringIcNS_11char_traitsIcEENS_9allocatorIcEEEE17llm_chat_templateNS_4lessIS6_EENS4_INS_4pairIKS6_S7_EEEEED1B8ne200100Ev, symObjAddr: 0x0, symBinAddr: 0x10EB0, symSize: 0x28 }
  - { offset: 0xA7DBA, size: 0x8, addend: 0x0, symName: __ZNSt3__16__treeINS_12__value_typeINS_12basic_stringIcNS_11char_traitsIcEENS_9allocatorIcEEEE17llm_chat_templateEENS_19__map_value_compareIS7_S9_NS_4lessIS7_EELb1EEENS5_IS9_EEE7destroyEPNS_11__tree_nodeIS9_PvEE, symObjAddr: 0x6014, symBinAddr: 0x16938, symSize: 0x60 }
  - { offset: 0xA8264, size: 0x8, addend: 0x0, symName: __Z26llm_chat_template_from_strRKNSt3__112basic_stringIcNS_11char_traitsIcEENS_9allocatorIcEEEE, symObjAddr: 0x28, symBinAddr: 0x10ED8, symSize: 0xF0 }
  - { offset: 0xA859E, size: 0x8, addend: 0x0, symName: __Z24llm_chat_detect_templateRKNSt3__112basic_stringIcNS_11char_traitsIcEENS_9allocatorIcEEEE, symObjAddr: 0x118, symBinAddr: 0x10FC8, symSize: 0x7EC }
  - { offset: 0xA8B7D, size: 0x8, addend: 0x0, symName: '__ZZ24llm_chat_detect_templateRKNSt3__112basic_stringIcNS_11char_traitsIcEENS_9allocatorIcEEEEENK3$_0clEPKc', symObjAddr: 0x904, symBinAddr: 0x117B4, symSize: 0xD8 }
  - { offset: 0xA8DDA, size: 0x8, addend: 0x0, symName: __ZNKSt3__112basic_stringIcNS_11char_traitsIcEENS_9allocatorIcEEE4findB8ne200100EPKcm, symObjAddr: 0x9DC, symBinAddr: 0x1188C, symSize: 0xEC }
  - { offset: 0xA979F, size: 0x8, addend: 0x0, symName: __Z23llm_chat_apply_template17llm_chat_templateRKNSt3__16vectorIPK18llama_chat_messageNS0_9allocatorIS4_EEEERNS0_12basic_stringIcNS0_11char_traitsIcEENS5_IcEEEEb, symObjAddr: 0xAC8, symBinAddr: 0x11978, symSize: 0x478C }
  - { offset: 0xB8F92, size: 0x8, addend: 0x0, symName: __ZL4trimRKNSt3__112basic_stringIcNS_11char_traitsIcEENS_9allocatorIcEEEE, symObjAddr: 0x5514, symBinAddr: 0x1618C, symSize: 0x1C0 }
  - { offset: 0xB9680, size: 0x8, addend: 0x0, symName: __ZNSt3__1eqB8ne200100IcNS_11char_traitsIcEENS_9allocatorIcEEEEbRKNS_12basic_stringIT_T0_T1_EEPKS6_, symObjAddr: 0x548C, symBinAddr: 0x16104, symSize: 0x88 }
  - { offset: 0xB9C02, size: 0x8, addend: 0x0, symName: _llama_chat_builtin_templates, symObjAddr: 0x575C, symBinAddr: 0x1634C, symSize: 0x90 }
  - { offset: 0xBA0F3, size: 0x8, addend: 0x0, symName: __ZNSt3__16__treeINS_12__value_typeINS_12basic_stringIcNS_11char_traitsIcEENS_9allocatorIcEEEE17llm_chat_templateEENS_19__map_value_compareIS7_S9_NS_4lessIS7_EELb1EEENS5_IS9_EEE30__emplace_hint_unique_key_argsIS7_JRKNS_4pairIKS7_S8_EEEEENSH_INS_15__tree_iteratorIS9_PNS_11__tree_nodeIS9_PvEElEEbEENS_21__tree_const_iteratorIS9_SQ_lEERKT_DpOT0_, symObjAddr: 0x590C, symBinAddr: 0x163DC, symSize: 0x104 }
  - { offset: 0xBA471, size: 0x8, addend: 0x0, symName: __ZNSt3__16__treeINS_12__value_typeINS_12basic_stringIcNS_11char_traitsIcEENS_9allocatorIcEEEE17llm_chat_templateEENS_19__map_value_compareIS7_S9_NS_4lessIS7_EELb1EEENS5_IS9_EEE12__find_equalIS7_EERPNS_16__tree_node_baseIPvEENS_21__tree_const_iteratorIS9_PNS_11__tree_nodeIS9_SI_EElEERPNS_15__tree_end_nodeISK_EESL_RKT_, symObjAddr: 0x5A10, symBinAddr: 0x164E0, symSize: 0x3F8 }
  - { offset: 0xBB135, size: 0x8, addend: 0x0, symName: __ZNSt3__110unique_ptrINS_11__tree_nodeINS_12__value_typeINS_12basic_stringIcNS_11char_traitsIcEENS_9allocatorIcEEEE17llm_chat_templateEEPvEENS_22__tree_node_destructorINS6_ISC_EEEEED1B8ne200100Ev, symObjAddr: 0x5E08, symBinAddr: 0x168D8, symSize: 0x60 }
  - { offset: 0xBC20A, size: 0x8, addend: 0x0, symName: __GLOBAL__sub_I_llama_chat.cpp, symObjAddr: 0x6AC8, symBinAddr: 0x16998, symSize: 0xB20 }
  - { offset: 0xEB092, size: 0x8, addend: 0x0, symName: __ZNK13llama_context12graph_get_cbEv, symObjAddr: 0x5738, symBinAddr: 0x1CB50, symSize: 0x14 }
  - { offset: 0xEB0ED, size: 0x8, addend: 0x0, symName: __ZNK13llama_context12graph_get_cbEv, symObjAddr: 0x5738, symBinAddr: 0x1CB50, symSize: 0x14 }
  - { offset: 0xEB110, size: 0x8, addend: 0x0, symName: __ZNK13llama_context12graph_get_cbEv, symObjAddr: 0x5738, symBinAddr: 0x1CB50, symSize: 0x14 }
  - { offset: 0xEB133, size: 0x8, addend: 0x0, symName: __ZNK13llama_context12graph_get_cbEv, symObjAddr: 0x5738, symBinAddr: 0x1CB50, symSize: 0x14 }
  - { offset: 0xEB14F, size: 0x8, addend: 0x0, symName: __ZNK13llama_context12graph_get_cbEv, symObjAddr: 0x5738, symBinAddr: 0x1CB50, symSize: 0x14 }
  - { offset: 0xEB16B, size: 0x8, addend: 0x0, symName: __ZNK13llama_context12graph_get_cbEv, symObjAddr: 0x5738, symBinAddr: 0x1CB50, symSize: 0x14 }
  - { offset: 0xEB184, size: 0x8, addend: 0x0, symName: __ZNK13llama_context12graph_get_cbEv, symObjAddr: 0x5738, symBinAddr: 0x1CB50, symSize: 0x14 }
  - { offset: 0xEB19C, size: 0x8, addend: 0x0, symName: __ZNK13llama_context12graph_get_cbEv, symObjAddr: 0x5738, symBinAddr: 0x1CB50, symSize: 0x14 }
  - { offset: 0xEB1B8, size: 0x8, addend: 0x0, symName: __ZNK13llama_context12graph_get_cbEv, symObjAddr: 0x5738, symBinAddr: 0x1CB50, symSize: 0x14 }
  - { offset: 0xECDEA, size: 0x8, addend: 0x0, symName: __ZN13llama_contextC2ERK11llama_model20llama_context_params, symObjAddr: 0x0, symBinAddr: 0x174B8, symSize: 0x157C }
  - { offset: 0xF06AC, size: 0x8, addend: 0x0, symName: __ZN13llama_context14output_reserveEi, symObjAddr: 0x1620, symBinAddr: 0x18AD8, symSize: 0x1D8 }
  - { offset: 0xF0B00, size: 0x8, addend: 0x0, symName: __ZN13llama_context13graph_reserveEjjjPK22llama_memory_context_i, symObjAddr: 0x1820, symBinAddr: 0x18CD8, symSize: 0x3B4 }
  - { offset: 0xF1358, size: 0x8, addend: 0x0, symName: __ZNSt3__16vectorINS_10unique_ptrI12ggml_backend20ggml_backend_deleterEENS_9allocatorIS4_EEE20__throw_length_errorB8ne200100Ev, symObjAddr: 0x96AC, symBinAddr: 0x209D0, symSize: 0x14 }
  - { offset: 0xF1370, size: 0x8, addend: 0x0, symName: __ZNSt3__16vectorINS_4pairIP12ggml_backendPFvS3_iEEENS_9allocatorIS6_EEE20__throw_length_errorB8ne200100Ev, symObjAddr: 0x96C0, symBinAddr: 0x209E4, symSize: 0x14 }
  - { offset: 0xF1385, size: 0x8, addend: 0x0, symName: __ZNSt3__16vectorIP12ggml_backendNS_9allocatorIS2_EEE20__throw_length_errorB8ne200100Ev, symObjAddr: 0x96E8, symBinAddr: 0x209F8, symSize: 0x14 }
  - { offset: 0xF1390, size: 0x8, addend: 0x0, symName: __ZNSt3__16vectorIP12ggml_backendNS_9allocatorIS2_EEE20__throw_length_errorB8ne200100Ev, symObjAddr: 0x96E8, symBinAddr: 0x209F8, symSize: 0x14 }
  - { offset: 0xF13A8, size: 0x8, addend: 0x0, symName: __ZNSt3__112__hash_tableINS_17__hash_value_typeIP18llama_adapter_lorafEENS_22__unordered_map_hasherIS3_S4_NS_4hashIS3_EENS_8equal_toIS3_EELb1EEENS_21__unordered_map_equalIS3_S4_S9_S7_Lb1EEENS_9allocatorIS4_EEE25__emplace_unique_key_argsIS3_JRKNS_21piecewise_construct_tENS_5tupleIJRKS3_EEENSK_IJEEEEEENS_4pairINS_15__hash_iteratorIPNS_11__hash_nodeIS4_PvEEEEbEERKT_DpOT0_, symObjAddr: 0x96FC, symBinAddr: 0x20A0C, symSize: 0x364 }
  - { offset: 0xF13B3, size: 0x8, addend: 0x0, symName: __ZNSt3__16vectorINS_4pairIP12ggml_backendPFvS3_iEEENS_9allocatorIS6_EEE20__throw_length_errorB8ne200100Ev, symObjAddr: 0x96C0, symBinAddr: 0x209E4, symSize: 0x14 }
  - { offset: 0xF143A, size: 0x8, addend: 0x0, symName: __ZNSt3__16vectorINS_10unique_ptrI12ggml_backend20ggml_backend_deleterEENS_9allocatorIS4_EEED1B8ne200100Ev, symObjAddr: 0x1C08, symBinAddr: 0x1908C, symSize: 0x70 }
  - { offset: 0xF1628, size: 0x8, addend: 0x0, symName: __ZNSt3__110unique_ptrI18ggml_backend_sched26ggml_backend_sched_deleterED1B8ne200100Ev, symObjAddr: 0x1C78, symBinAddr: 0x190FC, symSize: 0x34 }
  - { offset: 0xF16BC, size: 0x8, addend: 0x0, symName: __ZNSt3__110unique_ptrI18llama_batch_allocrNS_14default_deleteIS1_EEED1B8ne200100Ev, symObjAddr: 0x1CAC, symBinAddr: 0x19130, symSize: 0x3C }
  - { offset: 0xF177E, size: 0x8, addend: 0x0, symName: __ZNSt3__16__treeINS_12__value_typeIiNS_6vectorIfNS_9allocatorIfEEEEEENS_19__map_value_compareIiS6_NS_4lessIiEELb1EEENS3_IS6_EEE7destroyEPNS_11__tree_nodeIS6_PvEE, symObjAddr: 0x965C, symBinAddr: 0x20980, symSize: 0x50 }
  - { offset: 0xF1A35, size: 0x8, addend: 0x0, symName: __ZN11llama_crossD1Ev, symObjAddr: 0x1CE8, symBinAddr: 0x1916C, symSize: 0x78 }
  - { offset: 0xF1DC4, size: 0x8, addend: 0x0, symName: __ZNSt3__113unordered_mapIP18llama_adapter_lorafNS_4hashIS2_EENS_8equal_toIS2_EENS_9allocatorINS_4pairIKS2_fEEEEED1B8ne200100Ev, symObjAddr: 0x1D60, symBinAddr: 0x191E4, symSize: 0x48 }
  - { offset: 0xF2052, size: 0x8, addend: 0x0, symName: __ZN18llama_adapter_cvecD2Ev, symObjAddr: 0x8E0C, symBinAddr: 0x201E0, symSize: 0xC8 }
  - { offset: 0xF2568, size: 0x8, addend: 0x0, symName: _llama_set_abort_callback, symObjAddr: 0x157C, symBinAddr: 0x18A34, symSize: 0xA4 }
  - { offset: 0xF2A83, size: 0x8, addend: 0x0, symName: __ZNK13llama_context15graph_max_nodesEv, symObjAddr: 0x17F8, symBinAddr: 0x18CB0, symSize: 0x28 }
  - { offset: 0xF2FC2, size: 0x8, addend: 0x0, symName: __ZN18llama_batch_allocrD2Ev, symObjAddr: 0x8ED4, symBinAddr: 0x202A8, symSize: 0x174 }
  - { offset: 0xF42A1, size: 0x8, addend: 0x0, symName: __ZN16llm_graph_paramsD1Ev, symObjAddr: 0x3970, symBinAddr: 0x1ADE4, symSize: 0x90 }
  - { offset: 0xF4BF9, size: 0x8, addend: 0x0, symName: __ZN13llama_contextC1ERK11llama_model20llama_context_params, symObjAddr: 0x1DA8, symBinAddr: 0x1922C, symSize: 0x4 }
  - { offset: 0xF4C2B, size: 0x8, addend: 0x0, symName: __ZN13llama_contextC1ERK11llama_model20llama_context_params, symObjAddr: 0x1DA8, symBinAddr: 0x1922C, symSize: 0x4 }
  - { offset: 0xF4CEA, size: 0x8, addend: 0x0, symName: __ZN13llama_contextD2Ev, symObjAddr: 0x1DAC, symBinAddr: 0x19230, symSize: 0x1DC }
  - { offset: 0xF5F77, size: 0x8, addend: 0x0, symName: __ZN13llama_contextD1Ev, symObjAddr: 0x1F98, symBinAddr: 0x1940C, symSize: 0x4 }
  - { offset: 0xF5F9A, size: 0x8, addend: 0x0, symName: __ZN13llama_contextD1Ev, symObjAddr: 0x1F98, symBinAddr: 0x1940C, symSize: 0x4 }
  - { offset: 0xF5FAD, size: 0x8, addend: 0x0, symName: __ZN13llama_context11synchronizeEv, symObjAddr: 0x1F9C, symBinAddr: 0x19410, symSize: 0xF4 }
  - { offset: 0xF604A, size: 0x8, addend: 0x0, symName: __ZNK13llama_context9get_modelEv, symObjAddr: 0x2090, symBinAddr: 0x19504, symSize: 0x8 }
  - { offset: 0xF606C, size: 0x8, addend: 0x0, symName: __ZNK13llama_context11get_cparamsEv, symObjAddr: 0x2098, symBinAddr: 0x1950C, symSize: 0x8 }
  - { offset: 0xF6096, size: 0x8, addend: 0x0, symName: __ZNK13llama_context9get_schedEv, symObjAddr: 0x20A0, symBinAddr: 0x19514, symSize: 0x8 }
  - { offset: 0xF60C2, size: 0x8, addend: 0x0, symName: __ZNK13llama_context9get_schedEv, symObjAddr: 0x20A0, symBinAddr: 0x19514, symSize: 0x8 }
  - { offset: 0xF60E0, size: 0x8, addend: 0x0, symName: __ZNK13llama_context5n_ctxEv, symObjAddr: 0x20A8, symBinAddr: 0x1951C, symSize: 0x8 }
  - { offset: 0xF6102, size: 0x8, addend: 0x0, symName: __ZNK13llama_context13n_ctx_per_seqEv, symObjAddr: 0x20B0, symBinAddr: 0x19524, symSize: 0x10 }
  - { offset: 0xF612C, size: 0x8, addend: 0x0, symName: __ZNK13llama_context7n_batchEv, symObjAddr: 0x20C0, symBinAddr: 0x19534, symSize: 0x8 }
  - { offset: 0xF614E, size: 0x8, addend: 0x0, symName: __ZNK13llama_context8n_ubatchEv, symObjAddr: 0x20C8, symBinAddr: 0x1953C, symSize: 0x8 }
  - { offset: 0xF6170, size: 0x8, addend: 0x0, symName: __ZNK13llama_context9n_seq_maxEv, symObjAddr: 0x20D0, symBinAddr: 0x19544, symSize: 0x8 }
  - { offset: 0xF6192, size: 0x8, addend: 0x0, symName: __ZNK13llama_context9n_threadsEv, symObjAddr: 0x20D8, symBinAddr: 0x1954C, symSize: 0x8 }
  - { offset: 0xF61B4, size: 0x8, addend: 0x0, symName: __ZNK13llama_context15n_threads_batchEv, symObjAddr: 0x20E0, symBinAddr: 0x19554, symSize: 0x8 }
  - { offset: 0xF61EC, size: 0x8, addend: 0x0, symName: __ZNK13llama_context10get_memoryEv, symObjAddr: 0x20E8, symBinAddr: 0x1955C, symSize: 0x8 }
  - { offset: 0xF6210, size: 0x8, addend: 0x0, symName: __ZNK13llama_context10get_memoryEv, symObjAddr: 0x20E8, symBinAddr: 0x1955C, symSize: 0x8 }
  - { offset: 0xF6244, size: 0x8, addend: 0x0, symName: __ZN13llama_context13memory_updateEb, symObjAddr: 0x20F0, symBinAddr: 0x19564, symSize: 0x208 }
  - { offset: 0xF6628, size: 0x8, addend: 0x0, symName: __ZNK13llama_context12pooling_typeEv, symObjAddr: 0x22F8, symBinAddr: 0x1976C, symSize: 0x8 }
  - { offset: 0xF664A, size: 0x8, addend: 0x0, symName: __ZN13llama_context10get_logitsEv, symObjAddr: 0x2300, symBinAddr: 0x19774, symSize: 0x24 }
  - { offset: 0xF6681, size: 0x8, addend: 0x0, symName: __ZN13llama_context14output_reorderEv, symObjAddr: 0x2324, symBinAddr: 0x19798, symSize: 0x66C }
  - { offset: 0xF681B, size: 0x8, addend: 0x0, symName: __ZN13llama_context14get_logits_ithEi, symObjAddr: 0x2990, symBinAddr: 0x19E04, symSize: 0x2B8 }
  - { offset: 0xF6AD2, size: 0x8, addend: 0x0, symName: __ZN13llama_context14get_embeddingsEv, symObjAddr: 0x2C48, symBinAddr: 0x1A0BC, symSize: 0x24 }
  - { offset: 0xF6B09, size: 0x8, addend: 0x0, symName: __ZN13llama_context18get_embeddings_ithEi, symObjAddr: 0x2C6C, symBinAddr: 0x1A0E0, symSize: 0x2B0 }
  - { offset: 0xF6F06, size: 0x8, addend: 0x0, symName: __ZN13llama_context18get_embeddings_seqEi, symObjAddr: 0x2F1C, symBinAddr: 0x1A390, symSize: 0x4C }
  - { offset: 0xF6F3A, size: 0x8, addend: 0x0, symName: __ZN13llama_context18get_embeddings_seqEi, symObjAddr: 0x2F1C, symBinAddr: 0x1A390, symSize: 0x4C }
  - { offset: 0xF6F59, size: 0x8, addend: 0x0, symName: __ZN13llama_context18get_embeddings_seqEi, symObjAddr: 0x2F1C, symBinAddr: 0x1A390, symSize: 0x4C }
  - { offset: 0xF6F81, size: 0x8, addend: 0x0, symName: __ZN13llama_context18get_embeddings_seqEi, symObjAddr: 0x2F1C, symBinAddr: 0x1A390, symSize: 0x4C }
  - { offset: 0xF706C, size: 0x8, addend: 0x0, symName: __ZN13llama_context17attach_threadpoolEP15ggml_threadpoolS1_, symObjAddr: 0x2F68, symBinAddr: 0x1A3DC, symSize: 0x5C }
  - { offset: 0xF70B3, size: 0x8, addend: 0x0, symName: __ZN13llama_context17detach_threadpoolEv, symObjAddr: 0x2FC4, symBinAddr: 0x1A438, symSize: 0x44 }
  - { offset: 0xF70E8, size: 0x8, addend: 0x0, symName: __ZN13llama_context13set_n_threadsEii, symObjAddr: 0x3008, symBinAddr: 0x1A47C, symSize: 0x58 }
  - { offset: 0xF712F, size: 0x8, addend: 0x0, symName: __ZN13llama_context18set_abort_callbackEPFbPvES0_, symObjAddr: 0x3060, symBinAddr: 0x1A4D4, symSize: 0xA4 }
  - { offset: 0xF7283, size: 0x8, addend: 0x0, symName: __ZN13llama_context14set_embeddingsEb, symObjAddr: 0x3104, symBinAddr: 0x1A578, symSize: 0x48 }
  - { offset: 0xF72BE, size: 0x8, addend: 0x0, symName: __ZN13llama_context15set_causal_attnEb, symObjAddr: 0x314C, symBinAddr: 0x1A5C0, symSize: 0x48 }
  - { offset: 0xF72F9, size: 0x8, addend: 0x0, symName: __ZN13llama_context10set_warmupEb, symObjAddr: 0x3194, symBinAddr: 0x1A608, symSize: 0x48 }
  - { offset: 0xF7358, size: 0x8, addend: 0x0, symName: __ZN13llama_context16set_adapter_loraEP18llama_adapter_loraf, symObjAddr: 0x31DC, symBinAddr: 0x1A650, symSize: 0x80 }
  - { offset: 0xF73ED, size: 0x8, addend: 0x0, symName: __ZNSt3__112__hash_tableINS_17__hash_value_typeIP18llama_adapter_lorafEENS_22__unordered_map_hasherIS3_S4_NS_4hashIS3_EENS_8equal_toIS3_EELb1EEENS_21__unordered_map_equalIS3_S4_S9_S7_Lb1EEENS_9allocatorIS4_EEE25__emplace_unique_key_argsIS3_JRKNS_21piecewise_construct_tENS_5tupleIJRKS3_EEENSK_IJEEEEEENS_4pairINS_15__hash_iteratorIPNS_11__hash_nodeIS4_PvEEEEbEERKT_DpOT0_, symObjAddr: 0x96FC, symBinAddr: 0x20A0C, symSize: 0x364 }
  - { offset: 0xF7D21, size: 0x8, addend: 0x0, symName: __ZN13llama_context15rm_adapter_loraEP18llama_adapter_lora, symObjAddr: 0x325C, symBinAddr: 0x1A6D0, symSize: 0x80 }
  - { offset: 0xF7F63, size: 0x8, addend: 0x0, symName: __ZNSt3__112__hash_tableINS_17__hash_value_typeIP18llama_adapter_lorafEENS_22__unordered_map_hasherIS3_S4_NS_4hashIS3_EENS_8equal_toIS3_EELb1EEENS_21__unordered_map_equalIS3_S4_S9_S7_Lb1EEENS_9allocatorIS4_EEE4findIS3_EENS_15__hash_iteratorIPNS_11__hash_nodeIS4_PvEEEERKT_, symObjAddr: 0x9BE0, symBinAddr: 0x20EF0, symSize: 0x110 }
  - { offset: 0xF7FBA, size: 0x8, addend: 0x0, symName: __ZNSt3__112__hash_tableINS_17__hash_value_typeIP18llama_adapter_lorafEENS_22__unordered_map_hasherIS3_S4_NS_4hashIS3_EENS_8equal_toIS3_EELb1EEENS_21__unordered_map_equalIS3_S4_S9_S7_Lb1EEENS_9allocatorIS4_EEE4findIS3_EENS_15__hash_iteratorIPNS_11__hash_nodeIS4_PvEEEERKT_, symObjAddr: 0x9BE0, symBinAddr: 0x20EF0, symSize: 0x110 }
  - { offset: 0xF7FD6, size: 0x8, addend: 0x0, symName: __ZNSt3__112__hash_tableINS_17__hash_value_typeIP18llama_adapter_lorafEENS_22__unordered_map_hasherIS3_S4_NS_4hashIS3_EENS_8equal_toIS3_EELb1EEENS_21__unordered_map_equalIS3_S4_S9_S7_Lb1EEENS_9allocatorIS4_EEE4findIS3_EENS_15__hash_iteratorIPNS_11__hash_nodeIS4_PvEEEERKT_, symObjAddr: 0x9BE0, symBinAddr: 0x20EF0, symSize: 0x110 }
  - { offset: 0xF80D0, size: 0x8, addend: 0x0, symName: __ZNSt3__112__hash_tableINS_17__hash_value_typeIP18llama_adapter_lorafEENS_22__unordered_map_hasherIS3_S4_NS_4hashIS3_EENS_8equal_toIS3_EELb1EEENS_21__unordered_map_equalIS3_S4_S9_S7_Lb1EEENS_9allocatorIS4_EEE6removeENS_21__hash_const_iteratorIPNS_11__hash_nodeIS4_PvEEEE, symObjAddr: 0x9CF0, symBinAddr: 0x21000, symSize: 0x138 }
  - { offset: 0xF8146, size: 0x8, addend: 0x0, symName: __ZNSt3__112__hash_tableINS_17__hash_value_typeIP18llama_adapter_lorafEENS_22__unordered_map_hasherIS3_S4_NS_4hashIS3_EENS_8equal_toIS3_EELb1EEENS_21__unordered_map_equalIS3_S4_S9_S7_Lb1EEENS_9allocatorIS4_EEE6removeENS_21__hash_const_iteratorIPNS_11__hash_nodeIS4_PvEEEE, symObjAddr: 0x9CF0, symBinAddr: 0x21000, symSize: 0x138 }
  - { offset: 0xF8162, size: 0x8, addend: 0x0, symName: __ZNSt3__112__hash_tableINS_17__hash_value_typeIP18llama_adapter_lorafEENS_22__unordered_map_hasherIS3_S4_NS_4hashIS3_EENS_8equal_toIS3_EELb1EEENS_21__unordered_map_equalIS3_S4_S9_S7_Lb1EEENS_9allocatorIS4_EEE6removeENS_21__hash_const_iteratorIPNS_11__hash_nodeIS4_PvEEEE, symObjAddr: 0x9CF0, symBinAddr: 0x21000, symSize: 0x138 }
  - { offset: 0xF83D4, size: 0x8, addend: 0x0, symName: __ZN13llama_context18clear_adapter_loraEv, symObjAddr: 0x32DC, symBinAddr: 0x1A750, symSize: 0x7C }
  - { offset: 0xF85C2, size: 0x8, addend: 0x0, symName: __ZN13llama_context18apply_adapter_cvecEPKfmiii, symObjAddr: 0x3358, symBinAddr: 0x1A7CC, symSize: 0x84 }
  - { offset: 0xF863F, size: 0x8, addend: 0x0, symName: __ZN13llama_context14process_ubatchERK12llama_ubatch14llm_graph_typeP22llama_memory_context_iR11ggml_status, symObjAddr: 0x33DC, symBinAddr: 0x1A850, symSize: 0x398 }
  - { offset: 0xF8C5A, size: 0x8, addend: 0x0, symName: __ZN13llama_context13graph_computeEP11ggml_cgraphb, symObjAddr: 0x3890, symBinAddr: 0x1AD04, symSize: 0xE0 }
  - { offset: 0xF8E13, size: 0x8, addend: 0x0, symName: __ZNK13llama_context12graph_paramsEP16llm_graph_resultRK12llama_ubatchPK22llama_memory_context_i14llm_graph_type, symObjAddr: 0x3774, symBinAddr: 0x1ABE8, symSize: 0x11C }
  - { offset: 0xF98EA, size: 0x8, addend: 0x0, symName: __ZN13llama_context6encodeERK11llama_batch, symObjAddr: 0x3A00, symBinAddr: 0x1AE74, symSize: 0xB58 }
  - { offset: 0xFB880, size: 0x8, addend: 0x0, symName: __ZN13llama_context6decodeERK11llama_batch, symObjAddr: 0x45B4, symBinAddr: 0x1B9CC, symSize: 0x1090 }
  - { offset: 0xFD184, size: 0x8, addend: 0x0, symName: __ZNSt3__16vectorIN13llama_context9swap_infoENS_9allocatorIS2_EEE9push_backB8ne200100EOS2_, symObjAddr: 0x5644, symBinAddr: 0x1CA5C, symSize: 0xEC }
  - { offset: 0xFD58B, size: 0x8, addend: 0x0, symName: __ZNK13llama_context18get_gf_res_reserveEv, symObjAddr: 0x5730, symBinAddr: 0x1CB48, symSize: 0x8 }
  - { offset: 0xFD858, size: 0x8, addend: 0x0, symName: __ZNSt3__16vectorIN13llama_context9swap_infoENS_9allocatorIS2_EEE20__throw_length_errorB8ne200100Ev, symObjAddr: 0xA340, symBinAddr: 0x21138, symSize: 0x14 }
  - { offset: 0xFD87B, size: 0x8, addend: 0x0, symName: __ZNK13llama_context18get_gf_res_reserveEv, symObjAddr: 0x5730, symBinAddr: 0x1CB48, symSize: 0x8 }
  - { offset: 0xFD8A7, size: 0x8, addend: 0x0, symName: __ZNK13llama_context18get_gf_res_reserveEv, symObjAddr: 0x5730, symBinAddr: 0x1CB48, symSize: 0x8 }
  - { offset: 0xFD9BB, size: 0x8, addend: 0x0, symName: __ZN13llama_context14state_get_sizeEv, symObjAddr: 0x574C, symBinAddr: 0x1CB64, symSize: 0xA0 }
  - { offset: 0xFDA7D, size: 0x8, addend: 0x0, symName: __ZN13llama_context16state_write_dataER16llama_io_write_i, symObjAddr: 0x57EC, symBinAddr: 0x1CC04, symSize: 0x35C }
  - { offset: 0xFE816, size: 0x8, addend: 0x0, symName: __ZN20llama_io_write_dummyD1Ev, symObjAddr: 0x5B48, symBinAddr: 0x1CF60, symSize: 0x4 }
  - { offset: 0xFE98C, size: 0x8, addend: 0x0, symName: __ZN13llama_context14state_get_dataEPhm, symObjAddr: 0x5B4C, symBinAddr: 0x1CF64, symSize: 0xA4 }
  - { offset: 0xFEA8A, size: 0x8, addend: 0x0, symName: __ZN21llama_io_write_bufferD1Ev, symObjAddr: 0x5BF0, symBinAddr: 0x1D008, symSize: 0x4 }
  - { offset: 0xFEBFA, size: 0x8, addend: 0x0, symName: __ZN13llama_context14state_set_dataEPKhm, symObjAddr: 0x5BF4, symBinAddr: 0x1D00C, symSize: 0xA4 }
  - { offset: 0xFECF8, size: 0x8, addend: 0x0, symName: __ZN13llama_context15state_read_dataER15llama_io_read_i, symObjAddr: 0x5C98, symBinAddr: 0x1D0B0, symSize: 0x554 }
  - { offset: 0xFFD9B, size: 0x8, addend: 0x0, symName: __ZN20llama_io_read_bufferD1Ev, symObjAddr: 0x61EC, symBinAddr: 0x1D604, symSize: 0x4 }
  - { offset: 0xFFE04, size: 0x8, addend: 0x0, symName: __ZN13llama_context18state_seq_get_sizeEij, symObjAddr: 0x61F0, symBinAddr: 0x1D608, symSize: 0xC8 }
  - { offset: 0xFFF39, size: 0x8, addend: 0x0, symName: __ZN13llama_context20state_seq_write_dataER16llama_io_write_iij, symObjAddr: 0x62B8, symBinAddr: 0x1D6D0, symSize: 0x40 }
  - { offset: 0xFFFB5, size: 0x8, addend: 0x0, symName: __ZN13llama_context18state_seq_get_dataEiPhmj, symObjAddr: 0x62F8, symBinAddr: 0x1D710, symSize: 0xD4 }
  - { offset: 0x100163, size: 0x8, addend: 0x0, symName: __ZN13llama_context18state_seq_set_dataEiPKhmj, symObjAddr: 0x63CC, symBinAddr: 0x1D7E4, symSize: 0xD4 }
  - { offset: 0x1002D4, size: 0x8, addend: 0x0, symName: __ZN13llama_context19state_seq_read_dataER15llama_io_read_iij, symObjAddr: 0x64A0, symBinAddr: 0x1D8B8, symSize: 0x40 }
  - { offset: 0x10072D, size: 0x8, addend: 0x0, symName: __ZN13llama_context15state_load_fileEPKcPimPm, symObjAddr: 0x64E0, symBinAddr: 0x1D8F8, symSize: 0x1D0 }
  - { offset: 0x100BBA, size: 0x8, addend: 0x0, symName: __ZN18llama_io_read_fileD1Ev, symObjAddr: 0x66B0, symBinAddr: 0x1DAC8, symSize: 0x44 }
  - { offset: 0x100BDE, size: 0x8, addend: 0x0, symName: __ZN18llama_io_read_fileD1Ev, symObjAddr: 0x66B0, symBinAddr: 0x1DAC8, symSize: 0x44 }
  - { offset: 0x100E8C, size: 0x8, addend: 0x0, symName: __ZN13llama_context15state_save_fileEPKcPKim, symObjAddr: 0x66F4, symBinAddr: 0x1DB0C, symSize: 0x104 }
  - { offset: 0x10125D, size: 0x8, addend: 0x0, symName: __ZN19llama_io_write_fileD1Ev, symObjAddr: 0x67F8, symBinAddr: 0x1DC10, symSize: 0x44 }
  - { offset: 0x101281, size: 0x8, addend: 0x0, symName: __ZN19llama_io_write_fileD1Ev, symObjAddr: 0x67F8, symBinAddr: 0x1DC10, symSize: 0x44 }
  - { offset: 0x1013C8, size: 0x8, addend: 0x0, symName: __ZN13llama_context19state_seq_load_fileEiPKcPimPm, symObjAddr: 0x683C, symBinAddr: 0x1DC54, symSize: 0x278 }
  - { offset: 0x1018E6, size: 0x8, addend: 0x0, symName: __ZN13llama_context19state_seq_save_fileEiPKcPKim, symObjAddr: 0x6AB4, symBinAddr: 0x1DECC, symSize: 0x198 }
  - { offset: 0x101D76, size: 0x8, addend: 0x0, symName: __ZN19llama_io_write_file7n_bytesEv, symObjAddr: 0x6C4C, symBinAddr: 0x1E064, symSize: 0x8 }
  - { offset: 0x101D98, size: 0x8, addend: 0x0, symName: __ZNK13llama_context13perf_get_dataEv, symObjAddr: 0x6C54, symBinAddr: 0x1E06C, symSize: 0x54 }
  - { offset: 0x101E7C, size: 0x8, addend: 0x0, symName: __ZN13llama_context10perf_resetEv, symObjAddr: 0x6CA8, symBinAddr: 0x1E0C0, symSize: 0x38 }
  - { offset: 0x101F44, size: 0x8, addend: 0x0, symName: __ZN13llama_context8opt_initEP11llama_model16llama_opt_params, symObjAddr: 0x6CE0, symBinAddr: 0x1E0F8, symSize: 0x5F8 }
  - { offset: 0x10287C, size: 0x8, addend: 0x0, symName: __ZN13llama_context14opt_epoch_iterEP16ggml_opt_datasetP15ggml_opt_resultRKNSt3__16vectorIiNS4_9allocatorIiEEEESA_R11llama_batchPFvbP16ggml_opt_contextS1_S3_xxxEbxxx, symObjAddr: 0x72D8, symBinAddr: 0x1E6F0, symSize: 0x718 }
  - { offset: 0x102997, size: 0x8, addend: 0x0, symName: __ZN13llama_context14opt_epoch_iterEP16ggml_opt_datasetP15ggml_opt_resultRKNSt3__16vectorIiNS4_9allocatorIiEEEESA_R11llama_batchPFvbP16ggml_opt_contextS1_S3_xxxEbxxx, symObjAddr: 0x72D8, symBinAddr: 0x1E6F0, symSize: 0x718 }
  - { offset: 0x103801, size: 0x8, addend: 0x0, symName: __ZN13llama_context9opt_epochEP16ggml_opt_datasetP15ggml_opt_resultS3_xPFvbP16ggml_opt_contextS1_S3_xxxES7_, symObjAddr: 0x79F0, symBinAddr: 0x1EE08, symSize: 0x2D4 }
  - { offset: 0x104352, size: 0x8, addend: 0x0, symName: _llama_context_default_params, symObjAddr: 0x7CC4, symBinAddr: 0x1F0DC, symSize: 0x34 }
  - { offset: 0x1043B0, size: 0x8, addend: 0x0, symName: _llama_init_from_model, symObjAddr: 0x7CF8, symBinAddr: 0x1F110, symSize: 0x1E4 }
  - { offset: 0x1044BC, size: 0x8, addend: 0x0, symName: _llama_new_context_with_model, symObjAddr: 0x7EDC, symBinAddr: 0x1F2F4, symSize: 0x48 }
  - { offset: 0x104530, size: 0x8, addend: 0x0, symName: _llama_free, symObjAddr: 0x7F24, symBinAddr: 0x1F33C, symSize: 0x1C }
  - { offset: 0x104581, size: 0x8, addend: 0x0, symName: _llama_n_ctx, symObjAddr: 0x7F40, symBinAddr: 0x1F358, symSize: 0x8 }
  - { offset: 0x1045AF, size: 0x8, addend: 0x0, symName: _llama_n_ctx, symObjAddr: 0x7F40, symBinAddr: 0x1F358, symSize: 0x8 }
  - { offset: 0x1045CA, size: 0x8, addend: 0x0, symName: _llama_n_batch, symObjAddr: 0x7F48, symBinAddr: 0x1F360, symSize: 0x8 }
  - { offset: 0x1045F8, size: 0x8, addend: 0x0, symName: _llama_n_batch, symObjAddr: 0x7F48, symBinAddr: 0x1F360, symSize: 0x8 }
  - { offset: 0x10462C, size: 0x8, addend: 0x0, symName: _llama_n_ubatch, symObjAddr: 0x7F50, symBinAddr: 0x1F368, symSize: 0x8 }
  - { offset: 0x10465A, size: 0x8, addend: 0x0, symName: _llama_n_ubatch, symObjAddr: 0x7F50, symBinAddr: 0x1F368, symSize: 0x8 }
  - { offset: 0x104675, size: 0x8, addend: 0x0, symName: _llama_n_seq_max, symObjAddr: 0x7F58, symBinAddr: 0x1F370, symSize: 0x8 }
  - { offset: 0x1046A3, size: 0x8, addend: 0x0, symName: _llama_n_seq_max, symObjAddr: 0x7F58, symBinAddr: 0x1F370, symSize: 0x8 }
  - { offset: 0x1046D7, size: 0x8, addend: 0x0, symName: _llama_get_model, symObjAddr: 0x7F60, symBinAddr: 0x1F378, symSize: 0x8 }
  - { offset: 0x104705, size: 0x8, addend: 0x0, symName: _llama_get_model, symObjAddr: 0x7F60, symBinAddr: 0x1F378, symSize: 0x8 }
  - { offset: 0x104739, size: 0x8, addend: 0x0, symName: _llama_pooling_type, symObjAddr: 0x7F68, symBinAddr: 0x1F380, symSize: 0x8 }
  - { offset: 0x104767, size: 0x8, addend: 0x0, symName: _llama_pooling_type, symObjAddr: 0x7F68, symBinAddr: 0x1F380, symSize: 0x8 }
  - { offset: 0x1047B3, size: 0x8, addend: 0x0, symName: _llama_attach_threadpool, symObjAddr: 0x7F70, symBinAddr: 0x1F388, symSize: 0x5C }
  - { offset: 0x104852, size: 0x8, addend: 0x0, symName: _llama_detach_threadpool, symObjAddr: 0x7FCC, symBinAddr: 0x1F3E4, symSize: 0x44 }
  - { offset: 0x1048DB, size: 0x8, addend: 0x0, symName: _llama_set_n_threads, symObjAddr: 0x8010, symBinAddr: 0x1F428, symSize: 0x58 }
  - { offset: 0x10497A, size: 0x8, addend: 0x0, symName: _llama_n_threads, symObjAddr: 0x8068, symBinAddr: 0x1F480, symSize: 0x8 }
  - { offset: 0x1049A8, size: 0x8, addend: 0x0, symName: _llama_n_threads, symObjAddr: 0x8068, symBinAddr: 0x1F480, symSize: 0x8 }
  - { offset: 0x1049DC, size: 0x8, addend: 0x0, symName: _llama_n_threads_batch, symObjAddr: 0x8070, symBinAddr: 0x1F488, symSize: 0x8 }
  - { offset: 0x104A0A, size: 0x8, addend: 0x0, symName: _llama_n_threads_batch, symObjAddr: 0x8070, symBinAddr: 0x1F488, symSize: 0x8 }
  - { offset: 0x104A4A, size: 0x8, addend: 0x0, symName: _llama_set_embeddings, symObjAddr: 0x8078, symBinAddr: 0x1F490, symSize: 0x48 }
  - { offset: 0x104AD7, size: 0x8, addend: 0x0, symName: _llama_set_causal_attn, symObjAddr: 0x80C0, symBinAddr: 0x1F4D8, symSize: 0x48 }
  - { offset: 0x104B64, size: 0x8, addend: 0x0, symName: _llama_set_warmup, symObjAddr: 0x8108, symBinAddr: 0x1F520, symSize: 0x48 }
  - { offset: 0x104BCC, size: 0x8, addend: 0x0, symName: _llama_synchronize, symObjAddr: 0x8150, symBinAddr: 0x1F568, symSize: 0x4 }
  - { offset: 0x104BF5, size: 0x8, addend: 0x0, symName: _llama_synchronize, symObjAddr: 0x8150, symBinAddr: 0x1F568, symSize: 0x4 }
  - { offset: 0x104C21, size: 0x8, addend: 0x0, symName: _llama_get_logits, symObjAddr: 0x8154, symBinAddr: 0x1F56C, symSize: 0x2C }
  - { offset: 0x104C93, size: 0x8, addend: 0x0, symName: _llama_get_logits_ith, symObjAddr: 0x8180, symBinAddr: 0x1F598, symSize: 0x2C }
  - { offset: 0x104D0B, size: 0x8, addend: 0x0, symName: _llama_get_embeddings, symObjAddr: 0x81AC, symBinAddr: 0x1F5C4, symSize: 0x2C }
  - { offset: 0x104D7D, size: 0x8, addend: 0x0, symName: _llama_get_embeddings_ith, symObjAddr: 0x81D8, symBinAddr: 0x1F5F0, symSize: 0x2C }
  - { offset: 0x104E0D, size: 0x8, addend: 0x0, symName: _llama_get_embeddings_seq, symObjAddr: 0x8204, symBinAddr: 0x1F61C, symSize: 0x74 }
  - { offset: 0x104FE3, size: 0x8, addend: 0x0, symName: _llama_set_adapter_lora, symObjAddr: 0x8278, symBinAddr: 0x1F690, symSize: 0x84 }
  - { offset: 0x1050DF, size: 0x8, addend: 0x0, symName: _llama_rm_adapter_lora, symObjAddr: 0x82FC, symBinAddr: 0x1F714, symSize: 0x80 }
  - { offset: 0x105340, size: 0x8, addend: 0x0, symName: _llama_clear_adapter_lora, symObjAddr: 0x837C, symBinAddr: 0x1F794, symSize: 0x7C }
  - { offset: 0x1055A6, size: 0x8, addend: 0x0, symName: _llama_apply_adapter_cvec, symObjAddr: 0x83F8, symBinAddr: 0x1F810, symSize: 0x8C }
  - { offset: 0x1056A6, size: 0x8, addend: 0x0, symName: _llama_get_memory, symObjAddr: 0x8484, symBinAddr: 0x1F89C, symSize: 0x8 }
  - { offset: 0x1056D4, size: 0x8, addend: 0x0, symName: _llama_get_memory, symObjAddr: 0x8484, symBinAddr: 0x1F89C, symSize: 0x8 }
  - { offset: 0x1056F0, size: 0x8, addend: 0x0, symName: _llama_get_memory, symObjAddr: 0x8484, symBinAddr: 0x1F89C, symSize: 0x8 }
  - { offset: 0x10570F, size: 0x8, addend: 0x0, symName: _llama_memory_clear, symObjAddr: 0x848C, symBinAddr: 0x1F8A4, symSize: 0x14 }
  - { offset: 0x105754, size: 0x8, addend: 0x0, symName: _llama_memory_seq_rm, symObjAddr: 0x84A0, symBinAddr: 0x1F8B8, symSize: 0x18 }
  - { offset: 0x1057B6, size: 0x8, addend: 0x0, symName: _llama_memory_seq_cp, symObjAddr: 0x84B8, symBinAddr: 0x1F8D0, symSize: 0x14 }
  - { offset: 0x105820, size: 0x8, addend: 0x0, symName: _llama_memory_seq_keep, symObjAddr: 0x84CC, symBinAddr: 0x1F8E4, symSize: 0x14 }
  - { offset: 0x105860, size: 0x8, addend: 0x0, symName: _llama_memory_seq_add, symObjAddr: 0x84E0, symBinAddr: 0x1F8F8, symSize: 0x14 }
  - { offset: 0x1058CA, size: 0x8, addend: 0x0, symName: _llama_memory_seq_div, symObjAddr: 0x84F4, symBinAddr: 0x1F90C, symSize: 0x14 }
  - { offset: 0x105934, size: 0x8, addend: 0x0, symName: _llama_memory_seq_pos_min, symObjAddr: 0x8508, symBinAddr: 0x1F920, symSize: 0x18 }
  - { offset: 0x10597A, size: 0x8, addend: 0x0, symName: _llama_memory_seq_pos_max, symObjAddr: 0x8520, symBinAddr: 0x1F938, symSize: 0x18 }
  - { offset: 0x1059C0, size: 0x8, addend: 0x0, symName: _llama_memory_can_shift, symObjAddr: 0x8538, symBinAddr: 0x1F950, symSize: 0x14 }
  - { offset: 0x105A11, size: 0x8, addend: 0x0, symName: _llama_get_state_size, symObjAddr: 0x854C, symBinAddr: 0x1F964, symSize: 0x4 }
  - { offset: 0x105A3D, size: 0x8, addend: 0x0, symName: _llama_get_state_size, symObjAddr: 0x854C, symBinAddr: 0x1F964, symSize: 0x4 }
  - { offset: 0x105A5B, size: 0x8, addend: 0x0, symName: _llama_get_state_size, symObjAddr: 0x854C, symBinAddr: 0x1F964, symSize: 0x4 }
  - { offset: 0x105A6E, size: 0x8, addend: 0x0, symName: _llama_state_get_size, symObjAddr: 0x8550, symBinAddr: 0x1F968, symSize: 0x4 }
  - { offset: 0x105A8D, size: 0x8, addend: 0x0, symName: _llama_state_get_size, symObjAddr: 0x8550, symBinAddr: 0x1F968, symSize: 0x4 }
  - { offset: 0x105AD3, size: 0x8, addend: 0x0, symName: _llama_copy_state_data, symObjAddr: 0x8554, symBinAddr: 0x1F96C, symSize: 0x30 }
  - { offset: 0x105B6A, size: 0x8, addend: 0x0, symName: _llama_state_get_data, symObjAddr: 0x8584, symBinAddr: 0x1F99C, symSize: 0x3C }
  - { offset: 0x105BF0, size: 0x8, addend: 0x0, symName: _llama_set_state_data, symObjAddr: 0x85C0, symBinAddr: 0x1F9D8, symSize: 0x30 }
  - { offset: 0x105C87, size: 0x8, addend: 0x0, symName: _llama_state_set_data, symObjAddr: 0x85F0, symBinAddr: 0x1FA08, symSize: 0x3C }
  - { offset: 0x105CDA, size: 0x8, addend: 0x0, symName: _llama_load_session_file, symObjAddr: 0x862C, symBinAddr: 0x1FA44, symSize: 0x4 }
  - { offset: 0x105D3F, size: 0x8, addend: 0x0, symName: _llama_load_session_file, symObjAddr: 0x862C, symBinAddr: 0x1FA44, symSize: 0x4 }
  - { offset: 0x105D6E, size: 0x8, addend: 0x0, symName: _llama_state_load_file, symObjAddr: 0x8630, symBinAddr: 0x1FA48, symSize: 0xD0 }
  - { offset: 0x105E4A, size: 0x8, addend: 0x0, symName: _llama_save_session_file, symObjAddr: 0x8700, symBinAddr: 0x1FB18, symSize: 0x4 }
  - { offset: 0x105EA1, size: 0x8, addend: 0x0, symName: _llama_save_session_file, symObjAddr: 0x8700, symBinAddr: 0x1FB18, symSize: 0x4 }
  - { offset: 0x105EC9, size: 0x8, addend: 0x0, symName: _llama_state_save_file, symObjAddr: 0x8704, symBinAddr: 0x1FB1C, symSize: 0xC0 }
  - { offset: 0x105FC2, size: 0x8, addend: 0x0, symName: _llama_state_seq_get_size, symObjAddr: 0x87C4, symBinAddr: 0x1FBDC, symSize: 0x8 }
  - { offset: 0x105FFC, size: 0x8, addend: 0x0, symName: _llama_state_seq_get_size, symObjAddr: 0x87C4, symBinAddr: 0x1FBDC, symSize: 0x8 }
  - { offset: 0x106047, size: 0x8, addend: 0x0, symName: _llama_state_seq_get_size_ext, symObjAddr: 0x87CC, symBinAddr: 0x1FBE4, symSize: 0x4 }
  - { offset: 0x106074, size: 0x8, addend: 0x0, symName: _llama_state_seq_get_size_ext, symObjAddr: 0x87CC, symBinAddr: 0x1FBE4, symSize: 0x4 }
  - { offset: 0x1060E0, size: 0x8, addend: 0x0, symName: _llama_state_seq_get_data, symObjAddr: 0x87D0, symBinAddr: 0x1FBE8, symSize: 0x48 }
  - { offset: 0x1061A6, size: 0x8, addend: 0x0, symName: _llama_state_seq_get_data_ext, symObjAddr: 0x8818, symBinAddr: 0x1FC30, symSize: 0x54 }
  - { offset: 0x106256, size: 0x8, addend: 0x0, symName: _llama_state_seq_set_data, symObjAddr: 0x886C, symBinAddr: 0x1FC84, symSize: 0x48 }
  - { offset: 0x10631C, size: 0x8, addend: 0x0, symName: _llama_state_seq_set_data_ext, symObjAddr: 0x88B4, symBinAddr: 0x1FCCC, symSize: 0x54 }
  - { offset: 0x106381, size: 0x8, addend: 0x0, symName: _llama_state_seq_save_file, symObjAddr: 0x8908, symBinAddr: 0x1FD20, symSize: 0xD0 }
  - { offset: 0x10645D, size: 0x8, addend: 0x0, symName: _llama_state_seq_load_file, symObjAddr: 0x89D8, symBinAddr: 0x1FDF0, symSize: 0xD8 }
  - { offset: 0x10654F, size: 0x8, addend: 0x0, symName: _llama_encode, symObjAddr: 0x8AB0, symBinAddr: 0x1FEC8, symSize: 0x4C }
  - { offset: 0x1065CA, size: 0x8, addend: 0x0, symName: _llama_decode, symObjAddr: 0x8AFC, symBinAddr: 0x1FF14, symSize: 0x50 }
  - { offset: 0x10666A, size: 0x8, addend: 0x0, symName: _llama_perf_context, symObjAddr: 0x8B4C, symBinAddr: 0x1FF64, symSize: 0x60 }
  - { offset: 0x10678F, size: 0x8, addend: 0x0, symName: _llama_perf_context_print, symObjAddr: 0x8BAC, symBinAddr: 0x1FFC4, symSize: 0x1A8 }
  - { offset: 0x106965, size: 0x8, addend: 0x0, symName: _llama_perf_context_reset, symObjAddr: 0x8D54, symBinAddr: 0x2016C, symSize: 0x38 }
  - { offset: 0x1069B8, size: 0x8, addend: 0x0, symName: _llama_opt_param_filter_all, symObjAddr: 0x8D8C, symBinAddr: 0x201A4, symSize: 0x8 }
  - { offset: 0x1069F2, size: 0x8, addend: 0x0, symName: _llama_opt_init, symObjAddr: 0x8D94, symBinAddr: 0x201AC, symSize: 0x30 }
  - { offset: 0x106A5C, size: 0x8, addend: 0x0, symName: _llama_opt_epoch, symObjAddr: 0x8DC4, symBinAddr: 0x201DC, symSize: 0x4 }
  - { offset: 0x106AD9, size: 0x8, addend: 0x0, symName: _llama_opt_epoch, symObjAddr: 0x8DC4, symBinAddr: 0x201DC, symSize: 0x4 }
  - { offset: 0x107790, size: 0x8, addend: 0x0, symName: __ZN20llama_io_write_dummyD0Ev, symObjAddr: 0x9048, symBinAddr: 0x2041C, symSize: 0x4 }
  - { offset: 0x1077BC, size: 0x8, addend: 0x0, symName: __ZN20llama_io_write_dummy5writeEPKvm, symObjAddr: 0x904C, symBinAddr: 0x20420, symSize: 0x10 }
  - { offset: 0x1077FA, size: 0x8, addend: 0x0, symName: __ZN20llama_io_write_dummy12write_tensorEPK11ggml_tensormm, symObjAddr: 0x905C, symBinAddr: 0x20430, symSize: 0x10 }
  - { offset: 0x107843, size: 0x8, addend: 0x0, symName: __ZN20llama_io_write_dummy7n_bytesEv, symObjAddr: 0x906C, symBinAddr: 0x20440, symSize: 0x8 }
  - { offset: 0x10786A, size: 0x8, addend: 0x0, symName: __ZN21llama_io_write_bufferD0Ev, symObjAddr: 0x9074, symBinAddr: 0x20448, symSize: 0x4 }
  - { offset: 0x107896, size: 0x8, addend: 0x0, symName: __ZN21llama_io_write_buffer5writeEPKvm, symObjAddr: 0x9078, symBinAddr: 0x2044C, symSize: 0x94 }
  - { offset: 0x1078DD, size: 0x8, addend: 0x0, symName: __ZN21llama_io_write_buffer12write_tensorEPK11ggml_tensormm, symObjAddr: 0x910C, symBinAddr: 0x204E0, symSize: 0x9C }
  - { offset: 0x10795E, size: 0x8, addend: 0x0, symName: __ZN21llama_io_write_buffer7n_bytesEv, symObjAddr: 0x91A8, symBinAddr: 0x2057C, symSize: 0x8 }
  - { offset: 0x107985, size: 0x8, addend: 0x0, symName: __ZN20llama_io_read_bufferD0Ev, symObjAddr: 0x91B0, symBinAddr: 0x20584, symSize: 0x4 }
  - { offset: 0x1079B1, size: 0x8, addend: 0x0, symName: __ZN20llama_io_read_buffer4readEm, symObjAddr: 0x91B4, symBinAddr: 0x20588, symSize: 0x84 }
  - { offset: 0x1079F8, size: 0x8, addend: 0x0, symName: __ZN20llama_io_read_buffer7read_toEPvm, symObjAddr: 0x9238, symBinAddr: 0x2060C, symSize: 0x3C }
  - { offset: 0x107A5A, size: 0x8, addend: 0x0, symName: __ZN20llama_io_read_buffer7n_bytesEv, symObjAddr: 0x9274, symBinAddr: 0x20648, symSize: 0x8 }
  - { offset: 0x107A81, size: 0x8, addend: 0x0, symName: __ZN18llama_io_read_fileD0Ev, symObjAddr: 0x927C, symBinAddr: 0x20650, symSize: 0x44 }
  - { offset: 0x107AB1, size: 0x8, addend: 0x0, symName: __ZN18llama_io_read_fileD0Ev, symObjAddr: 0x927C, symBinAddr: 0x20650, symSize: 0x44 }
  - { offset: 0x107ACF, size: 0x8, addend: 0x0, symName: __ZN18llama_io_read_fileD0Ev, symObjAddr: 0x927C, symBinAddr: 0x20650, symSize: 0x44 }
  - { offset: 0x108044, size: 0x8, addend: 0x0, symName: __ZN18llama_io_read_file4readEm, symObjAddr: 0x92C0, symBinAddr: 0x20694, symSize: 0x108 }
  - { offset: 0x10858D, size: 0x8, addend: 0x0, symName: __ZN18llama_io_read_file7read_toEPvm, symObjAddr: 0x93C8, symBinAddr: 0x2079C, symSize: 0x34 }
  - { offset: 0x1085AD, size: 0x8, addend: 0x0, symName: __ZN18llama_io_read_file7read_toEPvm, symObjAddr: 0x93C8, symBinAddr: 0x2079C, symSize: 0x34 }
  - { offset: 0x1085F4, size: 0x8, addend: 0x0, symName: __ZN18llama_io_read_file7n_bytesEv, symObjAddr: 0x93FC, symBinAddr: 0x207D0, symSize: 0x8 }
  - { offset: 0x10867F, size: 0x8, addend: 0x0, symName: __ZN19llama_io_write_fileD0Ev, symObjAddr: 0x94B4, symBinAddr: 0x207D8, symSize: 0x44 }
  - { offset: 0x1086AF, size: 0x8, addend: 0x0, symName: __ZN19llama_io_write_fileD0Ev, symObjAddr: 0x94B4, symBinAddr: 0x207D8, symSize: 0x44 }
  - { offset: 0x1086CD, size: 0x8, addend: 0x0, symName: __ZN19llama_io_write_fileD0Ev, symObjAddr: 0x94B4, symBinAddr: 0x207D8, symSize: 0x44 }
  - { offset: 0x108815, size: 0x8, addend: 0x0, symName: __ZN19llama_io_write_file5writeEPKvm, symObjAddr: 0x94F8, symBinAddr: 0x2081C, symSize: 0x34 }
  - { offset: 0x10885C, size: 0x8, addend: 0x0, symName: __ZN19llama_io_write_file12write_tensorEPK11ggml_tensormm, symObjAddr: 0x952C, symBinAddr: 0x20850, symSize: 0x130 }
  - { offset: 0x108DF3, size: 0x8, addend: 0x0, symName: __ZNSt3__16__treeINS_12__value_typeIiNS_6vectorIfNS_9allocatorIfEEEEEENS_19__map_value_compareIiS6_NS_4lessIiEELb1EEENS3_IS6_EEE7destroyEPNS_11__tree_nodeIS6_PvEE, symObjAddr: 0x965C, symBinAddr: 0x20980, symSize: 0x50 }
  - { offset: 0x1094A9, size: 0x8, addend: 0x0, symName: __ZNSt3__112__hash_tableINS_17__hash_value_typeIP18llama_adapter_lorafEENS_22__unordered_map_hasherIS3_S4_NS_4hashIS3_EENS_8equal_toIS3_EELb1EEENS_21__unordered_map_equalIS3_S4_S9_S7_Lb1EEENS_9allocatorIS4_EEE11__do_rehashILb1EEEvm, symObjAddr: 0x9A60, symBinAddr: 0x20D70, symSize: 0x180 }
  - { offset: 0x109836, size: 0x8, addend: 0x0, symName: __ZNSt3__112__hash_tableINS_17__hash_value_typeIP18llama_adapter_lorafEENS_22__unordered_map_hasherIS3_S4_NS_4hashIS3_EENS_8equal_toIS3_EELb1EEENS_21__unordered_map_equalIS3_S4_S9_S7_Lb1EEENS_9allocatorIS4_EEE4findIS3_EENS_15__hash_iteratorIPNS_11__hash_nodeIS4_PvEEEERKT_, symObjAddr: 0x9BE0, symBinAddr: 0x20EF0, symSize: 0x110 }
  - { offset: 0x10A134, size: 0x8, addend: 0x0, symName: __ZNSt3__16vectorIN13llama_context9swap_infoENS_9allocatorIS2_EEE20__throw_length_errorB8ne200100Ev, symObjAddr: 0xA340, symBinAddr: 0x21138, symSize: 0x14 }
  - { offset: 0x10A208, size: 0x8, addend: 0x0, symName: '__ZNSt3__110__function6__funcIZNK13llama_context12graph_get_cbEvE3$_0NS_9allocatorIS3_EEFvRK12llama_ubatchP11ggml_tensorPKciEED1Ev', symObjAddr: 0xA488, symBinAddr: 0x2114C, symSize: 0x4 }
  - { offset: 0x10A213, size: 0x8, addend: 0x0, symName: '__ZNSt3__110__function6__funcIZNK13llama_context12graph_get_cbEvE3$_0NS_9allocatorIS3_EEFvRK12llama_ubatchP11ggml_tensorPKciEED1Ev', symObjAddr: 0xA488, symBinAddr: 0x2114C, symSize: 0x4 }
  - { offset: 0x10A23F, size: 0x8, addend: 0x0, symName: '__ZNSt3__110__function6__funcIZNK13llama_context12graph_get_cbEvE3$_0NS_9allocatorIS3_EEFvRK12llama_ubatchP11ggml_tensorPKciEED0Ev', symObjAddr: 0xA48C, symBinAddr: 0x21150, symSize: 0x4 }
  - { offset: 0x10A2F5, size: 0x8, addend: 0x0, symName: '__ZNKSt3__110__function6__funcIZNK13llama_context12graph_get_cbEvE3$_0NS_9allocatorIS3_EEFvRK12llama_ubatchP11ggml_tensorPKciEE7__cloneEv', symObjAddr: 0xA490, symBinAddr: 0x21154, symSize: 0x34 }
  - { offset: 0x10A447, size: 0x8, addend: 0x0, symName: '__ZNKSt3__110__function6__funcIZNK13llama_context12graph_get_cbEvE3$_0NS_9allocatorIS3_EEFvRK12llama_ubatchP11ggml_tensorPKciEE7__cloneEPNS0_6__baseISD_EE', symObjAddr: 0xA4C4, symBinAddr: 0x21188, symSize: 0x14 }
  - { offset: 0x10A4B4, size: 0x8, addend: 0x0, symName: '__ZNSt3__110__function6__funcIZNK13llama_context12graph_get_cbEvE3$_0NS_9allocatorIS3_EEFvRK12llama_ubatchP11ggml_tensorPKciEE7destroyEv', symObjAddr: 0xA4D8, symBinAddr: 0x2119C, symSize: 0x4 }
  - { offset: 0x10A508, size: 0x8, addend: 0x0, symName: '__ZNSt3__110__function6__funcIZNK13llama_context12graph_get_cbEvE3$_0NS_9allocatorIS3_EEFvRK12llama_ubatchP11ggml_tensorPKciEE18destroy_deallocateEv', symObjAddr: 0xA4DC, symBinAddr: 0x211A0, symSize: 0x4 }
  - { offset: 0x10A53D, size: 0x8, addend: 0x0, symName: '__ZNSt3__110__function6__funcIZNK13llama_context12graph_get_cbEvE3$_0NS_9allocatorIS3_EEFvRK12llama_ubatchP11ggml_tensorPKciEE18destroy_deallocateEv', symObjAddr: 0xA4DC, symBinAddr: 0x211A0, symSize: 0x4 }
  - { offset: 0x10A560, size: 0x8, addend: 0x0, symName: '__ZNSt3__110__function6__funcIZNK13llama_context12graph_get_cbEvE3$_0NS_9allocatorIS3_EEFvRK12llama_ubatchP11ggml_tensorPKciEE18destroy_deallocateEv', symObjAddr: 0xA4DC, symBinAddr: 0x211A0, symSize: 0x4 }
  - { offset: 0x10A593, size: 0x8, addend: 0x0, symName: '__ZNSt3__110__function6__funcIZNK13llama_context12graph_get_cbEvE3$_0NS_9allocatorIS3_EEFvRK12llama_ubatchP11ggml_tensorPKciEE18destroy_deallocateEv', symObjAddr: 0xA4DC, symBinAddr: 0x211A0, symSize: 0x4 }
  - { offset: 0x10A72D, size: 0x8, addend: 0x0, symName: '__ZNSt3__110__function6__funcIZNK13llama_context12graph_get_cbEvE3$_0NS_9allocatorIS3_EEFvRK12llama_ubatchP11ggml_tensorPKciEEclES8_OSA_OSC_Oi', symObjAddr: 0xA4E0, symBinAddr: 0x211A4, symSize: 0x150 }
  - { offset: 0x10AA66, size: 0x8, addend: 0x0, symName: '__ZNKSt3__110__function6__funcIZNK13llama_context12graph_get_cbEvE3$_0NS_9allocatorIS3_EEFvRK12llama_ubatchP11ggml_tensorPKciEE6targetERKSt9type_info', symObjAddr: 0xA630, symBinAddr: 0x212F4, symSize: 0x64 }
  - { offset: 0x10AB1A, size: 0x8, addend: 0x0, symName: '__ZNKSt3__110__function6__funcIZNK13llama_context12graph_get_cbEvE3$_0NS_9allocatorIS3_EEFvRK12llama_ubatchP11ggml_tensorPKciEE11target_typeEv', symObjAddr: 0xA694, symBinAddr: 0x21358, symSize: 0xC }
  - { offset: 0x10CAFE, size: 0x8, addend: 0x0, symName: _llama_max_parallel_sequences, symObjAddr: 0x0, symBinAddr: 0x21364, symSize: 0x8 }
  - { offset: 0x10CB0C, size: 0x8, addend: 0x0, symName: _llama_max_parallel_sequences, symObjAddr: 0x0, symBinAddr: 0x21364, symSize: 0x8 }
  - { offset: 0x10CC62, size: 0x8, addend: 0x0, symName: __ZN20llama_grammar_parser13get_symbol_idEPKcm, symObjAddr: 0x0, symBinAddr: 0x2136C, symSize: 0x104 }
  - { offset: 0x1303D8, size: 0x8, addend: 0x0, symName: __ZNSt3__135__uninitialized_allocator_copy_implB8ne200100INS_9allocatorINS_6vectorI21llama_grammar_elementNS1_IS3_EEEEEEPS5_S7_S7_EET2_RT_T0_T1_S8_, symObjAddr: 0x125D8, symBinAddr: 0x33520, symSize: 0xF8 }
  - { offset: 0x130913, size: 0x8, addend: 0x0, symName: __ZNSt3__135__uninitialized_allocator_copy_implB8ne200100INS_9allocatorINS_6vectorIPK21llama_grammar_elementNS1_IS5_EEEEEEPS7_S9_S9_EET2_RT_T0_T1_SA_, symObjAddr: 0x127C0, symBinAddr: 0x33708, symSize: 0xF8 }
  - { offset: 0x132446, size: 0x8, addend: 0x0, symName: __ZNSt3__134__uninitialized_allocator_relocateB8ne200100INS_9allocatorI29llama_grammar_trigger_patternEEPS2_EEvRT_T0_S7_S7_, symObjAddr: 0x99E4, symBinAddr: 0x2A9C8, symSize: 0xFC }
  - { offset: 0x1324A1, size: 0x8, addend: 0x0, symName: __ZNSt3__134__uninitialized_allocator_relocateB8ne200100INS_9allocatorI29llama_grammar_trigger_patternEEPS2_EEvRT_T0_S7_S7_, symObjAddr: 0x99E4, symBinAddr: 0x2A9C8, symSize: 0xFC }
  - { offset: 0x13293D, size: 0x8, addend: 0x0, symName: __ZNSt3__119__throw_regex_errorB8ne200100ILNS_15regex_constants10error_typeE17EEEvv, symObjAddr: 0x9E6C, symBinAddr: 0x2AE50, symSize: 0x4C }
  - { offset: 0x13304D, size: 0x8, addend: 0x0, symName: __ZNSt3__119__throw_regex_errorB8ne200100ILNS_15regex_constants10error_typeE14EEEvv, symObjAddr: 0xA724, symBinAddr: 0x2B708, symSize: 0x4C }
  - { offset: 0x133330, size: 0x8, addend: 0x0, symName: __ZNSt3__119__throw_regex_errorB8ne200100ILNS_15regex_constants10error_typeE15EEEvv, symObjAddr: 0x119B8, symBinAddr: 0x32988, symSize: 0x4C }
  - { offset: 0x133762, size: 0x8, addend: 0x0, symName: __ZNSt3__119__throw_regex_errorB8ne200100ILNS_15regex_constants10error_typeE6EEEvv, symObjAddr: 0xB370, symBinAddr: 0x2C354, symSize: 0x4C }
  - { offset: 0x13390E, size: 0x8, addend: 0x0, symName: __ZNSt3__119__throw_regex_errorB8ne200100ILNS_15regex_constants10error_typeE11EEEvv, symObjAddr: 0xCC10, symBinAddr: 0x2DBF4, symSize: 0x4C }
  - { offset: 0x133952, size: 0x8, addend: 0x0, symName: __ZNSt3__119__throw_regex_errorB8ne200100ILNS_15regex_constants10error_typeE8EEEvv, symObjAddr: 0x11378, symBinAddr: 0x32348, symSize: 0x4C }
  - { offset: 0x133978, size: 0x8, addend: 0x0, symName: __ZNSt3__119__throw_regex_errorB8ne200100ILNS_15regex_constants10error_typeE7EEEvv, symObjAddr: 0x113C4, symBinAddr: 0x32394, symSize: 0x4C }
  - { offset: 0x133BC8, size: 0x8, addend: 0x0, symName: __ZNSt3__119__throw_regex_errorB8ne200100ILNS_15regex_constants10error_typeE12EEEvv, symObjAddr: 0xC0E0, symBinAddr: 0x2D0C4, symSize: 0x4C }
  - { offset: 0x133BEE, size: 0x8, addend: 0x0, symName: __ZNSt3__119__throw_regex_errorB8ne200100ILNS_15regex_constants10error_typeE16EEEvv, symObjAddr: 0xC12C, symBinAddr: 0x2D110, symSize: 0x4C }
  - { offset: 0x134592, size: 0x8, addend: 0x0, symName: __ZNSt3__119__throw_regex_errorB8ne200100ILNS_15regex_constants10error_typeE4EEEvv, symObjAddr: 0xD4E0, symBinAddr: 0x2E4C4, symSize: 0x4C }
  - { offset: 0x1345B8, size: 0x8, addend: 0x0, symName: __ZNSt3__119__throw_regex_errorB8ne200100ILNS_15regex_constants10error_typeE3EEEvv, symObjAddr: 0xCD68, symBinAddr: 0x2DD4C, symSize: 0x4C }
  - { offset: 0x1345DE, size: 0x8, addend: 0x0, symName: __ZNSt3__119__throw_regex_errorB8ne200100ILNS_15regex_constants10error_typeE5EEEvv, symObjAddr: 0xF0EC, symBinAddr: 0x300BC, symSize: 0x4C }
  - { offset: 0x1352A7, size: 0x8, addend: 0x0, symName: __ZNSt3__119__throw_regex_errorB8ne200100ILNS_15regex_constants10error_typeE1EEEvv, symObjAddr: 0x1047C, symBinAddr: 0x3144C, symSize: 0x4C }
  - { offset: 0x1352CD, size: 0x8, addend: 0x0, symName: __ZNSt3__119__throw_regex_errorB8ne200100ILNS_15regex_constants10error_typeE2EEEvv, symObjAddr: 0x10A6C, symBinAddr: 0x31A3C, symSize: 0x4C }
  - { offset: 0x13532F, size: 0x8, addend: 0x0, symName: __ZNSt3__119__throw_regex_errorB8ne200100ILNS_15regex_constants10error_typeE9EEEvv, symObjAddr: 0x11040, symBinAddr: 0x32010, symSize: 0x4C }
  - { offset: 0x137F6D, size: 0x8, addend: 0x0, symName: __ZL11decode_utf8RKNSt3__112basic_stringIcNS_11char_traitsIcEENS_9allocatorIcEEEE18llama_partial_utf8, symObjAddr: 0x76C8, symBinAddr: 0x28990, symSize: 0x498 }
  - { offset: 0x137F97, size: 0x8, addend: 0x0, symName: __ZZL11decode_utf8RKNSt3__112basic_stringIcNS_11char_traitsIcEENS_9allocatorIcEEEE18llama_partial_utf8E6lookup, symObjAddr: 0x16594, symBinAddr: 0x22BFE8, symSize: 0x0 }
  - { offset: 0x13B3F6, size: 0x8, addend: 0x0, symName: __ZN20llama_grammar_parser13get_symbol_idEPKcm, symObjAddr: 0x0, symBinAddr: 0x2136C, symSize: 0x104 }
  - { offset: 0x13B8FD, size: 0x8, addend: 0x0, symName: __ZNSt3__16__treeINS_12__value_typeINS_12basic_stringIcNS_11char_traitsIcEENS_9allocatorIcEEEEjEENS_19__map_value_compareIS7_S8_NS_4lessIS7_EELb1EEENS5_IS8_EEE25__emplace_unique_key_argsIS7_JS7_RjEEENS_4pairINS_15__tree_iteratorIS8_PNS_11__tree_nodeIS8_PvEElEEbEERKT_DpOT0_, symObjAddr: 0x8E78, symBinAddr: 0x2A01C, symSize: 0x180 }
  - { offset: 0x13BEB7, size: 0x8, addend: 0x0, symName: __ZNSt3__16__treeINS_12__value_typeINS_12basic_stringIcNS_11char_traitsIcEENS_9allocatorIcEEEEjEENS_19__map_value_compareIS7_S8_NS_4lessIS7_EELb1EEENS5_IS8_EEE25__emplace_unique_key_argsIS7_JS7_RjEEENS_4pairINS_15__tree_iteratorIS8_PNS_11__tree_nodeIS8_PvEElEEbEERKT_DpOT0_, symObjAddr: 0x8E78, symBinAddr: 0x2A01C, symSize: 0x180 }
  - { offset: 0x13C072, size: 0x8, addend: 0x0, symName: __ZN20llama_grammar_parser18generate_symbol_idERKNSt3__112basic_stringIcNS0_11char_traitsIcEENS0_9allocatorIcEEEE, symObjAddr: 0x104, symBinAddr: 0x21470, symSize: 0x200 }
  - { offset: 0x13CAEB, size: 0x8, addend: 0x0, symName: __ZNSt3__16__treeINS_12__value_typeINS_12basic_stringIcNS_11char_traitsIcEENS_9allocatorIcEEEEjEENS_19__map_value_compareIS7_S8_NS_4lessIS7_EELb1EEENS5_IS8_EEE25__emplace_unique_key_argsIS7_JRKNS_21piecewise_construct_tENS_5tupleIJOS7_EEENSJ_IJEEEEEENS_4pairINS_15__tree_iteratorIS8_PNS_11__tree_nodeIS8_PvEElEEbEERKT_DpOT0_, symObjAddr: 0x91A4, symBinAddr: 0x2A19C, symSize: 0x174 }
  - { offset: 0x13D32B, size: 0x8, addend: 0x0, symName: __ZN20llama_grammar_parser8add_ruleEjRKNSt3__16vectorI21llama_grammar_elementNS0_9allocatorIS2_EEEE, symObjAddr: 0x304, symBinAddr: 0x21670, symSize: 0xE4 }
  - { offset: 0x13D625, size: 0x8, addend: 0x0, symName: __ZNSt3__16vectorINS0_I21llama_grammar_elementNS_9allocatorIS1_EEEENS2_IS4_EEE8__appendEm, symObjAddr: 0x9318, symBinAddr: 0x2A310, symSize: 0x180 }
  - { offset: 0x13DA66, size: 0x8, addend: 0x0, symName: __ZNSt3__16vectorINS0_I21llama_grammar_elementNS_9allocatorIS1_EEEENS2_IS4_EEE20__throw_length_errorB8ne200100Ev, symObjAddr: 0x9498, symBinAddr: 0x2A490, symSize: 0x14 }
  - { offset: 0x13DA71, size: 0x8, addend: 0x0, symName: __ZNSt3__16vectorI21llama_grammar_elementNS_9allocatorIS1_EEE18__assign_with_sizeB8ne200100IPS1_S6_EEvT_T0_l, symObjAddr: 0x94AC, symBinAddr: 0x2A4A4, symSize: 0x148 }
  - { offset: 0x13E46F, size: 0x8, addend: 0x0, symName: __ZNSt3__16__treeINS_12__value_typeIjNS_12basic_stringIcNS_11char_traitsIcEENS_9allocatorIcEEEEEENS_19__map_value_compareIjS8_NS_4lessIjEELb1EEENS5_IS8_EEE7destroyEPNS_11__tree_nodeIS8_PvEE, symObjAddr: 0x95F4, symBinAddr: 0x2A5EC, symSize: 0x60 }
  - { offset: 0x13E823, size: 0x8, addend: 0x0, symName: __ZN20llama_grammar_parser16parse_alternatesEPKcRKNSt3__112basic_stringIcNS2_11char_traitsIcEENS2_9allocatorIcEEEEjb, symObjAddr: 0x3E8, symBinAddr: 0x21754, symSize: 0x34C }
  - { offset: 0x13F656, size: 0x8, addend: 0x0, symName: __ZN20llama_grammar_parser14parse_sequenceEPKcRKNSt3__112basic_stringIcNS2_11char_traitsIcEENS2_9allocatorIcEEEERNS2_6vectorI21llama_grammar_elementNS6_ISC_EEEEb, symObjAddr: 0x734, symBinAddr: 0x21AA0, symSize: 0x1668 }
  - { offset: 0x141F46, size: 0x8, addend: 0x0, symName: __ZNSt3__16vectorI21llama_grammar_elementNS_9allocatorIS1_EEE20__throw_length_errorB8ne200100Ev, symObjAddr: 0x8448, symBinAddr: 0x29710, symSize: 0x14 }
  - { offset: 0x141FA3, size: 0x8, addend: 0x0, symName: __ZL10parse_namePKc, symObjAddr: 0x2024, symBinAddr: 0x23390, symSize: 0x13C }
  - { offset: 0x142251, size: 0x8, addend: 0x0, symName: __ZL10parse_charPKc, symObjAddr: 0x1D9C, symBinAddr: 0x23108, symSize: 0x288 }
  - { offset: 0x142553, size: 0x8, addend: 0x0, symName: __ZL9parse_intPKc, symObjAddr: 0x2984, symBinAddr: 0x23C4C, symSize: 0x124 }
  - { offset: 0x14281A, size: 0x8, addend: 0x0, symName: '__ZZN20llama_grammar_parser14parse_sequenceEPKcRKNSt3__112basic_stringIcNS2_11char_traitsIcEENS2_9allocatorIcEEEERNS2_6vectorI21llama_grammar_elementNS6_ISC_EEEEbENK3$_0clEii', symObjAddr: 0x2204, symBinAddr: 0x234CC, symSize: 0x780 }
  - { offset: 0x14492A, size: 0x8, addend: 0x0, symName: '__ZZN20llama_grammar_parser14parse_sequenceEPKcRKNSt3__112basic_stringIcNS2_11char_traitsIcEENS2_9allocatorIcEEEERNS2_6vectorI21llama_grammar_elementNS6_ISC_EEEEbENK3$_0clEii', symObjAddr: 0x2204, symBinAddr: 0x234CC, symSize: 0x780 }
  - { offset: 0x1449B9, size: 0x8, addend: 0x0, symName: __ZL9parse_hexPKci, symObjAddr: 0x8208, symBinAddr: 0x294D0, symSize: 0x240 }
  - { offset: 0x1454DA, size: 0x8, addend: 0x0, symName: __ZNSt3__16vectorI21llama_grammar_elementNS_9allocatorIS1_EEE18__insert_with_sizeB8ne200100INS_11__wrap_iterIPS1_EES8_EES8_NS6_IPKS1_EET_T0_l, symObjAddr: 0x8618, symBinAddr: 0x29844, symSize: 0x38C }
  - { offset: 0x145FC3, size: 0x8, addend: 0x0, symName: __ZNSt3__16vectorI21llama_grammar_elementNS_9allocatorIS1_EEE8__appendEm, symObjAddr: 0x84F8, symBinAddr: 0x29724, symSize: 0x120 }
  - { offset: 0x14638A, size: 0x8, addend: 0x0, symName: __ZNSt3__16vectorI21llama_grammar_elementNS_9allocatorIS1_EEE18__insert_with_sizeB8ne200100INS_11__wrap_iterIPS1_EES8_EES8_NS6_IPKS1_EET_T0_l, symObjAddr: 0x8618, symBinAddr: 0x29844, symSize: 0x38C }
  - { offset: 0x146395, size: 0x8, addend: 0x0, symName: __ZN20llama_grammar_parser10parse_ruleEPKc, symObjAddr: 0x2AA8, symBinAddr: 0x23D70, symSize: 0x448 }
  - { offset: 0x146F12, size: 0x8, addend: 0x0, symName: __ZN20llama_grammar_parser5parseEPKc, symObjAddr: 0x2EF0, symBinAddr: 0x241B8, symSize: 0x350 }
  - { offset: 0x147D6B, size: 0x8, addend: 0x0, symName: __ZN20llama_grammar_parser5printEP7__sFILE, symObjAddr: 0x3240, symBinAddr: 0x24508, symSize: 0x99C }
  - { offset: 0x149745, size: 0x8, addend: 0x0, symName: __ZNSt3__16__treeINS_12__value_typeIjNS_12basic_stringIcNS_11char_traitsIcEENS_9allocatorIcEEEEEENS_19__map_value_compareIjS8_NS_4lessIjEELb1EEENS5_IS8_EEE7destroyEPNS_11__tree_nodeIS8_PvEE, symObjAddr: 0x95F4, symBinAddr: 0x2A5EC, symSize: 0x60 }
  - { offset: 0x149E16, size: 0x8, addend: 0x0, symName: __ZNK20llama_grammar_parser7c_rulesEv, symObjAddr: 0x3BDC, symBinAddr: 0x24EA4, symSize: 0x1B8 }
  - { offset: 0x14A56A, size: 0x8, addend: 0x0, symName: __ZNSt3__16vectorIPK21llama_grammar_elementNS_9allocatorIS3_EEE20__throw_length_errorB8ne200100Ev, symObjAddr: 0x8B88, symBinAddr: 0x29D40, symSize: 0x14 }
  - { offset: 0x14A582, size: 0x8, addend: 0x0, symName: __ZNSt3__114__split_bufferINS_6vectorIPK21llama_grammar_elementNS_9allocatorIS4_EEEERNS5_IS7_EEED1Ev, symObjAddr: 0x8B9C, symBinAddr: 0x29D54, symSize: 0x6C }
  - { offset: 0x14A58D, size: 0x8, addend: 0x0, symName: __Z23llama_grammar_get_rulesPK13llama_grammar, symObjAddr: 0x3D94, symBinAddr: 0x2505C, symSize: 0x8 }
  - { offset: 0x14A5BD, size: 0x8, addend: 0x0, symName: __Z24llama_grammar_get_stacksP13llama_grammar, symObjAddr: 0x3D9C, symBinAddr: 0x25064, symSize: 0x8 }
  - { offset: 0x14ACB8, size: 0x8, addend: 0x0, symName: __Z20llama_grammar_acceptP13llama_grammarj, symObjAddr: 0x3DA4, symBinAddr: 0x2506C, symSize: 0x45C }
  - { offset: 0x14BB2E, size: 0x8, addend: 0x0, symName: __ZL27llama_grammar_advance_stackRKNSt3__16vectorINS0_I21llama_grammar_elementNS_9allocatorIS1_EEEENS2_IS4_EEEERKNS0_IPKS1_NS2_ISA_EEEERNS0_ISC_NS2_ISC_EEEE, symObjAddr: 0x4200, symBinAddr: 0x254C8, symSize: 0x520 }
  - { offset: 0x14D53E, size: 0x8, addend: 0x0, symName: __ZNSt3__16vectorINS0_IPK21llama_grammar_elementNS_9allocatorIS3_EEEENS4_IS6_EEE20__throw_length_errorB8ne200100Ev, symObjAddr: 0x8C08, symBinAddr: 0x29DC0, symSize: 0x14 }
  - { offset: 0x14D556, size: 0x8, addend: 0x0, symName: __ZNSt3__110shared_ptrINS_13__empty_stateIcEEED1B8ne200100Ev, symObjAddr: 0x8C1C, symBinAddr: 0x29DD4, symSize: 0x5C }
  - { offset: 0x14D561, size: 0x8, addend: 0x0, symName: __ZNSt3__16vectorINS0_IPK21llama_grammar_elementNS_9allocatorIS3_EEEENS4_IS6_EEED1B8ne200100Ev, symObjAddr: 0x4720, symBinAddr: 0x259E8, symSize: 0x74 }
  - { offset: 0x14DB38, size: 0x8, addend: 0x0, symName: __ZNSt3__16vectorINS0_IPK21llama_grammar_elementNS_9allocatorIS3_EEEENS4_IS6_EEE24__emplace_back_slow_pathIJRKS6_EEEPS6_DpOT_, symObjAddr: 0x8A18, symBinAddr: 0x29BD0, symSize: 0x170 }
  - { offset: 0x14E86E, size: 0x8, addend: 0x0, symName: __Z41llama_grammar_reject_candidates_for_stackRKNSt3__16vectorINS0_I21llama_grammar_elementNS_9allocatorIS1_EEEENS2_IS4_EEEERKNS0_IPKS1_NS2_ISA_EEEERKNS0_I23llama_grammar_candidateNS2_ISF_EEEE, symObjAddr: 0x4794, symBinAddr: 0x25A5C, symSize: 0x9D0 }
  - { offset: 0x15051C, size: 0x8, addend: 0x0, symName: __ZNSt3__16vectorI23llama_grammar_candidateNS_9allocatorIS1_EEE9push_backB8ne200100ERKS1_, symObjAddr: 0x5164, symBinAddr: 0x2642C, symSize: 0x134 }
  - { offset: 0x1508F4, size: 0x8, addend: 0x0, symName: __ZNSt3__16vectorI23llama_grammar_candidateNS_9allocatorIS1_EEE9push_backB8ne200100EOS1_, symObjAddr: 0x5298, symBinAddr: 0x26560, symSize: 0x134 }
  - { offset: 0x1508FF, size: 0x8, addend: 0x0, symName: __ZL31llama_grammar_reject_candidatesRKNSt3__16vectorINS0_I21llama_grammar_elementNS_9allocatorIS1_EEEENS2_IS4_EEEERKNS0_INS0_IPKS1_NS2_ISA_EEEENS2_ISC_EEEERKNS0_I23llama_grammar_candidateNS2_ISH_EEEE, symObjAddr: 0x53CC, symBinAddr: 0x26694, symSize: 0x120 }
  - { offset: 0x150C82, size: 0x8, addend: 0x0, symName: __ZNSt3__16vectorI23llama_grammar_candidateNS_9allocatorIS1_EEE9push_backB8ne200100EOS1_, symObjAddr: 0x5298, symBinAddr: 0x26560, symSize: 0x134 }
  - { offset: 0x15104E, size: 0x8, addend: 0x0, symName: __ZL31llama_grammar_reject_candidatesRKNSt3__16vectorINS0_I21llama_grammar_elementNS_9allocatorIS1_EEEENS2_IS4_EEEERKNS0_INS0_IPKS1_NS2_ISA_EEEENS2_ISC_EEEERKNS0_I23llama_grammar_candidateNS2_ISH_EEEE, symObjAddr: 0x53CC, symBinAddr: 0x26694, symSize: 0x120 }
  - { offset: 0x151059, size: 0x8, addend: 0x0, symName: __ZNSt3__16vectorI23llama_grammar_candidateNS_9allocatorIS1_EEE20__throw_length_errorB8ne200100Ev, symObjAddr: 0x9654, symBinAddr: 0x2A64C, symSize: 0x14 }
  - { offset: 0x151071, size: 0x8, addend: 0x0, symName: __ZNSt3__128__exception_guard_exceptionsINS_6vectorINS1_I21llama_grammar_elementNS_9allocatorIS2_EEEENS3_IS5_EEE16__destroy_vectorEED1B8ne200100Ev, symObjAddr: 0x9668, symBinAddr: 0x2A660, symSize: 0x84 }
  - { offset: 0x15193D, size: 0x8, addend: 0x0, symName: __Z23llama_grammar_init_implPK11llama_vocabPPK21llama_grammar_elementmm, symObjAddr: 0x54EC, symBinAddr: 0x267B4, symSize: 0x684 }
  - { offset: 0x153A2F, size: 0x8, addend: 0x0, symName: __ZL35llama_grammar_detect_left_recursionRKNSt3__16vectorINS0_I21llama_grammar_elementNS_9allocatorIS1_EEEENS2_IS4_EEEEmPNS0_IbNS2_IbEEEESB_SB_, symObjAddr: 0x5B70, symBinAddr: 0x26E38, symSize: 0x190 }
  - { offset: 0x153D9F, size: 0x8, addend: 0x0, symName: __ZNSt3__16vectorINS0_I21llama_grammar_elementNS_9allocatorIS1_EEEENS2_IS4_EEE20__throw_length_errorB8ne200100Ev, symObjAddr: 0x9498, symBinAddr: 0x2A490, symSize: 0x14 }
  - { offset: 0x153DB7, size: 0x8, addend: 0x0, symName: __ZNSt3__16vectorI21llama_grammar_elementNS_9allocatorIS1_EEE18__assign_with_sizeB8ne200100IPS1_S6_EEvT_T0_l, symObjAddr: 0x94AC, symBinAddr: 0x2A4A4, symSize: 0x148 }
  - { offset: 0x153DC2, size: 0x8, addend: 0x0, symName: __ZNSt3__16vectorINS0_I21llama_grammar_elementNS_9allocatorIS1_EEEENS2_IS4_EEED1B8ne200100Ev, symObjAddr: 0x5D00, symBinAddr: 0x26FC8, symSize: 0x74 }
  - { offset: 0x15403D, size: 0x8, addend: 0x0, symName: __ZNSt3__128__exception_guard_exceptionsINS_6vectorINS1_I21llama_grammar_elementNS_9allocatorIS2_EEEENS3_IS5_EEE16__destroy_vectorEED1B8ne200100Ev, symObjAddr: 0x9668, symBinAddr: 0x2A660, symSize: 0x84 }
  - { offset: 0x154FFE, size: 0x8, addend: 0x0, symName: __Z23llama_grammar_init_implPK11llama_vocabPKcS3_bPS3_mPKim, symObjAddr: 0x5D74, symBinAddr: 0x2703C, symSize: 0xD30 }
  - { offset: 0x158EB9, size: 0x8, addend: 0x0, symName: __ZNSt3__16__treeINS_12__value_typeINS_12basic_stringIcNS_11char_traitsIcEENS_9allocatorIcEEEEjEENS_19__map_value_compareIS7_S8_NS_4lessIS7_EELb1EEENS5_IS8_EEE7destroyEPNS_11__tree_nodeIS8_PvEE, symObjAddr: 0x8C78, symBinAddr: 0x29E30, symSize: 0x60 }
  - { offset: 0x1590FD, size: 0x8, addend: 0x0, symName: __ZNSt3__16vectorI29llama_grammar_trigger_patternNS_9allocatorIS1_EEE24__emplace_back_slow_pathIJEEEPS1_DpOT_, symObjAddr: 0x9700, symBinAddr: 0x2A6E4, symSize: 0x1AC }
  - { offset: 0x159630, size: 0x8, addend: 0x0, symName: __ZNSt3__111basic_regexIcNS_12regex_traitsIcEEEC2B8ne200100INS_11char_traitsIcEENS_9allocatorIcEEEERKNS_12basic_stringIcT_T0_EENS_15regex_constants18syntax_option_typeE, symObjAddr: 0x9B98, symBinAddr: 0x2AB7C, symSize: 0xD4 }
  - { offset: 0x159802, size: 0x8, addend: 0x0, symName: __ZNSt3__16vectorI29llama_grammar_trigger_patternNS_9allocatorIS1_EEE24__emplace_back_slow_pathIJEEEPS1_DpOT_, symObjAddr: 0x9700, symBinAddr: 0x2A6E4, symSize: 0x1AC }
  - { offset: 0x15980D, size: 0x8, addend: 0x0, symName: __ZN20llama_grammar_parserD1Ev, symObjAddr: 0x6BC0, symBinAddr: 0x27E88, symSize: 0x80 }
  - { offset: 0x159B6A, size: 0x8, addend: 0x0, symName: __ZNSt3__16vectorI29llama_grammar_trigger_patternNS_9allocatorIS1_EEED1B8ne200100Ev, symObjAddr: 0x6B00, symBinAddr: 0x27DC8, symSize: 0xC0 }
  - { offset: 0x159EF9, size: 0x8, addend: 0x0, symName: __ZNSt3__111basic_regexIcNS_12regex_traitsIcEEED1Ev, symObjAddr: 0x6AA4, symBinAddr: 0x27D6C, symSize: 0x5C }
  - { offset: 0x15A8C3, size: 0x8, addend: 0x0, symName: __Z23llama_grammar_free_implP13llama_grammar, symObjAddr: 0x6C40, symBinAddr: 0x27F08, symSize: 0x1C }
  - { offset: 0x15A918, size: 0x8, addend: 0x0, symName: __ZN13llama_grammarD2Ev, symObjAddr: 0x8CD8, symBinAddr: 0x29E90, symSize: 0x178 }
  - { offset: 0x15BA22, size: 0x8, addend: 0x0, symName: __Z24llama_grammar_clone_implRK13llama_grammar, symObjAddr: 0x6C5C, symBinAddr: 0x27F24, symSize: 0x404 }
  - { offset: 0x15C85B, size: 0x8, addend: 0x0, symName: __ZNSt3__135__uninitialized_allocator_copy_implB8ne200100INS_9allocatorINS_6vectorI21llama_grammar_elementNS1_IS3_EEEEEEPS5_S7_S7_EET2_RT_T0_T1_S8_, symObjAddr: 0x125D8, symBinAddr: 0x33520, symSize: 0xF8 }
  - { offset: 0x15C866, size: 0x8, addend: 0x0, symName: __ZNSt3__16vectorI29llama_grammar_trigger_patternNS_9allocatorIS1_EEE18__construct_at_endIPS1_S6_EEvT_T0_m, symObjAddr: 0x12924, symBinAddr: 0x3386C, symSize: 0x108 }
  - { offset: 0x15CC36, size: 0x8, addend: 0x0, symName: __ZNSt3__16vectorI29llama_grammar_trigger_patternNS_9allocatorIS1_EEE20__throw_length_errorB8ne200100Ev, symObjAddr: 0x99D0, symBinAddr: 0x2A9B4, symSize: 0x14 }
  - { offset: 0x15CC4E, size: 0x8, addend: 0x0, symName: __ZNSt3__134__uninitialized_allocator_relocateB8ne200100INS_9allocatorI29llama_grammar_trigger_patternEEPS2_EEvRT_T0_S7_S7_, symObjAddr: 0x99E4, symBinAddr: 0x2A9C8, symSize: 0xFC }
  - { offset: 0x15CC59, size: 0x8, addend: 0x0, symName: __ZNSt3__128__exception_guard_exceptionsINS_6vectorINS1_IPK21llama_grammar_elementNS_9allocatorIS4_EEEENS5_IS7_EEE16__destroy_vectorEED1B8ne200100Ev, symObjAddr: 0x1273C, symBinAddr: 0x33684, symSize: 0x84 }
  - { offset: 0x15CEE2, size: 0x8, addend: 0x0, symName: __ZNSt3__128__exception_guard_exceptionsINS_6vectorI29llama_grammar_trigger_patternNS_9allocatorIS2_EEE16__destroy_vectorEED1B8ne200100Ev, symObjAddr: 0x12A2C, symBinAddr: 0x33974, symSize: 0xD0 }
  - { offset: 0x15CF0F, size: 0x8, addend: 0x0, symName: __ZNSt3__128__exception_guard_exceptionsINS_6vectorI29llama_grammar_trigger_patternNS_9allocatorIS2_EEE16__destroy_vectorEED1B8ne200100Ev, symObjAddr: 0x12A2C, symBinAddr: 0x33974, symSize: 0xD0 }
  - { offset: 0x15D9A2, size: 0x8, addend: 0x0, symName: __Z24llama_grammar_apply_implRK13llama_grammarP22llama_token_data_array, symObjAddr: 0x7060, symBinAddr: 0x28328, symSize: 0x668 }
  - { offset: 0x15F034, size: 0x8, addend: 0x0, symName: __ZNSt3__16vectorINS_4pairINS0_IjNS_9allocatorIjEEEE18llama_partial_utf8EENS2_IS6_EEE20__throw_length_errorB8ne200100Ev, symObjAddr: 0x12AFC, symBinAddr: 0x33A44, symSize: 0x14 }
  - { offset: 0x15F04C, size: 0x8, addend: 0x0, symName: __ZNKSt3__111basic_regexIcNS_12regex_traitsIcEEE8__searchINS_9allocatorINS_9sub_matchIPKcEEEEEEbS8_S8_RNS_13match_resultsIS8_T_EENS_15regex_constants15match_flag_typeE, symObjAddr: 0x12B10, symBinAddr: 0x33A58, symSize: 0x308 }
  - { offset: 0x15F057, size: 0x8, addend: 0x0, symName: __ZNSt3__16vectorINS_4pairINS0_IjNS_9allocatorIjEEEE18llama_partial_utf8EENS2_IS6_EEED1B8ne200100Ev, symObjAddr: 0x7B60, symBinAddr: 0x28E28, symSize: 0x74 }
  - { offset: 0x15F813, size: 0x8, addend: 0x0, symName: __ZNSt3__16vectorIjNS_9allocatorIjEEE20__throw_length_errorB8ne200100Ev, symObjAddr: 0x8E50, symBinAddr: 0x2A008, symSize: 0x14 }
  - { offset: 0x15FEF0, size: 0x8, addend: 0x0, symName: __Z25llama_grammar_accept_implR13llama_grammari, symObjAddr: 0x7BD4, symBinAddr: 0x28E9C, symSize: 0x4EC }
  - { offset: 0x1614C8, size: 0x8, addend: 0x0, symName: __Z24llama_grammar_accept_strR13llama_grammarRKNSt3__112basic_stringIcNS1_11char_traitsIcEENS1_9allocatorIcEEEE, symObjAddr: 0x80C0, symBinAddr: 0x29388, symSize: 0x148 }
  - { offset: 0x16197C, size: 0x8, addend: 0x0, symName: __ZNKSt3__111basic_regexIcNS_12regex_traitsIcEEE8__searchINS_9allocatorINS_9sub_matchIPKcEEEEEEbS8_S8_RNS_13match_resultsIS8_T_EENS_15regex_constants15match_flag_typeE, symObjAddr: 0x12B10, symBinAddr: 0x33A58, symSize: 0x308 }
  - { offset: 0x161ED6, size: 0x8, addend: 0x0, symName: __ZNSt3__113match_resultsINS_11__wrap_iterIPKcEENS_9allocatorINS_9sub_matchIS4_EEEEE8__assignB8ne200100IS3_NS5_INS6_IS3_EEEEEEvS4_S4_RKNS0_IT_T0_EEb, symObjAddr: 0x12E18, symBinAddr: 0x33D60, symSize: 0x168 }
  - { offset: 0x162154, size: 0x8, addend: 0x0, symName: __ZNSt3__14pairINS_12basic_stringIcNS_11char_traitsIcEENS_9allocatorIcEEEES6_ED1Ev, symObjAddr: 0xEA28, symBinAddr: 0x2F9F8, symSize: 0x58 }
  - { offset: 0x1625DA, size: 0x8, addend: 0x0, symName: __ZNSt3__114__split_bufferINS_6vectorIPK21llama_grammar_elementNS_9allocatorIS4_EEEERNS5_IS7_EEED1Ev, symObjAddr: 0x8B9C, symBinAddr: 0x29D54, symSize: 0x6C }
  - { offset: 0x16286A, size: 0x8, addend: 0x0, symName: __ZNSt3__110shared_ptrINS_13__empty_stateIcEEED1B8ne200100Ev, symObjAddr: 0x8C1C, symBinAddr: 0x29DD4, symSize: 0x5C }
  - { offset: 0x163295, size: 0x8, addend: 0x0, symName: __ZNSt3__114__split_bufferI29llama_grammar_trigger_patternRNS_9allocatorIS1_EEED1Ev, symObjAddr: 0x9918, symBinAddr: 0x2A8FC, symSize: 0xB8 }
  - { offset: 0x1635E5, size: 0x8, addend: 0x0, symName: __ZNSt3__111basic_regexIcNS_12regex_traitsIcEEEC1B8ne200100Ev, symObjAddr: 0x98AC, symBinAddr: 0x2A890, symSize: 0x6C }
  - { offset: 0x163895, size: 0x8, addend: 0x0, symName: __ZNSt3__128__exception_guard_exceptionsINS_29_AllocatorDestroyRangeReverseINS_9allocatorI29llama_grammar_trigger_patternEEPS3_EEED1B8ne200100Ev, symObjAddr: 0x9AE0, symBinAddr: 0x2AAC4, symSize: 0xB8 }
  - { offset: 0x163BAE, size: 0x8, addend: 0x0, symName: __ZNSt3__111basic_regexIcNS_12regex_traitsIcEEE7__parseINS_11__wrap_iterIPKcEEEET_S9_S9_, symObjAddr: 0x9C6C, symBinAddr: 0x2AC50, symSize: 0x200 }
  - { offset: 0x16452D, size: 0x8, addend: 0x0, symName: __ZNSt3__111basic_regexIcNS_12regex_traitsIcEEE13__parse_egrepINS_11__wrap_iterIPKcEEEET_S9_S9_, symObjAddr: 0xA584, symBinAddr: 0x2B568, symSize: 0x1A0 }
  - { offset: 0x164AC0, size: 0x8, addend: 0x0, symName: __ZNSt3__111basic_regexIcNS_12regex_traitsIcEEE24__parse_extended_reg_expINS_11__wrap_iterIPKcEEEET_S9_S9_, symObjAddr: 0xA280, symBinAddr: 0x2B264, symSize: 0x164 }
  - { offset: 0x164DF5, size: 0x8, addend: 0x0, symName: __ZNSt3__111basic_regexIcNS_12regex_traitsIcEEE12__parse_grepINS_11__wrap_iterIPKcEEEET_S9_S9_, symObjAddr: 0xA3E4, symBinAddr: 0x2B3C8, symSize: 0x1A0 }
  - { offset: 0x164E09, size: 0x8, addend: 0x0, symName: __ZNSt3__111basic_regexIcNS_12regex_traitsIcEEE21__parse_basic_reg_expINS_11__wrap_iterIPKcEEEET_S9_S9_, symObjAddr: 0xA100, symBinAddr: 0x2B0E4, symSize: 0x180 }
  - { offset: 0x16512A, size: 0x8, addend: 0x0, symName: __ZNSt3__111basic_regexIcNS_12regex_traitsIcEEE24__parse_extended_reg_expINS_11__wrap_iterIPKcEEEET_S9_S9_, symObjAddr: 0xA280, symBinAddr: 0x2B264, symSize: 0x164 }
  - { offset: 0x16513E, size: 0x8, addend: 0x0, symName: __ZNSt3__111basic_regexIcNS_12regex_traitsIcEEE12__parse_grepINS_11__wrap_iterIPKcEEEET_S9_S9_, symObjAddr: 0xA3E4, symBinAddr: 0x2B3C8, symSize: 0x1A0 }
  - { offset: 0x1656D1, size: 0x8, addend: 0x0, symName: __ZNSt3__111basic_regexIcNS_12regex_traitsIcEEE16__parse_ecma_expINS_11__wrap_iterIPKcEEEET_S9_S9_, symObjAddr: 0x9EB8, symBinAddr: 0x2AE9C, symSize: 0x248 }
  - { offset: 0x165E82, size: 0x8, addend: 0x0, symName: __ZNSt3__111basic_regexIcNS_12regex_traitsIcEEE17__parse_assertionINS_11__wrap_iterIPKcEEEET_S9_S9_, symObjAddr: 0xA958, symBinAddr: 0x2B93C, symSize: 0x324 }
  - { offset: 0x16639A, size: 0x8, addend: 0x0, symName: __ZNSt3__111basic_regexIcNS_12regex_traitsIcEEE12__parse_atomINS_11__wrap_iterIPKcEEEET_S9_S9_, symObjAddr: 0xAC7C, symBinAddr: 0x2BC60, symSize: 0x268 }
  - { offset: 0x166707, size: 0x8, addend: 0x0, symName: __ZNSt3__111basic_regexIcNS_12regex_traitsIcEEE23__parse_ERE_dupl_symbolINS_11__wrap_iterIPKcEEEET_S9_S9_PNS_16__owns_one_stateIcEEjj, symObjAddr: 0xAEE4, symBinAddr: 0x2BEC8, symSize: 0x378 }
  - { offset: 0x16671B, size: 0x8, addend: 0x0, symName: __ZNSt3__111basic_regexIcNS_12regex_traitsIcEEE23__parse_ERE_dupl_symbolINS_11__wrap_iterIPKcEEEET_S9_S9_PNS_16__owns_one_stateIcEEjj, symObjAddr: 0xAEE4, symBinAddr: 0x2BEC8, symSize: 0x378 }
  - { offset: 0x166D37, size: 0x8, addend: 0x0, symName: __ZNSt3__111basic_regexIcNS_12regex_traitsIcEEE20__push_word_boundaryEb, symObjAddr: 0xB25C, symBinAddr: 0x2C240, symSize: 0x6C }
  - { offset: 0x166F32, size: 0x8, addend: 0x0, symName: __ZNSt3__111basic_regexIcNS_12regex_traitsIcEEE18__parse_nondupl_REINS_11__wrap_iterIPKcEEEET_S9_S9_, symObjAddr: 0x11A04, symBinAddr: 0x329D4, symSize: 0x20C }
  - { offset: 0x1673EE, size: 0x8, addend: 0x0, symName: __ZNSt3__111basic_regexIcNS_12regex_traitsIcEEE22__parse_RE_dupl_symbolINS_11__wrap_iterIPKcEEEET_S9_S9_PNS_16__owns_one_stateIcEEjj, symObjAddr: 0x11C10, symBinAddr: 0x32BE0, symSize: 0x274 }
  - { offset: 0x167402, size: 0x8, addend: 0x0, symName: __ZNSt3__111basic_regexIcNS_12regex_traitsIcEEE22__parse_RE_dupl_symbolINS_11__wrap_iterIPKcEEEET_S9_S9_PNS_16__owns_one_stateIcEEjj, symObjAddr: 0x11C10, symBinAddr: 0x32BE0, symSize: 0x274 }
  - { offset: 0x1678F6, size: 0x8, addend: 0x0, symName: __ZNSt3__111basic_regexIcNS_12regex_traitsIcEEE32__parse_one_char_or_coll_elem_REINS_11__wrap_iterIPKcEEEET_S9_S9_, symObjAddr: 0x11E84, symBinAddr: 0x32E54, symSize: 0x18C }
  - { offset: 0x16794D, size: 0x8, addend: 0x0, symName: __ZNSt3__111basic_regexIcNS_12regex_traitsIcEEE22__parse_ERE_expressionINS_11__wrap_iterIPKcEEEET_S9_S9_, symObjAddr: 0x12140, symBinAddr: 0x33110, symSize: 0x1F0 }
  - { offset: 0x167CF6, size: 0x8, addend: 0x0, symName: __ZNSt3__111basic_regexIcNS_12regex_traitsIcEEE33__parse_one_char_or_coll_elem_EREINS_11__wrap_iterIPKcEEEET_S9_S9_, symObjAddr: 0x12330, symBinAddr: 0x33300, symSize: 0x158 }
  - { offset: 0x167D26, size: 0x8, addend: 0x0, symName: __ZNSt3__111__end_stateIcED1Ev, symObjAddr: 0xA770, symBinAddr: 0x2B754, symSize: 0x4 }
  - { offset: 0x167D52, size: 0x8, addend: 0x0, symName: __ZNSt3__111__end_stateIcED0Ev, symObjAddr: 0xA774, symBinAddr: 0x2B758, symSize: 0x4 }
  - { offset: 0x167D72, size: 0x8, addend: 0x0, symName: __ZNKSt3__111__end_stateIcE6__execERNS_7__stateIcEE, symObjAddr: 0xA778, symBinAddr: 0x2B75C, symSize: 0xC }
  - { offset: 0x167DA5, size: 0x8, addend: 0x0, symName: __ZNKSt3__16__nodeIcE12__exec_splitEbRNS_7__stateIcEE, symObjAddr: 0xA784, symBinAddr: 0x2B768, symSize: 0x4 }
  - { offset: 0x167DE5, size: 0x8, addend: 0x0, symName: __ZNKSt3__16__nodeIcE6__execERNS_7__stateIcEE, symObjAddr: 0xA788, symBinAddr: 0x2B76C, symSize: 0x4 }
  - { offset: 0x167E31, size: 0x8, addend: 0x0, symName: __ZNSt3__120__shared_ptr_pointerIPNS_13__empty_stateIcEENS_10shared_ptrIS2_E27__shared_ptr_default_deleteIS2_S2_EENS_9allocatorIS2_EEED1Ev, symObjAddr: 0xA78C, symBinAddr: 0x2B770, symSize: 0x4 }
  - { offset: 0x167E53, size: 0x8, addend: 0x0, symName: __ZNSt3__120__shared_ptr_pointerIPNS_13__empty_stateIcEENS_10shared_ptrIS2_E27__shared_ptr_default_deleteIS2_S2_EENS_9allocatorIS2_EEED1Ev, symObjAddr: 0xA78C, symBinAddr: 0x2B770, symSize: 0x4 }
  - { offset: 0x167E89, size: 0x8, addend: 0x0, symName: __ZNSt3__120__shared_ptr_pointerIPNS_13__empty_stateIcEENS_10shared_ptrIS2_E27__shared_ptr_default_deleteIS2_S2_EENS_9allocatorIS2_EEED0Ev, symObjAddr: 0xA790, symBinAddr: 0x2B774, symSize: 0x14 }
  - { offset: 0x167EEC, size: 0x8, addend: 0x0, symName: __ZNSt3__120__shared_ptr_pointerIPNS_13__empty_stateIcEENS_10shared_ptrIS2_E27__shared_ptr_default_deleteIS2_S2_EENS_9allocatorIS2_EEE16__on_zero_sharedEv, symObjAddr: 0xA7A4, symBinAddr: 0x2B788, symSize: 0x18 }
  - { offset: 0x167F93, size: 0x8, addend: 0x0, symName: __ZNKSt3__120__shared_ptr_pointerIPNS_13__empty_stateIcEENS_10shared_ptrIS2_E27__shared_ptr_default_deleteIS2_S2_EENS_9allocatorIS2_EEE13__get_deleterERKSt9type_info, symObjAddr: 0xA7BC, symBinAddr: 0x2B7A0, symSize: 0x64 }
  - { offset: 0x167FCB, size: 0x8, addend: 0x0, symName: __ZNKSt3__120__shared_ptr_pointerIPNS_13__empty_stateIcEENS_10shared_ptrIS2_E27__shared_ptr_default_deleteIS2_S2_EENS_9allocatorIS2_EEE13__get_deleterERKSt9type_info, symObjAddr: 0xA7BC, symBinAddr: 0x2B7A0, symSize: 0x64 }
  - { offset: 0x1680BF, size: 0x8, addend: 0x0, symName: __ZNSt3__120__shared_ptr_pointerIPNS_13__empty_stateIcEENS_10shared_ptrIS2_E27__shared_ptr_default_deleteIS2_S2_EENS_9allocatorIS2_EEE21__on_zero_shared_weakEv, symObjAddr: 0xA820, symBinAddr: 0x2B804, symSize: 0x4 }
  - { offset: 0x1680F3, size: 0x8, addend: 0x0, symName: __ZNSt3__120__shared_ptr_pointerIPNS_13__empty_stateIcEENS_10shared_ptrIS2_E27__shared_ptr_default_deleteIS2_S2_EENS_9allocatorIS2_EEE21__on_zero_shared_weakEv, symObjAddr: 0xA820, symBinAddr: 0x2B804, symSize: 0x4 }
  - { offset: 0x168115, size: 0x8, addend: 0x0, symName: __ZNSt3__120__shared_ptr_pointerIPNS_13__empty_stateIcEENS_10shared_ptrIS2_E27__shared_ptr_default_deleteIS2_S2_EENS_9allocatorIS2_EEE21__on_zero_shared_weakEv, symObjAddr: 0xA820, symBinAddr: 0x2B804, symSize: 0x4 }
  - { offset: 0x168149, size: 0x8, addend: 0x0, symName: __ZNSt3__120__shared_ptr_pointerIPNS_13__empty_stateIcEENS_10shared_ptrIS2_E27__shared_ptr_default_deleteIS2_S2_EENS_9allocatorIS2_EEE21__on_zero_shared_weakEv, symObjAddr: 0xA820, symBinAddr: 0x2B804, symSize: 0x4 }
  - { offset: 0x168170, size: 0x8, addend: 0x0, symName: __ZNSt3__113__empty_stateIcED1Ev, symObjAddr: 0xA824, symBinAddr: 0x2B808, symSize: 0x48 }
  - { offset: 0x168194, size: 0x8, addend: 0x0, symName: __ZNSt3__113__empty_stateIcED1Ev, symObjAddr: 0xA824, symBinAddr: 0x2B808, symSize: 0x48 }
  - { offset: 0x1681B2, size: 0x8, addend: 0x0, symName: __ZNSt3__113__empty_stateIcED1Ev, symObjAddr: 0xA824, symBinAddr: 0x2B808, symSize: 0x48 }
  - { offset: 0x1681DC, size: 0x8, addend: 0x0, symName: __ZNSt3__113__empty_stateIcED0Ev, symObjAddr: 0xA86C, symBinAddr: 0x2B850, symSize: 0x48 }
  - { offset: 0x168200, size: 0x8, addend: 0x0, symName: __ZNSt3__113__empty_stateIcED0Ev, symObjAddr: 0xA86C, symBinAddr: 0x2B850, symSize: 0x48 }
  - { offset: 0x16821E, size: 0x8, addend: 0x0, symName: __ZNSt3__113__empty_stateIcED0Ev, symObjAddr: 0xA86C, symBinAddr: 0x2B850, symSize: 0x48 }
  - { offset: 0x16823C, size: 0x8, addend: 0x0, symName: __ZNSt3__113__empty_stateIcED0Ev, symObjAddr: 0xA86C, symBinAddr: 0x2B850, symSize: 0x48 }
  - { offset: 0x168282, size: 0x8, addend: 0x0, symName: __ZNKSt3__113__empty_stateIcE6__execERNS_7__stateIcEE, symObjAddr: 0xA8B4, symBinAddr: 0x2B898, symSize: 0x14 }
  - { offset: 0x1682D4, size: 0x8, addend: 0x0, symName: __ZNSt3__116__owns_one_stateIcED1Ev, symObjAddr: 0xA8C8, symBinAddr: 0x2B8AC, symSize: 0x48 }
  - { offset: 0x1682F8, size: 0x8, addend: 0x0, symName: __ZNSt3__116__owns_one_stateIcED1Ev, symObjAddr: 0xA8C8, symBinAddr: 0x2B8AC, symSize: 0x48 }
  - { offset: 0x16833D, size: 0x8, addend: 0x0, symName: __ZNSt3__116__owns_one_stateIcED0Ev, symObjAddr: 0xA910, symBinAddr: 0x2B8F4, symSize: 0x48 }
  - { offset: 0x16836C, size: 0x8, addend: 0x0, symName: __ZNSt3__116__owns_one_stateIcED0Ev, symObjAddr: 0xA910, symBinAddr: 0x2B8F4, symSize: 0x48 }
  - { offset: 0x16838A, size: 0x8, addend: 0x0, symName: __ZNSt3__116__owns_one_stateIcED0Ev, symObjAddr: 0xA910, symBinAddr: 0x2B8F4, symSize: 0x48 }
  - { offset: 0x1684B1, size: 0x8, addend: 0x0, symName: __ZNSt3__111basic_regexIcNS_12regex_traitsIcEEE16__push_lookaheadERKS3_bj, symObjAddr: 0xB2C8, symBinAddr: 0x2C2AC, symSize: 0xA8 }
  - { offset: 0x1686C9, size: 0x8, addend: 0x0, symName: __ZNSt3__111basic_regexIcNS_12regex_traitsIcEEE20__push_word_boundaryEb, symObjAddr: 0xB25C, symBinAddr: 0x2C240, symSize: 0x6C }
  - { offset: 0x16898F, size: 0x8, addend: 0x0, symName: __ZNSt3__111basic_regexIcNS_12regex_traitsIcEEE26__parse_bracket_expressionINS_11__wrap_iterIPKcEEEET_S9_S9_, symObjAddr: 0xCAB8, symBinAddr: 0x2DA9C, symSize: 0x158 }
  - { offset: 0x168BB7, size: 0x8, addend: 0x0, symName: __ZNSt3__111basic_regexIcNS_12regex_traitsIcEEE19__parse_atom_escapeINS_11__wrap_iterIPKcEEEET_S9_S9_, symObjAddr: 0xC96C, symBinAddr: 0x2D950, symSize: 0x14C }
  - { offset: 0x168D23, size: 0x8, addend: 0x0, symName: __ZNSt3__111basic_regexIcNS_12regex_traitsIcEEE26__parse_bracket_expressionINS_11__wrap_iterIPKcEEEET_S9_S9_, symObjAddr: 0xCAB8, symBinAddr: 0x2DA9C, symSize: 0x158 }
  - { offset: 0x168D37, size: 0x8, addend: 0x0, symName: __ZNSt3__111basic_regexIcNS_12regex_traitsIcEEE25__parse_pattern_characterINS_11__wrap_iterIPKcEEEET_S9_S9_, symObjAddr: 0xCC5C, symBinAddr: 0x2DC40, symSize: 0x7C }
  - { offset: 0x168F0A, size: 0x8, addend: 0x0, symName: __ZNSt3__111basic_regexIcNS_12regex_traitsIcEEE11__push_loopEmmPNS_16__owns_one_stateIcEEmmb, symObjAddr: 0x1123C, symBinAddr: 0x3220C, symSize: 0x13C }
  - { offset: 0x1694B7, size: 0x8, addend: 0x0, symName: __ZNSt3__120__l_anchor_multilineIcED1Ev, symObjAddr: 0xB3BC, symBinAddr: 0x2C3A0, symSize: 0x48 }
  - { offset: 0x1694DB, size: 0x8, addend: 0x0, symName: __ZNSt3__120__l_anchor_multilineIcED1Ev, symObjAddr: 0xB3BC, symBinAddr: 0x2C3A0, symSize: 0x48 }
  - { offset: 0x1694F9, size: 0x8, addend: 0x0, symName: __ZNSt3__120__l_anchor_multilineIcED1Ev, symObjAddr: 0xB3BC, symBinAddr: 0x2C3A0, symSize: 0x48 }
  - { offset: 0x169540, size: 0x8, addend: 0x0, symName: __ZNSt3__120__l_anchor_multilineIcED0Ev, symObjAddr: 0xB404, symBinAddr: 0x2C3E8, symSize: 0x48 }
  - { offset: 0x169570, size: 0x8, addend: 0x0, symName: __ZNSt3__120__l_anchor_multilineIcED0Ev, symObjAddr: 0xB404, symBinAddr: 0x2C3E8, symSize: 0x48 }
  - { offset: 0x16958E, size: 0x8, addend: 0x0, symName: __ZNSt3__120__l_anchor_multilineIcED0Ev, symObjAddr: 0xB404, symBinAddr: 0x2C3E8, symSize: 0x48 }
  - { offset: 0x1695AC, size: 0x8, addend: 0x0, symName: __ZNSt3__120__l_anchor_multilineIcED0Ev, symObjAddr: 0xB404, symBinAddr: 0x2C3E8, symSize: 0x48 }
  - { offset: 0x1695D7, size: 0x8, addend: 0x0, symName: __ZNKSt3__120__l_anchor_multilineIcE6__execERNS_7__stateIcEE, symObjAddr: 0xB44C, symBinAddr: 0x2C430, symSize: 0x68 }
  - { offset: 0x16963B, size: 0x8, addend: 0x0, symName: __ZNSt3__120__r_anchor_multilineIcED1Ev, symObjAddr: 0xB4B4, symBinAddr: 0x2C498, symSize: 0x48 }
  - { offset: 0x16965F, size: 0x8, addend: 0x0, symName: __ZNSt3__120__r_anchor_multilineIcED1Ev, symObjAddr: 0xB4B4, symBinAddr: 0x2C498, symSize: 0x48 }
  - { offset: 0x16967D, size: 0x8, addend: 0x0, symName: __ZNSt3__120__r_anchor_multilineIcED1Ev, symObjAddr: 0xB4B4, symBinAddr: 0x2C498, symSize: 0x48 }
  - { offset: 0x1696C4, size: 0x8, addend: 0x0, symName: __ZNSt3__120__r_anchor_multilineIcED0Ev, symObjAddr: 0xB4FC, symBinAddr: 0x2C4E0, symSize: 0x48 }
  - { offset: 0x1696F4, size: 0x8, addend: 0x0, symName: __ZNSt3__120__r_anchor_multilineIcED0Ev, symObjAddr: 0xB4FC, symBinAddr: 0x2C4E0, symSize: 0x48 }
  - { offset: 0x169712, size: 0x8, addend: 0x0, symName: __ZNSt3__120__r_anchor_multilineIcED0Ev, symObjAddr: 0xB4FC, symBinAddr: 0x2C4E0, symSize: 0x48 }
  - { offset: 0x169730, size: 0x8, addend: 0x0, symName: __ZNSt3__120__r_anchor_multilineIcED0Ev, symObjAddr: 0xB4FC, symBinAddr: 0x2C4E0, symSize: 0x48 }
  - { offset: 0x16975B, size: 0x8, addend: 0x0, symName: __ZNKSt3__120__r_anchor_multilineIcE6__execERNS_7__stateIcEE, symObjAddr: 0xB544, symBinAddr: 0x2C528, symSize: 0x54 }
  - { offset: 0x1697BF, size: 0x8, addend: 0x0, symName: __ZNSt3__115__word_boundaryIcNS_12regex_traitsIcEEED1Ev, symObjAddr: 0xB598, symBinAddr: 0x2C57C, symSize: 0x58 }
  - { offset: 0x16986F, size: 0x8, addend: 0x0, symName: __ZNSt3__115__word_boundaryIcNS_12regex_traitsIcEEED0Ev, symObjAddr: 0xB5F0, symBinAddr: 0x2C5D4, symSize: 0x58 }
  - { offset: 0x169989, size: 0x8, addend: 0x0, symName: __ZNKSt3__115__word_boundaryIcNS_12regex_traitsIcEEE6__execERNS_7__stateIcEE, symObjAddr: 0xB648, symBinAddr: 0x2C62C, symSize: 0x154 }
  - { offset: 0x169B47, size: 0x8, addend: 0x0, symName: __ZNSt3__111__lookaheadIcNS_12regex_traitsIcEEED1Ev, symObjAddr: 0xB79C, symBinAddr: 0x2C780, symSize: 0x8C }
  - { offset: 0x169CA7, size: 0x8, addend: 0x0, symName: __ZNSt3__111__lookaheadIcNS_12regex_traitsIcEEED0Ev, symObjAddr: 0xB828, symBinAddr: 0x2C80C, symSize: 0x8C }
  - { offset: 0x169ED5, size: 0x8, addend: 0x0, symName: __ZNKSt3__111__lookaheadIcNS_12regex_traitsIcEEE6__execERNS_7__stateIcEE, symObjAddr: 0xB8B4, symBinAddr: 0x2C898, symSize: 0x174 }
  - { offset: 0x16A3EE, size: 0x8, addend: 0x0, symName: __ZNSt3__16vectorINS_9sub_matchIPKcEENS_9allocatorIS4_EEE6assignEmRKS4_, symObjAddr: 0xBEAC, symBinAddr: 0x2CE90, symSize: 0x1E0 }
  - { offset: 0x16A93D, size: 0x8, addend: 0x0, symName: __ZNSt3__16vectorINS_9sub_matchIPKcEENS_9allocatorIS4_EEE20__throw_length_errorB8ne200100Ev, symObjAddr: 0xC08C, symBinAddr: 0x2D070, symSize: 0x14 }
  - { offset: 0x16A948, size: 0x8, addend: 0x0, symName: __ZNKSt3__111basic_regexIcNS_12regex_traitsIcEEE21__match_at_start_ecmaINS_9allocatorINS_9sub_matchIPKcEEEEEEbS8_S8_RNS_13match_resultsIS8_T_EENS_15regex_constants15match_flag_typeEb, symObjAddr: 0xBA28, symBinAddr: 0x2CA0C, symSize: 0x484 }
  - { offset: 0x16C1C1, size: 0x8, addend: 0x0, symName: __ZNSt3__16vectorINS_7__stateIcEENS_9allocatorIS2_EEE24__emplace_back_slow_pathIJS2_EEEPS2_DpOT_, symObjAddr: 0xC1F8, symBinAddr: 0x2D1DC, symSize: 0x178 }
  - { offset: 0x16C849, size: 0x8, addend: 0x0, symName: __ZNSt3__16vectorINS_9sub_matchIPKcEENS_9allocatorIS4_EEE8__appendEmRKS4_, symObjAddr: 0xC51C, symBinAddr: 0x2D500, symSize: 0x1B0 }
  - { offset: 0x16CD46, size: 0x8, addend: 0x0, symName: __ZNSt3__16vectorINS_4pairImPKcEENS_9allocatorIS4_EEE8__appendEm, symObjAddr: 0xC6CC, symBinAddr: 0x2D6B0, symSize: 0x120 }
  - { offset: 0x16CD51, size: 0x8, addend: 0x0, symName: __ZNSt3__16vectorINS_4pairImPKcEENS_9allocatorIS4_EEE8__appendEm, symObjAddr: 0xC6CC, symBinAddr: 0x2D6B0, symSize: 0x120 }
  - { offset: 0x16D183, size: 0x8, addend: 0x0, symName: __ZNSt3__16vectorINS_4pairImPKcEENS_9allocatorIS4_EEE20__throw_length_errorB8ne200100Ev, symObjAddr: 0xC7EC, symBinAddr: 0x2D7D0, symSize: 0x14 }
  - { offset: 0x16D18E, size: 0x8, addend: 0x0, symName: __ZNSt3__17__stateIcEC2ERKS1_, symObjAddr: 0xC800, symBinAddr: 0x2D7E4, symSize: 0x16C }
  - { offset: 0x16D7C0, size: 0x8, addend: 0x0, symName: __ZNSt3__16vectorINS_7__stateIcEENS_9allocatorIS2_EEED1B8ne200100Ev, symObjAddr: 0xC178, symBinAddr: 0x2D15C, symSize: 0x80 }
  - { offset: 0x16DBA3, size: 0x8, addend: 0x0, symName: __ZNSt3__17__stateIcED1Ev, symObjAddr: 0xC0A0, symBinAddr: 0x2D084, symSize: 0x40 }
  - { offset: 0x16E076, size: 0x8, addend: 0x0, symName: __ZNSt3__16vectorINS_9sub_matchIPKcEENS_9allocatorIS4_EEE20__throw_length_errorB8ne200100Ev, symObjAddr: 0xC08C, symBinAddr: 0x2D070, symSize: 0x14 }
  - { offset: 0x16E08E, size: 0x8, addend: 0x0, symName: __ZNSt3__17__stateIcED1Ev, symObjAddr: 0xC0A0, symBinAddr: 0x2D084, symSize: 0x40 }
  - { offset: 0x16E22C, size: 0x8, addend: 0x0, symName: __ZNSt3__16vectorINS_7__stateIcEENS_9allocatorIS2_EEE26__swap_out_circular_bufferERNS_14__split_bufferIS2_RS4_EE, symObjAddr: 0xC370, symBinAddr: 0x2D354, symSize: 0x124 }
  - { offset: 0x16E787, size: 0x8, addend: 0x0, symName: __ZNSt3__16vectorINS_7__stateIcEENS_9allocatorIS2_EEE20__throw_length_errorB8ne200100Ev, symObjAddr: 0xC508, symBinAddr: 0x2D4EC, symSize: 0x14 }
  - { offset: 0x16E79F, size: 0x8, addend: 0x0, symName: __ZNSt3__16vectorINS_9sub_matchIPKcEENS_9allocatorIS4_EEE8__appendEmRKS4_, symObjAddr: 0xC51C, symBinAddr: 0x2D500, symSize: 0x1B0 }
  - { offset: 0x16E7AA, size: 0x8, addend: 0x0, symName: __ZNSt3__114__split_bufferINS_7__stateIcEERNS_9allocatorIS2_EEED1Ev, symObjAddr: 0xC494, symBinAddr: 0x2D478, symSize: 0x74 }
  - { offset: 0x16F07F, size: 0x8, addend: 0x0, symName: __ZNSt3__16vectorINS_4pairImPKcEENS_9allocatorIS4_EEE20__throw_length_errorB8ne200100Ev, symObjAddr: 0xC7EC, symBinAddr: 0x2D7D0, symSize: 0x14 }
  - { offset: 0x16F097, size: 0x8, addend: 0x0, symName: __ZNSt3__17__stateIcEC2ERKS1_, symObjAddr: 0xC800, symBinAddr: 0x2D7E4, symSize: 0x16C }
  - { offset: 0x16F4C2, size: 0x8, addend: 0x0, symName: __ZNSt3__111basic_regexIcNS_12regex_traitsIcEEE11__push_charEc, symObjAddr: 0xD39C, symBinAddr: 0x2E380, symSize: 0x144 }
  - { offset: 0x16F82D, size: 0x8, addend: 0x0, symName: __ZNSt3__111basic_regexIcNS_12regex_traitsIcEEE15__push_back_refEi, symObjAddr: 0xD52C, symBinAddr: 0x2E510, symSize: 0xD4 }
  - { offset: 0x16F9E1, size: 0x8, addend: 0x0, symName: __ZNSt3__111basic_regexIcNS_12regex_traitsIcEEE30__parse_character_class_escapeINS_11__wrap_iterIPKcEEEET_S9_S9_, symObjAddr: 0xCDB4, symBinAddr: 0x2DD98, symSize: 0x25C }
  - { offset: 0x16FE50, size: 0x8, addend: 0x0, symName: __ZNSt3__111basic_regexIcNS_12regex_traitsIcEEE24__parse_character_escapeINS_11__wrap_iterIPKcEEEET_S9_S9_PNS_12basic_stringIcNS_11char_traitsIcEENS_9allocatorIcEEEE, symObjAddr: 0xD010, symBinAddr: 0x2DFF4, symSize: 0x38C }
  - { offset: 0x17021A, size: 0x8, addend: 0x0, symName: __ZNSt3__111basic_regexIcNS_12regex_traitsIcEEE11__push_charEc, symObjAddr: 0xD39C, symBinAddr: 0x2E380, symSize: 0x144 }
  - { offset: 0x170305, size: 0x8, addend: 0x0, symName: __ZNSt3__120__bracket_expressionIcNS_12regex_traitsIcEEEC2B8ne200100ERKS2_PNS_6__nodeIcEEbbb, symObjAddr: 0xDED8, symBinAddr: 0x2EEBC, symSize: 0x19C }
  - { offset: 0x170937, size: 0x8, addend: 0x0, symName: __ZNSt3__120__bracket_expressionIcNS_12regex_traitsIcEEE10__add_charB8ne200100Ec, symObjAddr: 0xDD4C, symBinAddr: 0x2ED30, symSize: 0x18C }
  - { offset: 0x170C5F, size: 0x8, addend: 0x0, symName: __ZNSt3__120__bracket_expressionIcNS_12regex_traitsIcEEEC2B8ne200100ERKS2_PNS_6__nodeIcEEbbb, symObjAddr: 0xDED8, symBinAddr: 0x2EEBC, symSize: 0x19C }
  - { offset: 0x170C6A, size: 0x8, addend: 0x0, symName: __ZNSt3__111basic_regexIcNS_12regex_traitsIcEEE23__parse_expression_termINS_11__wrap_iterIPKcEEEET_S9_S9_PNS_20__bracket_expressionIcS2_EE, symObjAddr: 0xF138, symBinAddr: 0x30108, symSize: 0x454 }
  - { offset: 0x1718E8, size: 0x8, addend: 0x0, symName: __ZNSt3__123__match_any_but_newlineIcED1Ev, symObjAddr: 0xCCD8, symBinAddr: 0x2DCBC, symSize: 0x48 }
  - { offset: 0x17190C, size: 0x8, addend: 0x0, symName: __ZNSt3__123__match_any_but_newlineIcED1Ev, symObjAddr: 0xCCD8, symBinAddr: 0x2DCBC, symSize: 0x48 }
  - { offset: 0x17192A, size: 0x8, addend: 0x0, symName: __ZNSt3__123__match_any_but_newlineIcED1Ev, symObjAddr: 0xCCD8, symBinAddr: 0x2DCBC, symSize: 0x48 }
  - { offset: 0x171971, size: 0x8, addend: 0x0, symName: __ZNSt3__123__match_any_but_newlineIcED0Ev, symObjAddr: 0xCD20, symBinAddr: 0x2DD04, symSize: 0x48 }
  - { offset: 0x1719A1, size: 0x8, addend: 0x0, symName: __ZNSt3__123__match_any_but_newlineIcED0Ev, symObjAddr: 0xCD20, symBinAddr: 0x2DD04, symSize: 0x48 }
  - { offset: 0x1719BF, size: 0x8, addend: 0x0, symName: __ZNSt3__123__match_any_but_newlineIcED0Ev, symObjAddr: 0xCD20, symBinAddr: 0x2DD04, symSize: 0x48 }
  - { offset: 0x1719DD, size: 0x8, addend: 0x0, symName: __ZNSt3__123__match_any_but_newlineIcED0Ev, symObjAddr: 0xCD20, symBinAddr: 0x2DD04, symSize: 0x48 }
  - { offset: 0x171E0F, size: 0x8, addend: 0x0, symName: __ZNSt3__118__match_char_icaseIcNS_12regex_traitsIcEEED1Ev, symObjAddr: 0xD600, symBinAddr: 0x2E5E4, symSize: 0x58 }
  - { offset: 0x171EBF, size: 0x8, addend: 0x0, symName: __ZNSt3__118__match_char_icaseIcNS_12regex_traitsIcEEED0Ev, symObjAddr: 0xD658, symBinAddr: 0x2E63C, symSize: 0x58 }
  - { offset: 0x171F7B, size: 0x8, addend: 0x0, symName: __ZNKSt3__118__match_char_icaseIcNS_12regex_traitsIcEEE6__execERNS_7__stateIcEE, symObjAddr: 0xD6B0, symBinAddr: 0x2E694, symSize: 0x84 }
  - { offset: 0x172034, size: 0x8, addend: 0x0, symName: __ZNSt3__120__match_char_collateIcNS_12regex_traitsIcEEED1Ev, symObjAddr: 0xD734, symBinAddr: 0x2E718, symSize: 0x58 }
  - { offset: 0x1720E4, size: 0x8, addend: 0x0, symName: __ZNSt3__120__match_char_collateIcNS_12regex_traitsIcEEED0Ev, symObjAddr: 0xD78C, symBinAddr: 0x2E770, symSize: 0x58 }
  - { offset: 0x1721A0, size: 0x8, addend: 0x0, symName: __ZNKSt3__120__match_char_collateIcNS_12regex_traitsIcEEE6__execERNS_7__stateIcEE, symObjAddr: 0xD7E4, symBinAddr: 0x2E7C8, symSize: 0x48 }
  - { offset: 0x17220D, size: 0x8, addend: 0x0, symName: __ZNSt3__112__match_charIcED1Ev, symObjAddr: 0xD82C, symBinAddr: 0x2E810, symSize: 0x48 }
  - { offset: 0x172231, size: 0x8, addend: 0x0, symName: __ZNSt3__112__match_charIcED1Ev, symObjAddr: 0xD82C, symBinAddr: 0x2E810, symSize: 0x48 }
  - { offset: 0x17224F, size: 0x8, addend: 0x0, symName: __ZNSt3__112__match_charIcED1Ev, symObjAddr: 0xD82C, symBinAddr: 0x2E810, symSize: 0x48 }
  - { offset: 0x172296, size: 0x8, addend: 0x0, symName: __ZNSt3__112__match_charIcED0Ev, symObjAddr: 0xD874, symBinAddr: 0x2E858, symSize: 0x48 }
  - { offset: 0x1722C6, size: 0x8, addend: 0x0, symName: __ZNSt3__112__match_charIcED0Ev, symObjAddr: 0xD874, symBinAddr: 0x2E858, symSize: 0x48 }
  - { offset: 0x1722E4, size: 0x8, addend: 0x0, symName: __ZNSt3__112__match_charIcED0Ev, symObjAddr: 0xD874, symBinAddr: 0x2E858, symSize: 0x48 }
  - { offset: 0x172302, size: 0x8, addend: 0x0, symName: __ZNSt3__112__match_charIcED0Ev, symObjAddr: 0xD874, symBinAddr: 0x2E858, symSize: 0x48 }
  - { offset: 0x17232D, size: 0x8, addend: 0x0, symName: __ZNKSt3__112__match_charIcE6__execERNS_7__stateIcEE, symObjAddr: 0xD8BC, symBinAddr: 0x2E8A0, symSize: 0x48 }
  - { offset: 0x17239A, size: 0x8, addend: 0x0, symName: __ZNSt3__116__back_ref_icaseIcNS_12regex_traitsIcEEED1Ev, symObjAddr: 0xD904, symBinAddr: 0x2E8E8, symSize: 0x58 }
  - { offset: 0x17244A, size: 0x8, addend: 0x0, symName: __ZNSt3__116__back_ref_icaseIcNS_12regex_traitsIcEEED0Ev, symObjAddr: 0xD95C, symBinAddr: 0x2E940, symSize: 0x58 }
  - { offset: 0x172506, size: 0x8, addend: 0x0, symName: __ZNKSt3__116__back_ref_icaseIcNS_12regex_traitsIcEEE6__execERNS_7__stateIcEE, symObjAddr: 0xD9B4, symBinAddr: 0x2E998, symSize: 0xFC }
  - { offset: 0x17266D, size: 0x8, addend: 0x0, symName: __ZNSt3__118__back_ref_collateIcNS_12regex_traitsIcEEED1Ev, symObjAddr: 0xDAB0, symBinAddr: 0x2EA94, symSize: 0x58 }
  - { offset: 0x17271D, size: 0x8, addend: 0x0, symName: __ZNSt3__118__back_ref_collateIcNS_12regex_traitsIcEEED0Ev, symObjAddr: 0xDB08, symBinAddr: 0x2EAEC, symSize: 0x58 }
  - { offset: 0x1727D9, size: 0x8, addend: 0x0, symName: __ZNKSt3__118__back_ref_collateIcNS_12regex_traitsIcEEE6__execERNS_7__stateIcEE, symObjAddr: 0xDB60, symBinAddr: 0x2EB44, symSize: 0x8C }
  - { offset: 0x1728AA, size: 0x8, addend: 0x0, symName: __ZNSt3__110__back_refIcED1Ev, symObjAddr: 0xDBEC, symBinAddr: 0x2EBD0, symSize: 0x48 }
  - { offset: 0x1728CE, size: 0x8, addend: 0x0, symName: __ZNSt3__110__back_refIcED1Ev, symObjAddr: 0xDBEC, symBinAddr: 0x2EBD0, symSize: 0x48 }
  - { offset: 0x1728EC, size: 0x8, addend: 0x0, symName: __ZNSt3__110__back_refIcED1Ev, symObjAddr: 0xDBEC, symBinAddr: 0x2EBD0, symSize: 0x48 }
  - { offset: 0x172933, size: 0x8, addend: 0x0, symName: __ZNSt3__110__back_refIcED0Ev, symObjAddr: 0xDC34, symBinAddr: 0x2EC18, symSize: 0x48 }
  - { offset: 0x172963, size: 0x8, addend: 0x0, symName: __ZNSt3__110__back_refIcED0Ev, symObjAddr: 0xDC34, symBinAddr: 0x2EC18, symSize: 0x48 }
  - { offset: 0x172981, size: 0x8, addend: 0x0, symName: __ZNSt3__110__back_refIcED0Ev, symObjAddr: 0xDC34, symBinAddr: 0x2EC18, symSize: 0x48 }
  - { offset: 0x17299F, size: 0x8, addend: 0x0, symName: __ZNSt3__110__back_refIcED0Ev, symObjAddr: 0xDC34, symBinAddr: 0x2EC18, symSize: 0x48 }
  - { offset: 0x1729CA, size: 0x8, addend: 0x0, symName: __ZNKSt3__110__back_refIcE6__execERNS_7__stateIcEE, symObjAddr: 0xDC7C, symBinAddr: 0x2EC60, symSize: 0xD0 }
  - { offset: 0x172B42, size: 0x8, addend: 0x0, symName: __ZNSt3__120__bracket_expressionIcNS_12regex_traitsIcEEE10__add_charB8ne200100Ec, symObjAddr: 0xDD4C, symBinAddr: 0x2ED30, symSize: 0x18C }
  - { offset: 0x172DC3, size: 0x8, addend: 0x0, symName: __ZNSt3__16vectorIcNS_9allocatorIcEEE20__throw_length_errorB8ne200100Ev, symObjAddr: 0xF0D8, symBinAddr: 0x300A8, symSize: 0x14 }
  - { offset: 0x172DDB, size: 0x8, addend: 0x0, symName: __ZNSt3__119__throw_regex_errorB8ne200100ILNS_15regex_constants10error_typeE5EEEvv, symObjAddr: 0xF0EC, symBinAddr: 0x300BC, symSize: 0x4C }
  - { offset: 0x173041, size: 0x8, addend: 0x0, symName: __ZNSt3__16vectorINS_12basic_stringIcNS_11char_traitsIcEENS_9allocatorIcEEEENS4_IS6_EEED1B8ne200100Ev, symObjAddr: 0xE074, symBinAddr: 0x2F058, symSize: 0x70 }
  - { offset: 0x1732A1, size: 0x8, addend: 0x0, symName: __ZNSt3__16vectorINS_4pairINS_12basic_stringIcNS_11char_traitsIcEENS_9allocatorIcEEEES7_EENS5_IS8_EEED1B8ne200100Ev, symObjAddr: 0xE0E4, symBinAddr: 0x2F0C8, symSize: 0x94 }
  - { offset: 0x1738FD, size: 0x8, addend: 0x0, symName: __ZNSt3__120__bracket_expressionIcNS_12regex_traitsIcEEED1Ev, symObjAddr: 0xE178, symBinAddr: 0x2F15C, symSize: 0x4 }
  - { offset: 0x173920, size: 0x8, addend: 0x0, symName: __ZNSt3__120__bracket_expressionIcNS_12regex_traitsIcEEED1Ev, symObjAddr: 0xE178, symBinAddr: 0x2F15C, symSize: 0x4 }
  - { offset: 0x173933, size: 0x8, addend: 0x0, symName: __ZNSt3__120__bracket_expressionIcNS_12regex_traitsIcEEED2Ev, symObjAddr: 0xEA80, symBinAddr: 0x2FA50, symSize: 0x148 }
  - { offset: 0x174328, size: 0x8, addend: 0x0, symName: __ZNSt3__120__bracket_expressionIcNS_12regex_traitsIcEEED0Ev, symObjAddr: 0xE17C, symBinAddr: 0x2F160, symSize: 0x14 }
  - { offset: 0x174766, size: 0x8, addend: 0x0, symName: __ZNKSt3__120__bracket_expressionIcNS_12regex_traitsIcEEE6__execERNS_7__stateIcEE, symObjAddr: 0xE190, symBinAddr: 0x2F174, symSize: 0x884 }
  - { offset: 0x175F90, size: 0x8, addend: 0x0, symName: __ZNKSt3__112regex_traitsIcE20__lookup_collatenameIPcEENS_12basic_stringIcNS_11char_traitsIcEENS_9allocatorIcEEEET_SA_c, symObjAddr: 0xECFC, symBinAddr: 0x2FCCC, symSize: 0x23C }
  - { offset: 0x176A8B, size: 0x8, addend: 0x0, symName: __ZNKSt3__112regex_traitsIcE9transformIPcEENS_12basic_stringIcNS_11char_traitsIcEENS_9allocatorIcEEEET_SA_, symObjAddr: 0xEBC8, symBinAddr: 0x2FB98, symSize: 0x134 }
  - { offset: 0x177048, size: 0x8, addend: 0x0, symName: __ZNKSt3__112regex_traitsIcE19__transform_primaryIPcEENS_12basic_stringIcNS_11char_traitsIcEENS_9allocatorIcEEEET_SA_c, symObjAddr: 0xEF38, symBinAddr: 0x2FF08, symSize: 0x1A0 }
  - { offset: 0x177788, size: 0x8, addend: 0x0, symName: __ZNSt3__14pairINS_12basic_stringIcNS_11char_traitsIcEENS_9allocatorIcEEEES6_ED1Ev, symObjAddr: 0xEA28, symBinAddr: 0x2F9F8, symSize: 0x58 }
  - { offset: 0x177A87, size: 0x8, addend: 0x0, symName: __ZNSt3__111basic_regexIcNS_12regex_traitsIcEEE25__parse_equivalence_classINS_11__wrap_iterIPKcEEEET_S9_S9_PNS_20__bracket_expressionIcS2_EE, symObjAddr: 0xF58C, symBinAddr: 0x3055C, symSize: 0x28C }
  - { offset: 0x1784C0, size: 0x8, addend: 0x0, symName: __ZNSt3__111basic_regexIcNS_12regex_traitsIcEEE18__parse_awk_escapeINS_11__wrap_iterIPKcEEEET_S9_S9_PNS_12basic_stringIcNS_11char_traitsIcEENS_9allocatorIcEEEE, symObjAddr: 0xFB2C, symBinAddr: 0x30AFC, symSize: 0x2F8 }
  - { offset: 0x17869D, size: 0x8, addend: 0x0, symName: __ZNSt3__120__bracket_expressionIcNS_12regex_traitsIcEEE11__add_rangeB8ne200100ENS_12basic_stringIcNS_11char_traitsIcEENS_9allocatorIcEEEES9_, symObjAddr: 0xFE24, symBinAddr: 0x30DF4, symSize: 0x438 }
  - { offset: 0x1786B1, size: 0x8, addend: 0x0, symName: __ZNSt3__111basic_regexIcNS_12regex_traitsIcEEE24__parse_collating_symbolINS_11__wrap_iterIPKcEEEET_S9_S9_RNS_12basic_stringIcNS_11char_traitsIcEENS_9allocatorIcEEEE, symObjAddr: 0xF8C4, symBinAddr: 0x30894, symSize: 0xE0 }
  - { offset: 0x1789FC, size: 0x8, addend: 0x0, symName: __ZNSt3__111basic_regexIcNS_12regex_traitsIcEEE20__parse_class_escapeINS_11__wrap_iterIPKcEEEET_S9_S9_RNS_12basic_stringIcNS_11char_traitsIcEENS_9allocatorIcEEEEPNS_20__bracket_expressionIcS2_EE, symObjAddr: 0xF9A4, symBinAddr: 0x30974, symSize: 0x188 }
  - { offset: 0x178A10, size: 0x8, addend: 0x0, symName: __ZNSt3__111basic_regexIcNS_12regex_traitsIcEEE23__parse_character_classINS_11__wrap_iterIPKcEEEET_S9_S9_PNS_20__bracket_expressionIcS2_EE, symObjAddr: 0xF818, symBinAddr: 0x307E8, symSize: 0xAC }
  - { offset: 0x178C66, size: 0x8, addend: 0x0, symName: __ZNSt3__111basic_regexIcNS_12regex_traitsIcEEE24__parse_collating_symbolINS_11__wrap_iterIPKcEEEET_S9_S9_RNS_12basic_stringIcNS_11char_traitsIcEENS_9allocatorIcEEEE, symObjAddr: 0xF8C4, symBinAddr: 0x30894, symSize: 0xE0 }
  - { offset: 0x178C86, size: 0x8, addend: 0x0, symName: __ZNSt3__120__bracket_expressionIcNS_12regex_traitsIcEEE13__add_digraphB8ne200100Ecc, symObjAddr: 0x1025C, symBinAddr: 0x3122C, symSize: 0x220 }
  - { offset: 0x179753, size: 0x8, addend: 0x0, symName: __ZNSt3__119__throw_regex_errorB8ne200100ILNS_15regex_constants10error_typeE1EEEvv, symObjAddr: 0x1047C, symBinAddr: 0x3144C, symSize: 0x4C }
  - { offset: 0x17975E, size: 0x8, addend: 0x0, symName: __ZNSt3__111basic_regexIcNS_12regex_traitsIcEEE20__parse_class_escapeINS_11__wrap_iterIPKcEEEET_S9_S9_RNS_12basic_stringIcNS_11char_traitsIcEENS_9allocatorIcEEEEPNS_20__bracket_expressionIcS2_EE, symObjAddr: 0xF9A4, symBinAddr: 0x30974, symSize: 0x188 }
  - { offset: 0x179932, size: 0x8, addend: 0x0, symName: __ZNSt3__111basic_regexIcNS_12regex_traitsIcEEE18__parse_awk_escapeINS_11__wrap_iterIPKcEEEET_S9_S9_PNS_12basic_stringIcNS_11char_traitsIcEENS_9allocatorIcEEEE, symObjAddr: 0xFB2C, symBinAddr: 0x30AFC, symSize: 0x2F8 }
  - { offset: 0x179946, size: 0x8, addend: 0x0, symName: __ZNSt3__120__bracket_expressionIcNS_12regex_traitsIcEEE11__add_rangeB8ne200100ENS_12basic_stringIcNS_11char_traitsIcEENS_9allocatorIcEEEES9_, symObjAddr: 0xFE24, symBinAddr: 0x30DF4, symSize: 0x438 }
  - { offset: 0x17AD3D, size: 0x8, addend: 0x0, symName: __ZNKSt3__112regex_traitsIcE20__lookup_collatenameINS_11__wrap_iterIPKcEEEENS_12basic_stringIcNS_11char_traitsIcEENS_9allocatorIcEEEET_SD_c, symObjAddr: 0x104C8, symBinAddr: 0x31498, symSize: 0x23C }
  - { offset: 0x17B84D, size: 0x8, addend: 0x0, symName: __ZNKSt3__112regex_traitsIcE19__transform_primaryINS_11__wrap_iterIPcEEEENS_12basic_stringIcNS_11char_traitsIcEENS_9allocatorIcEEEET_SC_c, symObjAddr: 0x10704, symBinAddr: 0x316D4, symSize: 0x1A0 }
  - { offset: 0x17BFA2, size: 0x8, addend: 0x0, symName: __ZNSt3__16vectorINS_12basic_stringIcNS_11char_traitsIcEENS_9allocatorIcEEEENS4_IS6_EEE24__emplace_back_slow_pathIJRKS6_EEEPS6_DpOT_, symObjAddr: 0x108A4, symBinAddr: 0x31874, symSize: 0x150 }
  - { offset: 0x17C40E, size: 0x8, addend: 0x0, symName: __ZNKSt3__112regex_traitsIcE18__lookup_classnameINS_11__wrap_iterIPKcEEEEjT_S7_bc, symObjAddr: 0x10AB8, symBinAddr: 0x31A88, symSize: 0x154 }
  - { offset: 0x17CADB, size: 0x8, addend: 0x0, symName: __ZNSt3__120__bracket_expressionIcNS_12regex_traitsIcEEE14__add_neg_charB8ne200100Ec, symObjAddr: 0x10C0C, symBinAddr: 0x31BDC, symSize: 0x18C }
  - { offset: 0x17CE0D, size: 0x8, addend: 0x0, symName: __ZNSt3__16vectorINS_4pairINS_12basic_stringIcNS_11char_traitsIcEENS_9allocatorIcEEEES7_EENS5_IS8_EEE9push_backB8ne200100EOS8_, symObjAddr: 0x10D98, symBinAddr: 0x31D68, symSize: 0x174 }
  - { offset: 0x17CED1, size: 0x8, addend: 0x0, symName: __ZNKSt3__112regex_traitsIcE9transformINS_11__wrap_iterIPcEEEENS_12basic_stringIcNS_11char_traitsIcEENS_9allocatorIcEEEET_SC_, symObjAddr: 0x10F0C, symBinAddr: 0x31EDC, symSize: 0x134 }
  - { offset: 0x17D4C7, size: 0x8, addend: 0x0, symName: __ZNSt3__16vectorINS_4pairINS_12basic_stringIcNS_11char_traitsIcEENS_9allocatorIcEEEES7_EENS5_IS8_EEE9push_backB8ne200100EOS8_, symObjAddr: 0x10D98, symBinAddr: 0x31D68, symSize: 0x174 }
  - { offset: 0x17DA54, size: 0x8, addend: 0x0, symName: __ZNKSt3__112regex_traitsIcE9transformINS_11__wrap_iterIPcEEEENS_12basic_stringIcNS_11char_traitsIcEENS_9allocatorIcEEEET_SC_, symObjAddr: 0x10F0C, symBinAddr: 0x31EDC, symSize: 0x134 }
  - { offset: 0x17DD58, size: 0x8, addend: 0x0, symName: __ZNSt3__16vectorINS_4pairIccEENS_9allocatorIS2_EEE20__throw_length_errorB8ne200100Ev, symObjAddr: 0x110A0, symBinAddr: 0x32070, symSize: 0x14 }
  - { offset: 0x17DD70, size: 0x8, addend: 0x0, symName: __ZNSt3__128__begin_marked_subexpressionIcED1Ev, symObjAddr: 0x110B4, symBinAddr: 0x32084, symSize: 0x48 }
  - { offset: 0x17E1EC, size: 0x8, addend: 0x0, symName: __ZNSt3__16vectorINS_12basic_stringIcNS_11char_traitsIcEENS_9allocatorIcEEEENS4_IS6_EEE20__throw_length_errorB8ne200100Ev, symObjAddr: 0x10A58, symBinAddr: 0x31A28, symSize: 0x14 }
  - { offset: 0x17E204, size: 0x8, addend: 0x0, symName: __ZNSt3__119__throw_regex_errorB8ne200100ILNS_15regex_constants10error_typeE2EEEvv, symObjAddr: 0x10A6C, symBinAddr: 0x31A3C, symSize: 0x4C }
  - { offset: 0x17E20F, size: 0x8, addend: 0x0, symName: __ZNSt3__114__split_bufferINS_12basic_stringIcNS_11char_traitsIcEENS_9allocatorIcEEEERNS4_IS6_EEED1Ev, symObjAddr: 0x109F4, symBinAddr: 0x319C4, symSize: 0x64 }
  - { offset: 0x17E7A8, size: 0x8, addend: 0x0, symName: __ZNSt3__16vectorINS_4pairINS_12basic_stringIcNS_11char_traitsIcEENS_9allocatorIcEEEES7_EENS5_IS8_EEE20__throw_length_errorB8ne200100Ev, symObjAddr: 0x1108C, symBinAddr: 0x3205C, symSize: 0x14 }
  - { offset: 0x17E7C0, size: 0x8, addend: 0x0, symName: __ZNSt3__16vectorINS_4pairIccEENS_9allocatorIS2_EEE20__throw_length_errorB8ne200100Ev, symObjAddr: 0x110A0, symBinAddr: 0x32070, symSize: 0x14 }
  - { offset: 0x17E7E8, size: 0x8, addend: 0x0, symName: __ZNSt3__128__begin_marked_subexpressionIcED1Ev, symObjAddr: 0x110B4, symBinAddr: 0x32084, symSize: 0x48 }
  - { offset: 0x17E80C, size: 0x8, addend: 0x0, symName: __ZNSt3__128__begin_marked_subexpressionIcED1Ev, symObjAddr: 0x110B4, symBinAddr: 0x32084, symSize: 0x48 }
  - { offset: 0x17E82A, size: 0x8, addend: 0x0, symName: __ZNSt3__128__begin_marked_subexpressionIcED1Ev, symObjAddr: 0x110B4, symBinAddr: 0x32084, symSize: 0x48 }
  - { offset: 0x17E871, size: 0x8, addend: 0x0, symName: __ZNSt3__128__begin_marked_subexpressionIcED0Ev, symObjAddr: 0x110FC, symBinAddr: 0x320CC, symSize: 0x48 }
  - { offset: 0x17E8A1, size: 0x8, addend: 0x0, symName: __ZNSt3__128__begin_marked_subexpressionIcED0Ev, symObjAddr: 0x110FC, symBinAddr: 0x320CC, symSize: 0x48 }
  - { offset: 0x17E8BF, size: 0x8, addend: 0x0, symName: __ZNSt3__128__begin_marked_subexpressionIcED0Ev, symObjAddr: 0x110FC, symBinAddr: 0x320CC, symSize: 0x48 }
  - { offset: 0x17E8DD, size: 0x8, addend: 0x0, symName: __ZNSt3__128__begin_marked_subexpressionIcED0Ev, symObjAddr: 0x110FC, symBinAddr: 0x320CC, symSize: 0x48 }
  - { offset: 0x17E908, size: 0x8, addend: 0x0, symName: __ZNKSt3__128__begin_marked_subexpressionIcE6__execERNS_7__stateIcEE, symObjAddr: 0x11144, symBinAddr: 0x32114, symSize: 0x30 }
  - { offset: 0x17E994, size: 0x8, addend: 0x0, symName: __ZNSt3__126__end_marked_subexpressionIcED1Ev, symObjAddr: 0x11174, symBinAddr: 0x32144, symSize: 0x48 }
  - { offset: 0x17E9B8, size: 0x8, addend: 0x0, symName: __ZNSt3__126__end_marked_subexpressionIcED1Ev, symObjAddr: 0x11174, symBinAddr: 0x32144, symSize: 0x48 }
  - { offset: 0x17E9D6, size: 0x8, addend: 0x0, symName: __ZNSt3__126__end_marked_subexpressionIcED1Ev, symObjAddr: 0x11174, symBinAddr: 0x32144, symSize: 0x48 }
  - { offset: 0x17EA1D, size: 0x8, addend: 0x0, symName: __ZNSt3__126__end_marked_subexpressionIcED0Ev, symObjAddr: 0x111BC, symBinAddr: 0x3218C, symSize: 0x48 }
  - { offset: 0x17EA4D, size: 0x8, addend: 0x0, symName: __ZNSt3__126__end_marked_subexpressionIcED0Ev, symObjAddr: 0x111BC, symBinAddr: 0x3218C, symSize: 0x48 }
  - { offset: 0x17EA6B, size: 0x8, addend: 0x0, symName: __ZNSt3__126__end_marked_subexpressionIcED0Ev, symObjAddr: 0x111BC, symBinAddr: 0x3218C, symSize: 0x48 }
  - { offset: 0x17EA89, size: 0x8, addend: 0x0, symName: __ZNSt3__126__end_marked_subexpressionIcED0Ev, symObjAddr: 0x111BC, symBinAddr: 0x3218C, symSize: 0x48 }
  - { offset: 0x17EAB4, size: 0x8, addend: 0x0, symName: __ZNKSt3__126__end_marked_subexpressionIcE6__execERNS_7__stateIcEE, symObjAddr: 0x11204, symBinAddr: 0x321D4, symSize: 0x38 }
  - { offset: 0x17ED5F, size: 0x8, addend: 0x0, symName: __ZNSt3__16__loopIcED0Ev, symObjAddr: 0x11478, symBinAddr: 0x32448, symSize: 0x68 }
  - { offset: 0x17EE50, size: 0x8, addend: 0x0, symName: __ZNSt3__16__loopIcED1Ev, symObjAddr: 0x11410, symBinAddr: 0x323E0, symSize: 0x68 }
  - { offset: 0x17EF70, size: 0x8, addend: 0x0, symName: __ZNKSt3__16__loopIcE6__execERNS_7__stateIcEE, symObjAddr: 0x114E0, symBinAddr: 0x324B0, symSize: 0x1F8 }
  - { offset: 0x17F0A3, size: 0x8, addend: 0x0, symName: __ZNKSt3__16__loopIcE12__exec_splitEbRNS_7__stateIcEE, symObjAddr: 0x116D8, symBinAddr: 0x326A8, symSize: 0xD8 }
  - { offset: 0x17F174, size: 0x8, addend: 0x0, symName: __ZNSt3__117__owns_two_statesIcED1Ev, symObjAddr: 0x117B0, symBinAddr: 0x32780, symSize: 0x68 }
  - { offset: 0x17F202, size: 0x8, addend: 0x0, symName: __ZNSt3__117__owns_two_statesIcED0Ev, symObjAddr: 0x11818, symBinAddr: 0x327E8, symSize: 0x68 }
  - { offset: 0x17F29C, size: 0x8, addend: 0x0, symName: __ZNSt3__117__repeat_one_loopIcED1Ev, symObjAddr: 0x11880, symBinAddr: 0x32850, symSize: 0x4 }
  - { offset: 0x17F2C8, size: 0x8, addend: 0x0, symName: __ZNSt3__117__repeat_one_loopIcED0Ev, symObjAddr: 0x11884, symBinAddr: 0x32854, symSize: 0x4 }
  - { offset: 0x17F2F4, size: 0x8, addend: 0x0, symName: __ZNKSt3__117__repeat_one_loopIcE6__execERNS_7__stateIcEE, symObjAddr: 0x11888, symBinAddr: 0x32858, symSize: 0x14 }
  - { offset: 0x17F361, size: 0x8, addend: 0x0, symName: __ZNSt3__111__alternateIcED1Ev, symObjAddr: 0x1189C, symBinAddr: 0x3286C, symSize: 0x68 }
  - { offset: 0x17F40F, size: 0x8, addend: 0x0, symName: __ZNSt3__111__alternateIcED0Ev, symObjAddr: 0x11904, symBinAddr: 0x328D4, symSize: 0x68 }
  - { offset: 0x17F4C9, size: 0x8, addend: 0x0, symName: __ZNKSt3__111__alternateIcE6__execERNS_7__stateIcEE, symObjAddr: 0x1196C, symBinAddr: 0x3293C, symSize: 0xC }
  - { offset: 0x17F4FC, size: 0x8, addend: 0x0, symName: __ZNKSt3__111__alternateIcE12__exec_splitEbRNS_7__stateIcEE, symObjAddr: 0x11978, symBinAddr: 0x32948, symSize: 0x24 }
  - { offset: 0x17F542, size: 0x8, addend: 0x0, symName: __ZNSt3__121__empty_non_own_stateIcED1Ev, symObjAddr: 0x1199C, symBinAddr: 0x3296C, symSize: 0x4 }
  - { offset: 0x17F56E, size: 0x8, addend: 0x0, symName: __ZNSt3__121__empty_non_own_stateIcED0Ev, symObjAddr: 0x119A0, symBinAddr: 0x32970, symSize: 0x4 }
  - { offset: 0x17F59A, size: 0x8, addend: 0x0, symName: __ZNKSt3__121__empty_non_own_stateIcE6__execERNS_7__stateIcEE, symObjAddr: 0x119A4, symBinAddr: 0x32974, symSize: 0x14 }
  - { offset: 0x17F6E9, size: 0x8, addend: 0x0, symName: __ZNSt3__111basic_regexIcNS_12regex_traitsIcEEE32__parse_one_char_or_coll_elem_REINS_11__wrap_iterIPKcEEEET_S9_S9_, symObjAddr: 0x11E84, symBinAddr: 0x32E54, symSize: 0x18C }
  - { offset: 0x17FA74, size: 0x8, addend: 0x0, symName: __ZNSt3__111__match_anyIcED1Ev, symObjAddr: 0x12010, symBinAddr: 0x32FE0, symSize: 0x48 }
  - { offset: 0x17FA98, size: 0x8, addend: 0x0, symName: __ZNSt3__111__match_anyIcED1Ev, symObjAddr: 0x12010, symBinAddr: 0x32FE0, symSize: 0x48 }
  - { offset: 0x17FAB6, size: 0x8, addend: 0x0, symName: __ZNSt3__111__match_anyIcED1Ev, symObjAddr: 0x12010, symBinAddr: 0x32FE0, symSize: 0x48 }
  - { offset: 0x17FAFD, size: 0x8, addend: 0x0, symName: __ZNSt3__111__match_anyIcED0Ev, symObjAddr: 0x12058, symBinAddr: 0x33028, symSize: 0x48 }
  - { offset: 0x17FB2D, size: 0x8, addend: 0x0, symName: __ZNSt3__111__match_anyIcED0Ev, symObjAddr: 0x12058, symBinAddr: 0x33028, symSize: 0x48 }
  - { offset: 0x17FB4B, size: 0x8, addend: 0x0, symName: __ZNSt3__111__match_anyIcED0Ev, symObjAddr: 0x12058, symBinAddr: 0x33028, symSize: 0x48 }
  - { offset: 0x17FB69, size: 0x8, addend: 0x0, symName: __ZNSt3__111__match_anyIcED0Ev, symObjAddr: 0x12058, symBinAddr: 0x33028, symSize: 0x48 }
  - { offset: 0x17FB94, size: 0x8, addend: 0x0, symName: __ZNKSt3__111__match_anyIcE6__execERNS_7__stateIcEE, symObjAddr: 0x120A0, symBinAddr: 0x33070, symSize: 0x40 }
  - { offset: 0x17FBE4, size: 0x8, addend: 0x0, symName: __ZNSt3__111basic_regexIcNS_12regex_traitsIcEEE15__test_back_refEc, symObjAddr: 0x120E0, symBinAddr: 0x330B0, symSize: 0x60 }
  - { offset: 0x17FCDD, size: 0x8, addend: 0x0, symName: __ZNSt3__111basic_regexIcNS_12regex_traitsIcEEE22__parse_ERE_expressionINS_11__wrap_iterIPKcEEEET_S9_S9_, symObjAddr: 0x12140, symBinAddr: 0x33110, symSize: 0x1F0 }
  - { offset: 0x17FCE8, size: 0x8, addend: 0x0, symName: __ZNSt3__111basic_regexIcNS_12regex_traitsIcEEE33__parse_one_char_or_coll_elem_EREINS_11__wrap_iterIPKcEEEET_S9_S9_, symObjAddr: 0x12330, symBinAddr: 0x33300, symSize: 0x158 }
  - { offset: 0x17FF04, size: 0x8, addend: 0x0, symName: __ZNSt3__111basic_regexIcNS_12regex_traitsIcEEE23__parse_QUOTED_CHAR_EREINS_11__wrap_iterIPKcEEEET_S9_S9_, symObjAddr: 0x12488, symBinAddr: 0x33458, symSize: 0xC8 }
  - { offset: 0x180094, size: 0x8, addend: 0x0, symName: __ZNSt3__128__exception_guard_exceptionsINS_29_AllocatorDestroyRangeReverseINS_9allocatorINS_6vectorI21llama_grammar_elementNS2_IS4_EEEEEEPS6_EEED1B8ne200100Ev, symObjAddr: 0x126D0, symBinAddr: 0x33618, symSize: 0x6C }
  - { offset: 0x180330, size: 0x8, addend: 0x0, symName: __ZNSt3__128__exception_guard_exceptionsINS_29_AllocatorDestroyRangeReverseINS_9allocatorINS_6vectorIPK21llama_grammar_elementNS2_IS6_EEEEEEPS8_EEED1B8ne200100Ev, symObjAddr: 0x128B8, symBinAddr: 0x33800, symSize: 0x6C }
  - { offset: 0x180729, size: 0x8, addend: 0x0, symName: __ZNKSt3__111basic_regexIcNS_12regex_traitsIcEEE27__match_at_start_posix_subsINS_9allocatorINS_9sub_matchIPKcEEEEEEbS8_S8_RNS_13match_resultsIS8_T_EENS_15regex_constants15match_flag_typeEb, symObjAddr: 0x13830, symBinAddr: 0x34778, symSize: 0x5AC }
  - { offset: 0x1823D3, size: 0x8, addend: 0x0, symName: __ZNKSt3__111basic_regexIcNS_12regex_traitsIcEEE29__match_at_start_posix_nosubsINS_9allocatorINS_9sub_matchIPKcEEEEEEbS8_S8_RNS_13match_resultsIS8_T_EENS_15regex_constants15match_flag_typeEb, symObjAddr: 0x12F80, symBinAddr: 0x33EC8, symSize: 0x8B0 }
  - { offset: 0x18415A, size: 0x8, addend: 0x0, symName: __ZNSt3__16vectorINS_9sub_matchINS_11__wrap_iterIPKcEEEENS_9allocatorIS6_EEE8__appendEm, symObjAddr: 0x1515C, symBinAddr: 0x360A4, symSize: 0x1A0 }
  - { offset: 0x18468F, size: 0x8, addend: 0x0, symName: __ZNSt3__16vectorINS_9sub_matchINS_11__wrap_iterIPKcEEEENS_9allocatorIS6_EEE20__throw_length_errorB8ne200100Ev, symObjAddr: 0x152FC, symBinAddr: 0x36244, symSize: 0x14 }
  - { offset: 0x184AEF, size: 0x8, addend: 0x0, symName: __ZNSt3__15dequeINS_7__stateIcEENS_9allocatorIS2_EEE19__add_back_capacityEv, symObjAddr: 0x13FAC, symBinAddr: 0x34EF4, symSize: 0x338 }
  - { offset: 0x18574E, size: 0x8, addend: 0x0, symName: __ZNSt3__15dequeINS_7__stateIcEENS_9allocatorIS2_EEE20__add_front_capacityEv, symObjAddr: 0x14764, symBinAddr: 0x356AC, symSize: 0x374 }
  - { offset: 0x1864B0, size: 0x8, addend: 0x0, symName: __ZNSt3__15dequeINS_7__stateIcEENS_9allocatorIS2_EEED1B8ne200100Ev, symObjAddr: 0x13F38, symBinAddr: 0x34E80, symSize: 0x74 }
  - { offset: 0x1867F4, size: 0x8, addend: 0x0, symName: __ZNSt3__16vectorINS_9sub_matchIPKcEENS_9allocatorIS4_EEE18__assign_with_sizeB8ne200100IPS4_S9_EEvT_T0_l, symObjAddr: 0x14C60, symBinAddr: 0x35BA8, symSize: 0x200 }
  - { offset: 0x186F75, size: 0x8, addend: 0x0, symName: __ZNSt3__16vectorINS_4pairImPKcEENS_9allocatorIS4_EEE18__assign_with_sizeB8ne200100IPS4_S9_EEvT_T0_l, symObjAddr: 0x14E60, symBinAddr: 0x35DA8, symSize: 0x2FC }
  - { offset: 0x186F92, size: 0x8, addend: 0x0, symName: __ZNSt3__16vectorINS_4pairImPKcEENS_9allocatorIS4_EEE18__assign_with_sizeB8ne200100IPS4_S9_EEvT_T0_l, symObjAddr: 0x14E60, symBinAddr: 0x35DA8, symSize: 0x2FC }
  - { offset: 0x1876D9, size: 0x8, addend: 0x0, symName: __ZNSt3__16vectorINS_9sub_matchINS_11__wrap_iterIPKcEEEENS_9allocatorIS6_EEE8__appendEm, symObjAddr: 0x1515C, symBinAddr: 0x360A4, symSize: 0x1A0 }
  - { offset: 0x18770C, size: 0x8, addend: 0x0, symName: __ZNSt3__15dequeINS_7__stateIcEENS_9allocatorIS2_EEE5clearEv, symObjAddr: 0x13DDC, symBinAddr: 0x34D24, symSize: 0x15C }
  - { offset: 0x188087, size: 0x8, addend: 0x0, symName: __ZNSt3__114__split_bufferIPNS_7__stateIcEENS_9allocatorIS3_EEE12emplace_backIJRS3_EEEvDpOT_, symObjAddr: 0x142E4, symBinAddr: 0x3522C, symSize: 0x17C }
  - { offset: 0x1884F6, size: 0x8, addend: 0x0, symName: __ZNSt3__114__split_bufferIPNS_7__stateIcEENS_9allocatorIS3_EEE12emplace_backIJS3_EEEvDpOT_, symObjAddr: 0x14460, symBinAddr: 0x353A8, symSize: 0x17C }
  - { offset: 0x18850C, size: 0x8, addend: 0x0, symName: __ZNSt3__114__split_bufferIPNS_7__stateIcEENS_9allocatorIS3_EEE12emplace_backIJS3_EEEvDpOT_, symObjAddr: 0x14460, symBinAddr: 0x353A8, symSize: 0x17C }
  - { offset: 0x18897B, size: 0x8, addend: 0x0, symName: __ZNSt3__114__split_bufferIPNS_7__stateIcEENS_9allocatorIS3_EEE13emplace_frontIJS3_EEEvDpOT_, symObjAddr: 0x145DC, symBinAddr: 0x35524, symSize: 0x188 }
  - { offset: 0x188991, size: 0x8, addend: 0x0, symName: __ZNSt3__114__split_bufferIPNS_7__stateIcEENS_9allocatorIS3_EEE13emplace_frontIJS3_EEEvDpOT_, symObjAddr: 0x145DC, symBinAddr: 0x35524, symSize: 0x188 }
  - { offset: 0x188E22, size: 0x8, addend: 0x0, symName: __ZNSt3__15dequeINS_7__stateIcEENS_9allocatorIS2_EEE20__add_front_capacityEv, symObjAddr: 0x14764, symBinAddr: 0x356AC, symSize: 0x374 }
  - { offset: 0x188F00, size: 0x8, addend: 0x0, symName: __ZNSt3__114__split_bufferIPNS_7__stateIcEENS_9allocatorIS3_EEE13emplace_frontIJRS3_EEEvDpOT_, symObjAddr: 0x14AD8, symBinAddr: 0x35A20, symSize: 0x188 }
  - { offset: 0x189391, size: 0x8, addend: 0x0, symName: __ZNSt3__16vectorINS_9sub_matchIPKcEENS_9allocatorIS4_EEE18__assign_with_sizeB8ne200100IPS4_S9_EEvT_T0_l, symObjAddr: 0x14C60, symBinAddr: 0x35BA8, symSize: 0x200 }
  - { offset: 0x18981D, size: 0x8, addend: 0x0, symName: __ZNSt3__16vectorINS_9sub_matchINS_11__wrap_iterIPKcEEEENS_9allocatorIS6_EEE20__throw_length_errorB8ne200100Ev, symObjAddr: 0x152FC, symBinAddr: 0x36244, symSize: 0x14 }
  - { offset: 0x1AC986, size: 0x8, addend: 0x0, symName: __ZNSt3__125__throw_bad_function_callB8ne200100Ev, symObjAddr: 0x7920, symBinAddr: 0x3D9F4, symSize: 0x34 }
  - { offset: 0x1B3F76, size: 0x8, addend: 0x0, symName: __ZN20llm_graph_input_embd9set_inputEPK12llama_ubatch, symObjAddr: 0x0, symBinAddr: 0x36258, symSize: 0xA0 }
  - { offset: 0x1B4090, size: 0x8, addend: 0x0, symName: __ZN20llm_graph_input_embd9can_reuseERK16llm_graph_params, symObjAddr: 0xA0, symBinAddr: 0x362F8, symSize: 0x50 }
  - { offset: 0x1B4319, size: 0x8, addend: 0x0, symName: __ZN19llm_graph_input_pos9set_inputEPK12llama_ubatch, symObjAddr: 0xF0, symBinAddr: 0x36348, symSize: 0x270 }
  - { offset: 0x1B46D0, size: 0x8, addend: 0x0, symName: __ZN19llm_graph_input_pos9can_reuseERK16llm_graph_params, symObjAddr: 0x360, symBinAddr: 0x365B8, symSize: 0x18 }
  - { offset: 0x1B4983, size: 0x8, addend: 0x0, symName: __ZN25llm_graph_input_attn_temp9set_inputEPK12llama_ubatch, symObjAddr: 0x378, symBinAddr: 0x365D0, symSize: 0x21C }
  - { offset: 0x1B4DC9, size: 0x8, addend: 0x0, symName: __ZN26llm_graph_input_pos_bucket9set_inputEPK12llama_ubatch, symObjAddr: 0x594, symBinAddr: 0x367EC, symSize: 0x3E0 }
  - { offset: 0x1B4F1D, size: 0x8, addend: 0x0, symName: __Z30llama_relative_position_bucketiiyb, symObjAddr: 0x974, symBinAddr: 0x36BCC, symSize: 0xAC }
  - { offset: 0x1B4F66, size: 0x8, addend: 0x0, symName: __Z30llama_relative_position_bucketiiyb, symObjAddr: 0x974, symBinAddr: 0x36BCC, symSize: 0xAC }
  - { offset: 0x1B4FC8, size: 0x8, addend: 0x0, symName: __ZN29llm_graph_input_pos_bucket_kv9set_inputEPK12llama_ubatch, symObjAddr: 0xA20, symBinAddr: 0x36C78, symSize: 0x18 }
  - { offset: 0x1B5000, size: 0x8, addend: 0x0, symName: __ZN23llm_graph_input_out_ids9set_inputEPK12llama_ubatch, symObjAddr: 0xA38, symBinAddr: 0x36C90, symSize: 0x2A0 }
  - { offset: 0x1B50C7, size: 0x8, addend: 0x0, symName: __ZN23llm_graph_input_out_ids9can_reuseERK16llm_graph_params, symObjAddr: 0xCD8, symBinAddr: 0x36F30, symSize: 0x14 }
  - { offset: 0x1B50D9, size: 0x8, addend: 0x0, symName: __ZN23llm_graph_input_out_ids9can_reuseERK16llm_graph_params, symObjAddr: 0xCD8, symBinAddr: 0x36F30, symSize: 0x14 }
  - { offset: 0x1B538C, size: 0x8, addend: 0x0, symName: __ZN20llm_graph_input_mean9set_inputEPK12llama_ubatch, symObjAddr: 0xCEC, symBinAddr: 0x36F44, symSize: 0x590 }
  - { offset: 0x1B5B9B, size: 0x8, addend: 0x0, symName: __ZN19llm_graph_input_cls9set_inputEPK12llama_ubatch, symObjAddr: 0x127C, symBinAddr: 0x374D4, symSize: 0x334 }
  - { offset: 0x1B61C2, size: 0x8, addend: 0x0, symName: __ZN18llm_graph_input_rs9set_inputEPK12llama_ubatch, symObjAddr: 0x15B0, symBinAddr: 0x37808, symSize: 0xA0 }
  - { offset: 0x1B6242, size: 0x8, addend: 0x0, symName: __ZN26llm_graph_input_cross_embd9set_inputEPK12llama_ubatch, symObjAddr: 0x1650, symBinAddr: 0x378A8, symSize: 0x54 }
  - { offset: 0x1B6270, size: 0x8, addend: 0x0, symName: __ZN26llm_graph_input_cross_embd9set_inputEPK12llama_ubatch, symObjAddr: 0x1650, symBinAddr: 0x378A8, symSize: 0x54 }
  - { offset: 0x1B62FD, size: 0x8, addend: 0x0, symName: __ZN29llm_graph_input_attn_no_cache9set_inputEPK12llama_ubatch, symObjAddr: 0x16A4, symBinAddr: 0x378FC, symSize: 0x588 }
  - { offset: 0x1B6442, size: 0x8, addend: 0x0, symName: __ZN23llm_graph_input_attn_kv9set_inputEPK12llama_ubatch, symObjAddr: 0x1C2C, symBinAddr: 0x37E84, symSize: 0x54 }
  - { offset: 0x1B6455, size: 0x8, addend: 0x0, symName: __ZN23llm_graph_input_attn_kv9set_inputEPK12llama_ubatch, symObjAddr: 0x1C2C, symBinAddr: 0x37E84, symSize: 0x54 }
  - { offset: 0x1B648F, size: 0x8, addend: 0x0, symName: __ZN23llm_graph_input_attn_kv9can_reuseERK16llm_graph_params, symObjAddr: 0x1C80, symBinAddr: 0x37ED8, symSize: 0x90 }
  - { offset: 0x1B64E9, size: 0x8, addend: 0x0, symName: __ZN28llm_graph_input_attn_kv_iswa9set_inputEPK12llama_ubatch, symObjAddr: 0x1D10, symBinAddr: 0x37F68, symSize: 0xA8 }
  - { offset: 0x1B6523, size: 0x8, addend: 0x0, symName: __ZN28llm_graph_input_attn_kv_iswa9can_reuseERK16llm_graph_params, symObjAddr: 0x1DB8, symBinAddr: 0x38010, symSize: 0xF4 }
  - { offset: 0x1B6651, size: 0x8, addend: 0x0, symName: __ZN26llm_graph_input_attn_cross9set_inputEPK12llama_ubatch, symObjAddr: 0x1EAC, symBinAddr: 0x38104, symSize: 0x230 }
  - { offset: 0x1B68C7, size: 0x8, addend: 0x0, symName: __ZN26llm_graph_input_mem_hybrid9set_inputEPK12llama_ubatch, symObjAddr: 0x20DC, symBinAddr: 0x38334, symSize: 0x40 }
  - { offset: 0x1B6910, size: 0x8, addend: 0x0, symName: __ZN26llm_graph_input_mem_hybrid9set_inputEPK12llama_ubatch, symObjAddr: 0x20DC, symBinAddr: 0x38334, symSize: 0x40 }
  - { offset: 0x1B6C17, size: 0x8, addend: 0x0, symName: __ZN16llm_graph_resultC2Ex, symObjAddr: 0x211C, symBinAddr: 0x38374, symSize: 0x198 }
  - { offset: 0x1B6F3D, size: 0x8, addend: 0x0, symName: __ZN16llm_graph_result5resetEv, symObjAddr: 0x22B4, symBinAddr: 0x3850C, symSize: 0x568 }
  - { offset: 0x1B7AB1, size: 0x8, addend: 0x0, symName: __ZNSt3__16vectorINS_10unique_ptrI17llm_graph_input_iNS_14default_deleteIS2_EEEENS_9allocatorIS5_EEED1B8ne200100Ev, symObjAddr: 0x28E0, symBinAddr: 0x38A74, symSize: 0x74 }
  - { offset: 0x1B8574, size: 0x8, addend: 0x0, symName: __ZNSt3__16vectorINS_10unique_ptrI17llm_graph_input_iNS_14default_deleteIS2_EEEENS_9allocatorIS5_EEE20__throw_length_errorB8ne200100Ev, symObjAddr: 0x790C, symBinAddr: 0x3D9E0, symSize: 0x14 }
  - { offset: 0x1B8663, size: 0x8, addend: 0x0, symName: __ZN16llm_graph_resultC1Ex, symObjAddr: 0x2954, symBinAddr: 0x38AE8, symSize: 0x4 }
  - { offset: 0x1B86A0, size: 0x8, addend: 0x0, symName: __ZN16llm_graph_resultC1Ex, symObjAddr: 0x2954, symBinAddr: 0x38AE8, symSize: 0x4 }
  - { offset: 0x1B86BA, size: 0x8, addend: 0x0, symName: __ZNK16llm_graph_result13get_max_nodesEv, symObjAddr: 0x2958, symBinAddr: 0x38AEC, symSize: 0x8 }
  - { offset: 0x1B8710, size: 0x8, addend: 0x0, symName: __ZN16llm_graph_result10set_inputsEPK12llama_ubatch, symObjAddr: 0x2960, symBinAddr: 0x38AF4, symSize: 0x4C }
  - { offset: 0x1B880C, size: 0x8, addend: 0x0, symName: __ZN16llm_graph_result9can_reuseERK16llm_graph_params, symObjAddr: 0x29AC, symBinAddr: 0x38B40, symSize: 0x144 }
  - { offset: 0x1B89A1, size: 0x8, addend: 0x0, symName: __ZNK16llm_graph_params11allow_reuseERKS_, symObjAddr: 0x2AF0, symBinAddr: 0x38C84, symSize: 0x284 }
  - { offset: 0x1B89E4, size: 0x8, addend: 0x0, symName: __ZNK16llm_graph_params11allow_reuseERKS_, symObjAddr: 0x2AF0, symBinAddr: 0x38C84, symSize: 0x284 }
  - { offset: 0x1B8E07, size: 0x8, addend: 0x0, symName: __ZN16llm_graph_result9add_inputENSt3__110unique_ptrI17llm_graph_input_iNS0_14default_deleteIS2_EEEE, symObjAddr: 0x2D74, symBinAddr: 0x38F08, symSize: 0xF8 }
  - { offset: 0x1B9302, size: 0x8, addend: 0x0, symName: __ZN16llm_graph_result10set_paramsERK16llm_graph_params, symObjAddr: 0x2E6C, symBinAddr: 0x39000, symSize: 0x1A8 }
  - { offset: 0x1B930D, size: 0x8, addend: 0x0, symName: __ZNSt3__16vectorINS_10unique_ptrI17llm_graph_input_iNS_14default_deleteIS2_EEEENS_9allocatorIS5_EEE20__throw_length_errorB8ne200100Ev, symObjAddr: 0x790C, symBinAddr: 0x3D9E0, symSize: 0x14 }
  - { offset: 0x1B9325, size: 0x8, addend: 0x0, symName: __ZNSt3__125__throw_bad_function_callB8ne200100Ev, symObjAddr: 0x7920, symBinAddr: 0x3D9F4, symSize: 0x34 }
  - { offset: 0x1B94E9, size: 0x8, addend: 0x0, symName: __ZN16llm_graph_result10set_paramsERK16llm_graph_params, symObjAddr: 0x2E6C, symBinAddr: 0x39000, symSize: 0x1A8 }
  - { offset: 0x1B9891, size: 0x8, addend: 0x0, symName: __ZNSt3__110__function12__value_funcIFvRK12llama_ubatchP11ggml_tensorPKciEE4swapB8ne200100ERSA_, symObjAddr: 0x76BC, symBinAddr: 0x3D840, symSize: 0x1A0 }
  - { offset: 0x1BA271, size: 0x8, addend: 0x0, symName: __ZN17llm_graph_contextC2ERK16llm_graph_params, symObjAddr: 0x3014, symBinAddr: 0x391A8, symSize: 0x180 }
  - { offset: 0x1BA315, size: 0x8, addend: 0x0, symName: __ZN17llm_graph_contextC1ERK16llm_graph_params, symObjAddr: 0x3194, symBinAddr: 0x39328, symSize: 0x4 }
  - { offset: 0x1BA352, size: 0x8, addend: 0x0, symName: __ZN17llm_graph_contextC1ERK16llm_graph_params, symObjAddr: 0x3194, symBinAddr: 0x39328, symSize: 0x4 }
  - { offset: 0x1BA430, size: 0x8, addend: 0x0, symName: __ZNK17llm_graph_context2cbEP11ggml_tensorPKci, symObjAddr: 0x3198, symBinAddr: 0x3932C, symSize: 0x54 }
  - { offset: 0x1BA537, size: 0x8, addend: 0x0, symName: __ZNK17llm_graph_context10build_cvecEP11ggml_tensori, symObjAddr: 0x31EC, symBinAddr: 0x39380, symSize: 0x18 }
  - { offset: 0x1BA5C8, size: 0x8, addend: 0x0, symName: __ZNK17llm_graph_context13build_lora_mmEP11ggml_tensorS1_, symObjAddr: 0x3204, symBinAddr: 0x39398, symSize: 0xEC }
  - { offset: 0x1BA7AF, size: 0x8, addend: 0x0, symName: __ZNK17llm_graph_context16build_lora_mm_idEP11ggml_tensorS1_S1_, symObjAddr: 0x32F0, symBinAddr: 0x39484, symSize: 0x100 }
  - { offset: 0x1BA99E, size: 0x8, addend: 0x0, symName: __ZNK17llm_graph_context10build_normEP11ggml_tensorS1_S1_13llm_norm_typei, symObjAddr: 0x33F0, symBinAddr: 0x39584, symSize: 0x180 }
  - { offset: 0x1BAD4D, size: 0x8, addend: 0x0, symName: __ZNK17llm_graph_context9build_ffnEP11ggml_tensorS1_S1_S1_S1_S1_S1_S1_S1_S1_S1_15llm_ffn_op_type17llm_ffn_gate_typei, symObjAddr: 0x3570, symBinAddr: 0x39704, symSize: 0x6BC }
  - { offset: 0x1BBE79, size: 0x8, addend: 0x0, symName: __ZNK17llm_graph_context13build_moe_ffnEP11ggml_tensorS1_S1_S1_S1_S1_xx15llm_ffn_op_typebbf29llama_expert_gating_func_typeiS1_, symObjAddr: 0x3C2C, symBinAddr: 0x39DC0, symSize: 0x6C }
  - { offset: 0x1BBFBB, size: 0x8, addend: 0x0, symName: __ZNK17llm_graph_context13build_moe_ffnEP11ggml_tensorS1_S1_S1_S1_S1_xx15llm_ffn_op_typebbf29llama_expert_gating_func_typeiS1_, symObjAddr: 0x3C2C, symBinAddr: 0x39DC0, symSize: 0x6C }
  - { offset: 0x1BC119, size: 0x8, addend: 0x0, symName: __ZNK17llm_graph_context13build_moe_ffnEP11ggml_tensorS1_S1_S1_S1_S1_S1_S1_S1_S1_xx15llm_ffn_op_typebbf29llama_expert_gating_func_typeiS1_, symObjAddr: 0x3C98, symBinAddr: 0x39E2C, symSize: 0xB10 }
  - { offset: 0x1BDE3E, size: 0x8, addend: 0x0, symName: __ZNK17llm_graph_context14build_inp_embdEP11ggml_tensor, symObjAddr: 0x47A8, symBinAddr: 0x3A93C, symSize: 0x2C4 }
  - { offset: 0x1BDFF8, size: 0x8, addend: 0x0, symName: __ZNK17llm_graph_context14build_inp_embdEP11ggml_tensor, symObjAddr: 0x47A8, symBinAddr: 0x3A93C, symSize: 0x2C4 }
  - { offset: 0x1BE816, size: 0x8, addend: 0x0, symName: __ZNK17llm_graph_context13build_inp_posEv, symObjAddr: 0x4A6C, symBinAddr: 0x3AC00, symSize: 0x160 }
  - { offset: 0x1BED8D, size: 0x8, addend: 0x0, symName: __ZNK17llm_graph_context20build_inp_attn_scaleEv, symObjAddr: 0x4BCC, symBinAddr: 0x3AD60, symSize: 0x158 }
  - { offset: 0x1BF373, size: 0x8, addend: 0x0, symName: __ZNK17llm_graph_context17build_inp_out_idsEv, symObjAddr: 0x4D24, symBinAddr: 0x3AEB8, symSize: 0x174 }
  - { offset: 0x1BF8FA, size: 0x8, addend: 0x0, symName: __ZNK17llm_graph_context14build_inp_meanEv, symObjAddr: 0x4E98, symBinAddr: 0x3B02C, symSize: 0x160 }
  - { offset: 0x1BFE5C, size: 0x8, addend: 0x0, symName: __ZNK17llm_graph_context13build_inp_clsEv, symObjAddr: 0x4FF8, symBinAddr: 0x3B18C, symSize: 0x15C }
  - { offset: 0x1C03C8, size: 0x8, addend: 0x0, symName: __ZNK17llm_graph_context20build_inp_cross_embdEv, symObjAddr: 0x5154, symBinAddr: 0x3B2E8, symSize: 0x15C }
  - { offset: 0x1C0960, size: 0x8, addend: 0x0, symName: __ZNK17llm_graph_context24build_inp_pos_bucket_encEv, symObjAddr: 0x52B0, symBinAddr: 0x3B444, symSize: 0x150 }
  - { offset: 0x1C0EDD, size: 0x8, addend: 0x0, symName: __ZNK17llm_graph_context24build_inp_pos_bucket_decEv, symObjAddr: 0x5400, symBinAddr: 0x3B594, symSize: 0x184 }
  - { offset: 0x1C1436, size: 0x8, addend: 0x0, symName: __ZNK17llm_graph_context14build_pos_biasEP11ggml_tensorS1_, symObjAddr: 0x5584, symBinAddr: 0x3B718, symSize: 0x118 }
  - { offset: 0x1C1740, size: 0x8, addend: 0x0, symName: __ZNK17llm_graph_context14build_attn_mhaEP11ggml_tensorS1_S1_S1_S1_S1_S1_f, symObjAddr: 0x569C, symBinAddr: 0x3B830, symSize: 0x3F4 }
  - { offset: 0x1C1D2A, size: 0x8, addend: 0x0, symName: __ZNK17llm_graph_context23build_attn_inp_no_cacheEv, symObjAddr: 0x5A90, symBinAddr: 0x3BC24, symSize: 0x1C8 }
  - { offset: 0x1C22CA, size: 0x8, addend: 0x0, symName: __ZNK17llm_graph_context10build_attnEP29llm_graph_input_attn_no_cacheP11ggml_tensorS3_S3_S3_S3_S3_S3_S3_fi, symObjAddr: 0x5C58, symBinAddr: 0x3BDEC, symSize: 0x130 }
  - { offset: 0x1C2645, size: 0x8, addend: 0x0, symName: __ZNK17llm_graph_context17build_attn_inp_kvEv, symObjAddr: 0x5D88, symBinAddr: 0x3BF1C, symSize: 0x134 }
  - { offset: 0x1C2BD3, size: 0x8, addend: 0x0, symName: __ZL22build_attn_inp_kv_implP12ggml_contextRK12llama_ubatchRK13llama_hparamsRK13llama_cparamsPK22llama_kv_cache_context, symObjAddr: 0x5EBC, symBinAddr: 0x3C050, symSize: 0x1A8 }
  - { offset: 0x1C2FE8, size: 0x8, addend: 0x0, symName: __ZNK17llm_graph_context10build_attnEP23llm_graph_input_attn_kvP11ggml_tensorS3_S3_S3_S3_S3_S3_S3_fi, symObjAddr: 0x6064, symBinAddr: 0x3C1F8, symSize: 0x1C0 }
  - { offset: 0x1C334D, size: 0x8, addend: 0x0, symName: __ZNK17llm_graph_context10build_attnEP28llm_graph_input_attn_kv_iswaP11ggml_tensorS3_S3_S3_S3_S3_S3_S3_fi, symObjAddr: 0x6224, symBinAddr: 0x3C3B8, symSize: 0x270 }
  - { offset: 0x1C36DB, size: 0x8, addend: 0x0, symName: __ZNK17llm_graph_context20build_attn_inp_crossEv, symObjAddr: 0x6494, symBinAddr: 0x3C628, symSize: 0x1B8 }
  - { offset: 0x1C3C6D, size: 0x8, addend: 0x0, symName: __ZNK17llm_graph_context10build_attnEP26llm_graph_input_attn_crossP11ggml_tensorS3_S3_S3_S3_S3_S3_S3_fi, symObjAddr: 0x664C, symBinAddr: 0x3C7E0, symSize: 0x130 }
  - { offset: 0x1C3FD0, size: 0x8, addend: 0x0, symName: __ZNK17llm_graph_context22build_attn_inp_kv_iswaEv, symObjAddr: 0x677C, symBinAddr: 0x3C910, symSize: 0x31C }
  - { offset: 0x1C4665, size: 0x8, addend: 0x0, symName: __ZNK17llm_graph_context8build_rsEP11ggml_tensorS1_S1_iijjjiRKNSt3__18functionIFS1_P12ggml_contextS1_S1_EEE, symObjAddr: 0x6A98, symBinAddr: 0x3CC2C, symSize: 0x168 }
  - { offset: 0x1C48CD, size: 0x8, addend: 0x0, symName: __ZNK17llm_graph_context12build_rs_inpEv, symObjAddr: 0x6C00, symBinAddr: 0x3CD94, symSize: 0x130 }
  - { offset: 0x1C49CD, size: 0x8, addend: 0x0, symName: __ZNK17llm_graph_context12build_rs_inpEv, symObjAddr: 0x6C00, symBinAddr: 0x3CD94, symSize: 0x130 }
  - { offset: 0x1C4F5B, size: 0x8, addend: 0x0, symName: __ZL17build_rs_inp_implP12ggml_contextRK12llama_ubatchPK30llama_memory_recurrent_context, symObjAddr: 0x6D30, symBinAddr: 0x3CEC4, symSize: 0xD8 }
  - { offset: 0x1C52AB, size: 0x8, addend: 0x0, symName: __ZNK17llm_graph_context8build_rsEP18llm_graph_input_rsP11ggml_tensoriiRKNSt3__18functionIFS3_P12ggml_contextS3_S3_EEE, symObjAddr: 0x6E08, symBinAddr: 0x3CF9C, symSize: 0xB4 }
  - { offset: 0x1C563D, size: 0x8, addend: 0x0, symName: __ZNK17llm_graph_context27build_rwkv_token_shift_loadEP18llm_graph_input_rsRK12llama_ubatchi, symObjAddr: 0x6EBC, symBinAddr: 0x3D050, symSize: 0x1C8 }
  - { offset: 0x1C59CF, size: 0x8, addend: 0x0, symName: __ZNK17llm_graph_context28build_rwkv_token_shift_storeEP11ggml_tensorRK12llama_ubatchi, symObjAddr: 0x7084, symBinAddr: 0x3D218, symSize: 0xE0 }
  - { offset: 0x1C5BE1, size: 0x8, addend: 0x0, symName: __ZNK17llm_graph_context20build_inp_mem_hybridEv, symObjAddr: 0x7164, symBinAddr: 0x3D2F8, symSize: 0x1E0 }
  - { offset: 0x1C63CD, size: 0x8, addend: 0x0, symName: __ZNK17llm_graph_context13build_poolingEP11ggml_tensorS1_S1_S1_, symObjAddr: 0x7344, symBinAddr: 0x3D4D8, symSize: 0x218 }
  - { offset: 0x1C66E6, size: 0x8, addend: 0x0, symName: __ZN19llm_graph_input_posD1Ev, symObjAddr: 0x755C, symBinAddr: 0x3D6F0, symSize: 0x4 }
  - { offset: 0x1C66F9, size: 0x8, addend: 0x0, symName: __ZN19llm_graph_input_posD1Ev, symObjAddr: 0x755C, symBinAddr: 0x3D6F0, symSize: 0x4 }
  - { offset: 0x1C6722, size: 0x8, addend: 0x0, symName: __ZN19llm_graph_input_posD0Ev, symObjAddr: 0x7560, symBinAddr: 0x3D6F4, symSize: 0x4 }
  - { offset: 0x1C674B, size: 0x8, addend: 0x0, symName: __ZN25llm_graph_input_attn_tempD1Ev, symObjAddr: 0x7564, symBinAddr: 0x3D6F8, symSize: 0x4 }
  - { offset: 0x1C6774, size: 0x8, addend: 0x0, symName: __ZN25llm_graph_input_attn_tempD0Ev, symObjAddr: 0x7568, symBinAddr: 0x3D6FC, symSize: 0x4 }
  - { offset: 0x1C679D, size: 0x8, addend: 0x0, symName: __ZN17llm_graph_input_i9can_reuseERK16llm_graph_params, symObjAddr: 0x756C, symBinAddr: 0x3D700, symSize: 0x8 }
  - { offset: 0x1C67D2, size: 0x8, addend: 0x0, symName: __ZN26llm_graph_input_pos_bucketD1Ev, symObjAddr: 0x7574, symBinAddr: 0x3D708, symSize: 0x4 }
  - { offset: 0x1C67FB, size: 0x8, addend: 0x0, symName: __ZN26llm_graph_input_pos_bucketD0Ev, symObjAddr: 0x7578, symBinAddr: 0x3D70C, symSize: 0x4 }
  - { offset: 0x1C6824, size: 0x8, addend: 0x0, symName: __ZN29llm_graph_input_pos_bucket_kvD1Ev, symObjAddr: 0x757C, symBinAddr: 0x3D710, symSize: 0x4 }
  - { offset: 0x1C684D, size: 0x8, addend: 0x0, symName: __ZN29llm_graph_input_pos_bucket_kvD0Ev, symObjAddr: 0x7580, symBinAddr: 0x3D714, symSize: 0x4 }
  - { offset: 0x1C6876, size: 0x8, addend: 0x0, symName: __ZN23llm_graph_input_out_idsD1Ev, symObjAddr: 0x7584, symBinAddr: 0x3D718, symSize: 0x4 }
  - { offset: 0x1C689F, size: 0x8, addend: 0x0, symName: __ZN23llm_graph_input_out_idsD0Ev, symObjAddr: 0x7588, symBinAddr: 0x3D71C, symSize: 0x4 }
  - { offset: 0x1C68C8, size: 0x8, addend: 0x0, symName: __ZN20llm_graph_input_meanD1Ev, symObjAddr: 0x758C, symBinAddr: 0x3D720, symSize: 0x4 }
  - { offset: 0x1C68F1, size: 0x8, addend: 0x0, symName: __ZN20llm_graph_input_meanD0Ev, symObjAddr: 0x7590, symBinAddr: 0x3D724, symSize: 0x4 }
  - { offset: 0x1C691A, size: 0x8, addend: 0x0, symName: __ZN19llm_graph_input_clsD1Ev, symObjAddr: 0x7594, symBinAddr: 0x3D728, symSize: 0x4 }
  - { offset: 0x1C6943, size: 0x8, addend: 0x0, symName: __ZN19llm_graph_input_clsD0Ev, symObjAddr: 0x7598, symBinAddr: 0x3D72C, symSize: 0x4 }
  - { offset: 0x1C696C, size: 0x8, addend: 0x0, symName: __ZN18llm_graph_input_rsD1Ev, symObjAddr: 0x759C, symBinAddr: 0x3D730, symSize: 0x4 }
  - { offset: 0x1C6995, size: 0x8, addend: 0x0, symName: __ZN18llm_graph_input_rsD0Ev, symObjAddr: 0x75A0, symBinAddr: 0x3D734, symSize: 0x4 }
  - { offset: 0x1C69BE, size: 0x8, addend: 0x0, symName: __ZN26llm_graph_input_cross_embdD1Ev, symObjAddr: 0x75A4, symBinAddr: 0x3D738, symSize: 0x4 }
  - { offset: 0x1C69E7, size: 0x8, addend: 0x0, symName: __ZN26llm_graph_input_cross_embdD0Ev, symObjAddr: 0x75A8, symBinAddr: 0x3D73C, symSize: 0x4 }
  - { offset: 0x1C6A10, size: 0x8, addend: 0x0, symName: __ZN29llm_graph_input_attn_no_cacheD1Ev, symObjAddr: 0x75AC, symBinAddr: 0x3D740, symSize: 0x4 }
  - { offset: 0x1C6A39, size: 0x8, addend: 0x0, symName: __ZN29llm_graph_input_attn_no_cacheD0Ev, symObjAddr: 0x75B0, symBinAddr: 0x3D744, symSize: 0x4 }
  - { offset: 0x1C6A62, size: 0x8, addend: 0x0, symName: __ZN23llm_graph_input_attn_kvD1Ev, symObjAddr: 0x75B4, symBinAddr: 0x3D748, symSize: 0x4 }
  - { offset: 0x1C6A8B, size: 0x8, addend: 0x0, symName: __ZN23llm_graph_input_attn_kvD0Ev, symObjAddr: 0x75B8, symBinAddr: 0x3D74C, symSize: 0x4 }
  - { offset: 0x1C6AB4, size: 0x8, addend: 0x0, symName: __ZN28llm_graph_input_attn_kv_iswaD1Ev, symObjAddr: 0x75BC, symBinAddr: 0x3D750, symSize: 0x4 }
  - { offset: 0x1C6ADD, size: 0x8, addend: 0x0, symName: __ZN28llm_graph_input_attn_kv_iswaD0Ev, symObjAddr: 0x75C0, symBinAddr: 0x3D754, symSize: 0x4 }
  - { offset: 0x1C6B06, size: 0x8, addend: 0x0, symName: __ZN26llm_graph_input_attn_crossD1Ev, symObjAddr: 0x75C4, symBinAddr: 0x3D758, symSize: 0x4 }
  - { offset: 0x1C6B2F, size: 0x8, addend: 0x0, symName: __ZN26llm_graph_input_attn_crossD0Ev, symObjAddr: 0x75C8, symBinAddr: 0x3D75C, symSize: 0x4 }
  - { offset: 0x1C6B72, size: 0x8, addend: 0x0, symName: __ZN26llm_graph_input_mem_hybridD1Ev, symObjAddr: 0x75CC, symBinAddr: 0x3D760, symSize: 0x5C }
  - { offset: 0x1C6D09, size: 0x8, addend: 0x0, symName: __ZN26llm_graph_input_mem_hybridD0Ev, symObjAddr: 0x7628, symBinAddr: 0x3D7BC, symSize: 0x5C }
  - { offset: 0x1C6EAC, size: 0x8, addend: 0x0, symName: __ZN20llm_graph_input_embdD1Ev, symObjAddr: 0x7684, symBinAddr: 0x3D818, symSize: 0x4 }
  - { offset: 0x1C6ED5, size: 0x8, addend: 0x0, symName: __ZN20llm_graph_input_embdD0Ev, symObjAddr: 0x7688, symBinAddr: 0x3D81C, symSize: 0x4 }
  - { offset: 0x1C6EFE, size: 0x8, addend: 0x0, symName: __ZN16llm_graph_resultD1Ev, symObjAddr: 0x768C, symBinAddr: 0x3D820, symSize: 0x4 }
  - { offset: 0x1C6F21, size: 0x8, addend: 0x0, symName: __ZN16llm_graph_resultD1Ev, symObjAddr: 0x768C, symBinAddr: 0x3D820, symSize: 0x4 }
  - { offset: 0x1C6F34, size: 0x8, addend: 0x0, symName: __ZN16llm_graph_resultD2Ev, symObjAddr: 0x7A48, symBinAddr: 0x3DB1C, symSize: 0x108 }
  - { offset: 0x1C74DC, size: 0x8, addend: 0x0, symName: __ZN16llm_graph_resultD0Ev, symObjAddr: 0x7690, symBinAddr: 0x3D824, symSize: 0x14 }
  - { offset: 0x1C7537, size: 0x8, addend: 0x0, symName: __ZN17llm_graph_contextD1Ev, symObjAddr: 0x76A4, symBinAddr: 0x3D838, symSize: 0x4 }
  - { offset: 0x1C7560, size: 0x8, addend: 0x0, symName: __ZN17llm_graph_contextD0Ev, symObjAddr: 0x76A8, symBinAddr: 0x3D83C, symSize: 0x4 }
  - { offset: 0x1C763F, size: 0x8, addend: 0x0, symName: __ZNSt3__110__function6__funcIPFP11ggml_tensorP12ggml_contextS3_S3_ENS_9allocatorIS7_EES6_ED1Ev, symObjAddr: 0x7954, symBinAddr: 0x3DA28, symSize: 0x4 }
  - { offset: 0x1C766B, size: 0x8, addend: 0x0, symName: __ZNSt3__110__function6__funcIPFP11ggml_tensorP12ggml_contextS3_S3_ENS_9allocatorIS7_EES6_ED0Ev, symObjAddr: 0x7958, symBinAddr: 0x3DA2C, symSize: 0x4 }
  - { offset: 0x1C7781, size: 0x8, addend: 0x0, symName: __ZNKSt3__110__function6__funcIPFP11ggml_tensorP12ggml_contextS3_S3_ENS_9allocatorIS7_EES6_E7__cloneEv, symObjAddr: 0x795C, symBinAddr: 0x3DA30, symSize: 0x38 }
  - { offset: 0x1C7982, size: 0x8, addend: 0x0, symName: __ZNKSt3__110__function6__funcIPFP11ggml_tensorP12ggml_contextS3_S3_ENS_9allocatorIS7_EES6_E7__cloneEPNS0_6__baseIS6_EE, symObjAddr: 0x7994, symBinAddr: 0x3DA68, symSize: 0x18 }
  - { offset: 0x1C79B7, size: 0x8, addend: 0x0, symName: __ZNKSt3__110__function6__funcIPFP11ggml_tensorP12ggml_contextS3_S3_ENS_9allocatorIS7_EES6_E7__cloneEPNS0_6__baseIS6_EE, symObjAddr: 0x7994, symBinAddr: 0x3DA68, symSize: 0x18 }
  - { offset: 0x1C79E5, size: 0x8, addend: 0x0, symName: __ZNKSt3__110__function6__funcIPFP11ggml_tensorP12ggml_contextS3_S3_ENS_9allocatorIS7_EES6_E7__cloneEPNS0_6__baseIS6_EE, symObjAddr: 0x7994, symBinAddr: 0x3DA68, symSize: 0x18 }
  - { offset: 0x1C7A3E, size: 0x8, addend: 0x0, symName: __ZNSt3__110__function6__funcIPFP11ggml_tensorP12ggml_contextS3_S3_ENS_9allocatorIS7_EES6_E7destroyEv, symObjAddr: 0x79AC, symBinAddr: 0x3DA80, symSize: 0x4 }
  - { offset: 0x1C7A94, size: 0x8, addend: 0x0, symName: __ZNSt3__110__function6__funcIPFP11ggml_tensorP12ggml_contextS3_S3_ENS_9allocatorIS7_EES6_E18destroy_deallocateEv, symObjAddr: 0x79B0, symBinAddr: 0x3DA84, symSize: 0x4 }
  - { offset: 0x1C7AC9, size: 0x8, addend: 0x0, symName: __ZNSt3__110__function6__funcIPFP11ggml_tensorP12ggml_contextS3_S3_ENS_9allocatorIS7_EES6_E18destroy_deallocateEv, symObjAddr: 0x79B0, symBinAddr: 0x3DA84, symSize: 0x4 }
  - { offset: 0x1C7AEC, size: 0x8, addend: 0x0, symName: __ZNSt3__110__function6__funcIPFP11ggml_tensorP12ggml_contextS3_S3_ENS_9allocatorIS7_EES6_E18destroy_deallocateEv, symObjAddr: 0x79B0, symBinAddr: 0x3DA84, symSize: 0x4 }
  - { offset: 0x1C7B1F, size: 0x8, addend: 0x0, symName: __ZNSt3__110__function6__funcIPFP11ggml_tensorP12ggml_contextS3_S3_ENS_9allocatorIS7_EES6_E18destroy_deallocateEv, symObjAddr: 0x79B0, symBinAddr: 0x3DA84, symSize: 0x4 }
  - { offset: 0x1C7BCC, size: 0x8, addend: 0x0, symName: __ZNSt3__110__function6__funcIPFP11ggml_tensorP12ggml_contextS3_S3_ENS_9allocatorIS7_EES6_EclEOS5_OS3_SC_, symObjAddr: 0x79B4, symBinAddr: 0x3DA88, symSize: 0x14 }
  - { offset: 0x1C7C23, size: 0x8, addend: 0x0, symName: __ZNSt3__110__function6__funcIPFP11ggml_tensorP12ggml_contextS3_S3_ENS_9allocatorIS7_EES6_EclEOS5_OS3_SC_, symObjAddr: 0x79B4, symBinAddr: 0x3DA88, symSize: 0x14 }
  - { offset: 0x1C7C5A, size: 0x8, addend: 0x0, symName: __ZNSt3__110__function6__funcIPFP11ggml_tensorP12ggml_contextS3_S3_ENS_9allocatorIS7_EES6_EclEOS5_OS3_SC_, symObjAddr: 0x79B4, symBinAddr: 0x3DA88, symSize: 0x14 }
  - { offset: 0x1C7C90, size: 0x8, addend: 0x0, symName: __ZNSt3__110__function6__funcIPFP11ggml_tensorP12ggml_contextS3_S3_ENS_9allocatorIS7_EES6_EclEOS5_OS3_SC_, symObjAddr: 0x79B4, symBinAddr: 0x3DA88, symSize: 0x14 }
  - { offset: 0x1C7CC7, size: 0x8, addend: 0x0, symName: __ZNSt3__110__function6__funcIPFP11ggml_tensorP12ggml_contextS3_S3_ENS_9allocatorIS7_EES6_EclEOS5_OS3_SC_, symObjAddr: 0x79B4, symBinAddr: 0x3DA88, symSize: 0x14 }
  - { offset: 0x1C7D63, size: 0x8, addend: 0x0, symName: __ZNKSt3__110__function6__funcIPFP11ggml_tensorP12ggml_contextS3_S3_ENS_9allocatorIS7_EES6_E6targetERKSt9type_info, symObjAddr: 0x79C8, symBinAddr: 0x3DA9C, symSize: 0x74 }
  - { offset: 0x1C7E28, size: 0x8, addend: 0x0, symName: __ZNKSt3__110__function6__funcIPFP11ggml_tensorP12ggml_contextS3_S3_ENS_9allocatorIS7_EES6_E11target_typeEv, symObjAddr: 0x7A3C, symBinAddr: 0x3DB10, symSize: 0xC }
  - { offset: 0x1C9D7B, size: 0x8, addend: 0x0, symName: __ZN13llama_hparams15set_swa_patternEjb, symObjAddr: 0x0, symBinAddr: 0x3DC24, symSize: 0x614 }
  - { offset: 0x1CB945, size: 0x8, addend: 0x0, symName: __ZN13llama_hparams15set_swa_patternEjb, symObjAddr: 0x0, symBinAddr: 0x3DC24, symSize: 0x614 }
  - { offset: 0x1CB9B8, size: 0x8, addend: 0x0, symName: __ZNK13llama_hparams10is_swa_anyEv, symObjAddr: 0x614, symBinAddr: 0x3E238, symSize: 0x54 }
  - { offset: 0x1CB9F7, size: 0x8, addend: 0x0, symName: __ZNK13llama_hparams6n_headEj, symObjAddr: 0x668, symBinAddr: 0x3E28C, symSize: 0x38 }
  - { offset: 0x1CBA24, size: 0x8, addend: 0x0, symName: __ZNK13llama_hparams9n_head_kvEj, symObjAddr: 0x6A0, symBinAddr: 0x3E2C4, symSize: 0x38 }
  - { offset: 0x1CBA55, size: 0x8, addend: 0x0, symName: __ZNK13llama_hparams9n_head_kvEj, symObjAddr: 0x6A0, symBinAddr: 0x3E2C4, symSize: 0x38 }
  - { offset: 0x1CBA82, size: 0x8, addend: 0x0, symName: __ZNK13llama_hparams4n_ffEj, symObjAddr: 0x6D8, symBinAddr: 0x3E2FC, symSize: 0x38 }
  - { offset: 0x1CBA94, size: 0x8, addend: 0x0, symName: __ZNK13llama_hparams4n_ffEj, symObjAddr: 0x6D8, symBinAddr: 0x3E2FC, symSize: 0x38 }
  - { offset: 0x1CBACE, size: 0x8, addend: 0x0, symName: __ZNK13llama_hparams5n_gqaEj, symObjAddr: 0x710, symBinAddr: 0x3E334, symSize: 0x54 }
  - { offset: 0x1CBB2B, size: 0x8, addend: 0x0, symName: __ZNK13llama_hparams5n_gqaEj, symObjAddr: 0x710, symBinAddr: 0x3E334, symSize: 0x54 }
  - { offset: 0x1CBBC7, size: 0x8, addend: 0x0, symName: __ZNK13llama_hparams12n_embd_k_gqaEj, symObjAddr: 0x764, symBinAddr: 0x3E388, symSize: 0x40 }
  - { offset: 0x1CBBD9, size: 0x8, addend: 0x0, symName: __ZNK13llama_hparams12n_embd_k_gqaEj, symObjAddr: 0x764, symBinAddr: 0x3E388, symSize: 0x40 }
  - { offset: 0x1CBC2E, size: 0x8, addend: 0x0, symName: __ZNK13llama_hparams12n_embd_v_gqaEj, symObjAddr: 0x7A4, symBinAddr: 0x3E3C8, symSize: 0x40 }
  - { offset: 0x1CBC40, size: 0x8, addend: 0x0, symName: __ZNK13llama_hparams12n_embd_v_gqaEj, symObjAddr: 0x7A4, symBinAddr: 0x3E3C8, symSize: 0x40 }
  - { offset: 0x1CBC95, size: 0x8, addend: 0x0, symName: __ZNK13llama_hparams24is_n_embd_k_gqa_variableEv, symObjAddr: 0x7E4, symBinAddr: 0x3E408, symSize: 0x6C }
  - { offset: 0x1CBCDA, size: 0x8, addend: 0x0, symName: __ZNK13llama_hparams24is_n_embd_k_gqa_variableEv, symObjAddr: 0x7E4, symBinAddr: 0x3E408, symSize: 0x6C }
  - { offset: 0x1CBDBC, size: 0x8, addend: 0x0, symName: __ZNK13llama_hparams24is_n_embd_v_gqa_variableEv, symObjAddr: 0x850, symBinAddr: 0x3E474, symSize: 0x6C }
  - { offset: 0x1CBDFC, size: 0x8, addend: 0x0, symName: __ZNK13llama_hparams24is_n_embd_v_gqa_variableEv, symObjAddr: 0x850, symBinAddr: 0x3E474, symSize: 0x6C }
  - { offset: 0x1CBEDE, size: 0x8, addend: 0x0, symName: __ZNK13llama_hparams16n_embd_k_gqa_maxEv, symObjAddr: 0x8BC, symBinAddr: 0x3E4E0, symSize: 0x138 }
  - { offset: 0x1CBEF0, size: 0x8, addend: 0x0, symName: __ZNK13llama_hparams16n_embd_k_gqa_maxEv, symObjAddr: 0x8BC, symBinAddr: 0x3E4E0, symSize: 0x138 }
  - { offset: 0x1CBFB4, size: 0x8, addend: 0x0, symName: __ZNK13llama_hparams16n_embd_v_gqa_maxEv, symObjAddr: 0x9F4, symBinAddr: 0x3E618, symSize: 0x138 }
  - { offset: 0x1CBFC6, size: 0x8, addend: 0x0, symName: __ZNK13llama_hparams16n_embd_v_gqa_maxEv, symObjAddr: 0x9F4, symBinAddr: 0x3E618, symSize: 0x138 }
  - { offset: 0x1CC08A, size: 0x8, addend: 0x0, symName: __ZNK13llama_hparams8n_embd_rEv, symObjAddr: 0xB2C, symBinAddr: 0x3E750, symSize: 0x58 }
  - { offset: 0x1CC09C, size: 0x8, addend: 0x0, symName: __ZNK13llama_hparams8n_embd_rEv, symObjAddr: 0xB2C, symBinAddr: 0x3E750, symSize: 0x58 }
  - { offset: 0x1CC0C5, size: 0x8, addend: 0x0, symName: __ZNK13llama_hparams8n_embd_sEv, symObjAddr: 0xB84, symBinAddr: 0x3E7A8, symSize: 0x2C }
  - { offset: 0x1CC0EE, size: 0x8, addend: 0x0, symName: __ZNK13llama_hparams12is_recurrentEj, symObjAddr: 0xBB0, symBinAddr: 0x3E7D4, symSize: 0x10 }
  - { offset: 0x1CC125, size: 0x8, addend: 0x0, symName: __ZNK13llama_hparams14n_pos_per_embdEv, symObjAddr: 0xBC0, symBinAddr: 0x3E7E4, symSize: 0x14 }
  - { offset: 0x1CC14E, size: 0x8, addend: 0x0, symName: __ZNK13llama_hparams6is_swaEj, symObjAddr: 0xBD4, symBinAddr: 0x3E7F8, symSize: 0x3C }
  - { offset: 0x1CC188, size: 0x8, addend: 0x0, symName: __ZNK13llama_hparams6has_kvEj, symObjAddr: 0xC10, symBinAddr: 0x3E834, symSize: 0x14 }
  - { offset: 0x1CC19B, size: 0x8, addend: 0x0, symName: __ZNK13llama_hparams6has_kvEj, symObjAddr: 0xC10, symBinAddr: 0x3E834, symSize: 0x14 }
  - { offset: 0x1CC1E7, size: 0x8, addend: 0x0, symName: __ZNK13llama_hparams10n_layer_kvEv, symObjAddr: 0xC24, symBinAddr: 0x3E848, symSize: 0x19C }
  - { offset: 0x1CE151, size: 0x8, addend: 0x0, symName: __ZL14g_logger_state.0, symObjAddr: 0x1878, symBinAddr: 0x2743E0, symSize: 0x0 }
  - { offset: 0x1CE15C, size: 0x8, addend: 0x0, symName: __ZL14g_logger_state.1, symObjAddr: 0x2E018, symBinAddr: 0x2E9378, symSize: 0x0 }
  - { offset: 0x1D5275, size: 0x8, addend: 0x0, symName: __ZN9time_measC2ERxb, symObjAddr: 0x0, symBinAddr: 0x3E9E4, symSize: 0x48 }
  - { offset: 0x1D52FB, size: 0x8, addend: 0x0, symName: __ZN9time_measC1ERxb, symObjAddr: 0x48, symBinAddr: 0x3EA2C, symSize: 0x48 }
  - { offset: 0x1D537C, size: 0x8, addend: 0x0, symName: __ZN9time_measD2Ev, symObjAddr: 0x90, symBinAddr: 0x3EA74, symSize: 0x44 }
  - { offset: 0x1D53C8, size: 0x8, addend: 0x0, symName: __ZN9time_measD1Ev, symObjAddr: 0xE4, symBinAddr: 0x3EAB8, symSize: 0x44 }
  - { offset: 0x1D5419, size: 0x8, addend: 0x0, symName: _llama_log_set, symObjAddr: 0x128, symBinAddr: 0x3EAFC, symSize: 0x44 }
  - { offset: 0x1D547D, size: 0x8, addend: 0x0, symName: __Z26llama_log_callback_default14ggml_log_levelPKcPv, symObjAddr: 0x16C, symBinAddr: 0x3EB40, symSize: 0x30 }
  - { offset: 0x1D5708, size: 0x8, addend: 0x0, symName: __Z18llama_log_internal14ggml_log_levelPKcz, symObjAddr: 0x19C, symBinAddr: 0x3EB70, symSize: 0x10C }
  - { offset: 0x1D5AC0, size: 0x8, addend: 0x0, symName: __Z11replace_allRNSt3__112basic_stringIcNS_11char_traitsIcEENS_9allocatorIcEEEERKS5_S8_, symObjAddr: 0x2A8, symBinAddr: 0x3EC7C, symSize: 0x1F8 }
  - { offset: 0x1D642B, size: 0x8, addend: 0x0, symName: __Z6formatPKcz, symObjAddr: 0x4A0, symBinAddr: 0x3EE74, symSize: 0x158 }
  - { offset: 0x1D6AE1, size: 0x8, addend: 0x0, symName: __Z25llama_format_tensor_shapeRKNSt3__16vectorIxNS_9allocatorIxEEEE, symObjAddr: 0x5F8, symBinAddr: 0x3EFCC, symSize: 0x180 }
  - { offset: 0x1D6E83, size: 0x8, addend: 0x0, symName: __ZNSt3__16vectorIxNS_9allocatorIxEEE20__throw_out_of_rangeB8ne200100Ev, symObjAddr: 0x1384, symBinAddr: 0x3FAB4, symSize: 0x14 }
  - { offset: 0x1D6EBB, size: 0x8, addend: 0x0, symName: __Z25llama_format_tensor_shapePK11ggml_tensor, symObjAddr: 0x778, symBinAddr: 0x3F14C, symSize: 0x180 }
  - { offset: 0x1D737E, size: 0x8, addend: 0x0, symName: __Z14gguf_kv_to_strPK12gguf_contexti, symObjAddr: 0x8F8, symBinAddr: 0x3F2CC, symSize: 0x5EC }
  - { offset: 0x1D88F3, size: 0x8, addend: 0x0, symName: __ZL16gguf_data_to_str9gguf_typePKvi, symObjAddr: 0x1078, symBinAddr: 0x3F8B8, symSize: 0x1FC }
  - { offset: 0x1DB340, size: 0x8, addend: 0x0, symName: __ZN16llama_io_write_i12write_stringERKNSt3__112basic_stringIcNS0_11char_traitsIcEENS0_9allocatorIcEEEE, symObjAddr: 0x0, symBinAddr: 0x3FAC8, symSize: 0x78 }
  - { offset: 0x1DDD78, size: 0x8, addend: 0x0, symName: __ZN16llama_io_write_i12write_stringERKNSt3__112basic_stringIcNS0_11char_traitsIcEENS0_9allocatorIcEEEE, symObjAddr: 0x0, symBinAddr: 0x3FAC8, symSize: 0x78 }
  - { offset: 0x1DDE88, size: 0x8, addend: 0x0, symName: __ZN15llama_io_read_i11read_stringERNSt3__112basic_stringIcNS0_11char_traitsIcEENS0_9allocatorIcEEEE, symObjAddr: 0x78, symBinAddr: 0x3FB40, symSize: 0x64 }
  - { offset: 0x1DFDDA, size: 0x8, addend: 0x0, symName: __ZN19llama_kv_cache_iswaC2ERK11llama_model9ggml_typeS3_bbbbjjjjRKNSt3__18functionIFbiEEERKNS5_IFiiEEE, symObjAddr: 0x0, symBinAddr: 0x3FBA4, symSize: 0x34C }
  - { offset: 0x1FC30D, size: 0x8, addend: 0x0, symName: __ZNSt3__111make_uniqueB8ne200100I27llama_kv_cache_iswa_contextJP19llama_kv_cache_iswaNS_6vectorIN14llama_kv_cache9slot_infoENS_9allocatorIS6_EEEES9_NS4_I12llama_ubatchNS7_ISA_EEEEELi0EEENS_10unique_ptrIT_NS_14default_deleteISE_EEEEDpOT0_, symObjAddr: 0xD64, symBinAddr: 0x408AC, symSize: 0x25C }
  - { offset: 0x204143, size: 0x8, addend: 0x0, symName: __ZN19llama_kv_cache_iswaC1ERK11llama_model9ggml_typeS3_bbbbjjjjRKNSt3__18functionIFbiEEERKNS5_IFiiEEE, symObjAddr: 0x34C, symBinAddr: 0x3FEF0, symSize: 0x20 }
  - { offset: 0x204BCA, size: 0x8, addend: 0x0, symName: __ZN19llama_kv_cache_iswaC2ERK11llama_model9ggml_typeS3_bbbbjjjjRKNSt3__18functionIFbiEEERKNS5_IFiiEEE, symObjAddr: 0x0, symBinAddr: 0x3FBA4, symSize: 0x34C }
  - { offset: 0x2053EC, size: 0x8, addend: 0x0, symName: __ZN19llama_kv_cache_iswa5clearEb, symObjAddr: 0x36C, symBinAddr: 0x3FF10, symSize: 0x40 }
  - { offset: 0x205480, size: 0x8, addend: 0x0, symName: __ZN19llama_kv_cache_iswa6seq_rmEiii, symObjAddr: 0x3AC, symBinAddr: 0x3FF50, symSize: 0x6C }
  - { offset: 0x205563, size: 0x8, addend: 0x0, symName: __ZN19llama_kv_cache_iswa6seq_cpEiiii, symObjAddr: 0x418, symBinAddr: 0x3FFBC, symSize: 0x68 }
  - { offset: 0x205639, size: 0x8, addend: 0x0, symName: __ZN19llama_kv_cache_iswa8seq_keepEi, symObjAddr: 0x480, symBinAddr: 0x40024, symSize: 0x40 }
  - { offset: 0x2056CD, size: 0x8, addend: 0x0, symName: __ZN19llama_kv_cache_iswa7seq_addEiiii, symObjAddr: 0x4C0, symBinAddr: 0x40064, symSize: 0x68 }
  - { offset: 0x2057A3, size: 0x8, addend: 0x0, symName: __ZN19llama_kv_cache_iswa7seq_divEiiii, symObjAddr: 0x528, symBinAddr: 0x400CC, symSize: 0x68 }
  - { offset: 0x205879, size: 0x8, addend: 0x0, symName: __ZNK19llama_kv_cache_iswa11seq_pos_minEi, symObjAddr: 0x590, symBinAddr: 0x40134, symSize: 0x10 }
  - { offset: 0x2058B2, size: 0x8, addend: 0x0, symName: __ZNK19llama_kv_cache_iswa11seq_pos_minEi, symObjAddr: 0x590, symBinAddr: 0x40134, symSize: 0x10 }
  - { offset: 0x2058E2, size: 0x8, addend: 0x0, symName: __ZNK19llama_kv_cache_iswa11seq_pos_maxEi, symObjAddr: 0x5A0, symBinAddr: 0x40144, symSize: 0x10 }
  - { offset: 0x20591B, size: 0x8, addend: 0x0, symName: __ZNK19llama_kv_cache_iswa11seq_pos_maxEi, symObjAddr: 0x5A0, symBinAddr: 0x40144, symSize: 0x10 }
  - { offset: 0x20638C, size: 0x8, addend: 0x0, symName: __ZN19llama_kv_cache_iswa10init_batchER18llama_batch_allocrjb, symObjAddr: 0x5B0, symBinAddr: 0x40154, symSize: 0x758 }
  - { offset: 0x2086C4, size: 0x8, addend: 0x0, symName: __ZNSt3__16vectorI12llama_ubatchNS_9allocatorIS1_EEE24__emplace_back_slow_pathIJS1_EEEPS1_DpOT_, symObjAddr: 0x21D8, symBinAddr: 0x41CF8, symSize: 0x1C0 }
  - { offset: 0x208CD1, size: 0x8, addend: 0x0, symName: __ZNSt3__16vectorI12llama_ubatchNS_9allocatorIS1_EEE20__throw_length_errorB8ne200100Ev, symObjAddr: 0x2398, symBinAddr: 0x41EB8, symSize: 0x14 }
  - { offset: 0x208CE7, size: 0x8, addend: 0x0, symName: __ZNSt3__16vectorIN14llama_kv_cache9slot_infoENS_9allocatorIS2_EEED1B8ne200100Ev, symObjAddr: 0xFC0, symBinAddr: 0x40B08, symSize: 0xC4 }
  - { offset: 0x209221, size: 0x8, addend: 0x0, symName: __ZNSt3__16vectorI12llama_ubatchNS_9allocatorIS1_EEED1B8ne200100Ev, symObjAddr: 0x1084, symBinAddr: 0x40BCC, symSize: 0x98 }
  - { offset: 0x20961C, size: 0x8, addend: 0x0, symName: __ZN27llama_kv_cache_iswa_contextC2EP19llama_kv_cache_iswaNSt3__16vectorIN14llama_kv_cache9slot_infoENS2_9allocatorIS5_EEEES8_NS3_I12llama_ubatchNS6_IS9_EEEE, symObjAddr: 0x158C, symBinAddr: 0x410D4, symSize: 0x5B4 }
  - { offset: 0x20B1D6, size: 0x8, addend: 0x0, symName: __ZN19llama_kv_cache_iswa9init_fullEv, symObjAddr: 0x111C, symBinAddr: 0x40C64, symSize: 0x54 }
  - { offset: 0x20B27C, size: 0x8, addend: 0x0, symName: __ZN27llama_kv_cache_iswa_contextC2EP19llama_kv_cache_iswa, symObjAddr: 0x1324, symBinAddr: 0x40E6C, symSize: 0x120 }
  - { offset: 0x20B52A, size: 0x8, addend: 0x0, symName: __ZN19llama_kv_cache_iswa11init_updateEP13llama_contextb, symObjAddr: 0x1170, symBinAddr: 0x40CB8, symSize: 0x6C }
  - { offset: 0x20B60D, size: 0x8, addend: 0x0, symName: __ZN27llama_kv_cache_iswa_contextC2EP19llama_kv_cache_iswaP13llama_contextb, symObjAddr: 0x1448, symBinAddr: 0x40F90, symSize: 0x140 }
  - { offset: 0x20B8B4, size: 0x8, addend: 0x0, symName: __ZNK19llama_kv_cache_iswa13get_can_shiftEv, symObjAddr: 0x11DC, symBinAddr: 0x40D24, symSize: 0x38 }
  - { offset: 0x20B919, size: 0x8, addend: 0x0, symName: __ZNK19llama_kv_cache_iswa11state_writeER16llama_io_write_iij, symObjAddr: 0x1214, symBinAddr: 0x40D5C, symSize: 0x5C }
  - { offset: 0x20B9C3, size: 0x8, addend: 0x0, symName: __ZN19llama_kv_cache_iswa10state_readER15llama_io_read_iij, symObjAddr: 0x1270, symBinAddr: 0x40DB8, symSize: 0x5C }
  - { offset: 0x20BA83, size: 0x8, addend: 0x0, symName: __ZNK19llama_kv_cache_iswa8get_baseEv, symObjAddr: 0x12CC, symBinAddr: 0x40E14, symSize: 0x8 }
  - { offset: 0x20BAA7, size: 0x8, addend: 0x0, symName: __ZNK19llama_kv_cache_iswa8get_baseEv, symObjAddr: 0x12CC, symBinAddr: 0x40E14, symSize: 0x8 }
  - { offset: 0x20BAC3, size: 0x8, addend: 0x0, symName: __ZNK19llama_kv_cache_iswa7get_swaEv, symObjAddr: 0x12D4, symBinAddr: 0x40E1C, symSize: 0x8 }
  - { offset: 0x20BAE7, size: 0x8, addend: 0x0, symName: __ZNK19llama_kv_cache_iswa7get_swaEv, symObjAddr: 0x12D4, symBinAddr: 0x40E1C, symSize: 0x8 }
  - { offset: 0x20BB03, size: 0x8, addend: 0x0, symName: __ZN27llama_kv_cache_iswa_contextC2E19llama_memory_status, symObjAddr: 0x12DC, symBinAddr: 0x40E24, symSize: 0x24 }
  - { offset: 0x20BB66, size: 0x8, addend: 0x0, symName: __ZN27llama_kv_cache_iswa_contextC1E19llama_memory_status, symObjAddr: 0x1300, symBinAddr: 0x40E48, symSize: 0x24 }
  - { offset: 0x20BB8F, size: 0x8, addend: 0x0, symName: __ZN27llama_kv_cache_iswa_contextC1E19llama_memory_status, symObjAddr: 0x1300, symBinAddr: 0x40E48, symSize: 0x24 }
  - { offset: 0x20BCDE, size: 0x8, addend: 0x0, symName: __ZN27llama_kv_cache_iswa_contextC1EP19llama_kv_cache_iswa, symObjAddr: 0x1444, symBinAddr: 0x40F8C, symSize: 0x4 }
  - { offset: 0x20BD08, size: 0x8, addend: 0x0, symName: __ZN27llama_kv_cache_iswa_contextC1EP19llama_kv_cache_iswa, symObjAddr: 0x1444, symBinAddr: 0x40F8C, symSize: 0x4 }
  - { offset: 0x20BD22, size: 0x8, addend: 0x0, symName: __ZN27llama_kv_cache_iswa_contextC1EP19llama_kv_cache_iswaP13llama_contextb, symObjAddr: 0x1588, symBinAddr: 0x410D0, symSize: 0x4 }
  - { offset: 0x20BD5F, size: 0x8, addend: 0x0, symName: __ZN27llama_kv_cache_iswa_contextC1EP19llama_kv_cache_iswaP13llama_contextb, symObjAddr: 0x1588, symBinAddr: 0x410D0, symSize: 0x4 }
  - { offset: 0x20C114, size: 0x8, addend: 0x0, symName: __ZNSt3__16vectorI12llama_ubatchNS_9allocatorIS1_EEE20__throw_length_errorB8ne200100Ev, symObjAddr: 0x2398, symBinAddr: 0x41EB8, symSize: 0x14 }
  - { offset: 0x20C137, size: 0x8, addend: 0x0, symName: __ZNSt3__128__exception_guard_exceptionsINS_6vectorI12llama_ubatchNS_9allocatorIS2_EEE16__destroy_vectorEED1B8ne200100Ev, symObjAddr: 0x2420, symBinAddr: 0x41ECC, symSize: 0xA8 }
  - { offset: 0x20C36E, size: 0x8, addend: 0x0, symName: __ZN27llama_kv_cache_iswa_contextC1EP19llama_kv_cache_iswaNSt3__16vectorIN14llama_kv_cache9slot_infoENS2_9allocatorIS5_EEEES8_NS3_I12llama_ubatchNS6_IS9_EEEE, symObjAddr: 0x1B40, symBinAddr: 0x41688, symSize: 0x4 }
  - { offset: 0x20C3B0, size: 0x8, addend: 0x0, symName: __ZN27llama_kv_cache_iswa_contextC1EP19llama_kv_cache_iswaNSt3__16vectorIN14llama_kv_cache9slot_infoENS2_9allocatorIS5_EEEES8_NS3_I12llama_ubatchNS6_IS9_EEEE, symObjAddr: 0x1B40, symBinAddr: 0x41688, symSize: 0x4 }
  - { offset: 0x20C3DF, size: 0x8, addend: 0x0, symName: __ZN27llama_kv_cache_iswa_contextD2Ev, symObjAddr: 0x1B44, symBinAddr: 0x4168C, symSize: 0xD4 }
  - { offset: 0x20C78A, size: 0x8, addend: 0x0, symName: __ZN27llama_kv_cache_iswa_contextD1Ev, symObjAddr: 0x1C18, symBinAddr: 0x41760, symSize: 0xD4 }
  - { offset: 0x20CB52, size: 0x8, addend: 0x0, symName: __ZN27llama_kv_cache_iswa_contextD0Ev, symObjAddr: 0x1CEC, symBinAddr: 0x41834, symSize: 0xD4 }
  - { offset: 0x20CF26, size: 0x8, addend: 0x0, symName: __ZN27llama_kv_cache_iswa_context4nextEv, symObjAddr: 0x1DC0, symBinAddr: 0x41908, symSize: 0x70 }
  - { offset: 0x20CFC5, size: 0x8, addend: 0x0, symName: __ZN27llama_kv_cache_iswa_context5applyEv, symObjAddr: 0x1E30, symBinAddr: 0x41978, symSize: 0x44 }
  - { offset: 0x20D055, size: 0x8, addend: 0x0, symName: __ZNK27llama_kv_cache_iswa_context10get_statusEv, symObjAddr: 0x1E74, symBinAddr: 0x419BC, symSize: 0x8 }
  - { offset: 0x20D0A1, size: 0x8, addend: 0x0, symName: __ZNK27llama_kv_cache_iswa_context10get_ubatchEv, symObjAddr: 0x1E7C, symBinAddr: 0x419C4, symSize: 0x10 }
  - { offset: 0x20D107, size: 0x8, addend: 0x0, symName: __ZNK27llama_kv_cache_iswa_context8get_baseEv, symObjAddr: 0x1E8C, symBinAddr: 0x419D4, symSize: 0x8 }
  - { offset: 0x20D133, size: 0x8, addend: 0x0, symName: __ZNK27llama_kv_cache_iswa_context8get_baseEv, symObjAddr: 0x1E8C, symBinAddr: 0x419D4, symSize: 0x8 }
  - { offset: 0x20D150, size: 0x8, addend: 0x0, symName: __ZNK27llama_kv_cache_iswa_context7get_swaEv, symObjAddr: 0x1E94, symBinAddr: 0x419DC, symSize: 0x8 }
  - { offset: 0x20D17C, size: 0x8, addend: 0x0, symName: __ZNK27llama_kv_cache_iswa_context7get_swaEv, symObjAddr: 0x1E94, symBinAddr: 0x419DC, symSize: 0x8 }
  - { offset: 0x20D1B3, size: 0x8, addend: 0x0, symName: __ZN19llama_kv_cache_iswaD1Ev, symObjAddr: 0x1E9C, symBinAddr: 0x419E4, symSize: 0x5C }
  - { offset: 0x20D347, size: 0x8, addend: 0x0, symName: __ZN19llama_kv_cache_iswaD0Ev, symObjAddr: 0x1EF8, symBinAddr: 0x41A40, symSize: 0x5C }
  - { offset: 0x20D4E6, size: 0x8, addend: 0x0, symName: '__ZNSt3__110__function6__funcIZN19llama_kv_cache_iswaC1ERK11llama_model9ggml_typeS6_bbbbjjjjRKNS_8functionIFbiEEERKNS7_IFiiEEEE3$_0NS_9allocatorISG_EES8_ED1Ev', symObjAddr: 0x1F54, symBinAddr: 0x41A9C, symSize: 0x4 }
  - { offset: 0x20D512, size: 0x8, addend: 0x0, symName: '__ZNSt3__110__function6__funcIZN19llama_kv_cache_iswaC1ERK11llama_model9ggml_typeS6_bbbbjjjjRKNS_8functionIFbiEEERKNS7_IFiiEEEE3$_0NS_9allocatorISG_EES8_ED0Ev', symObjAddr: 0x1F58, symBinAddr: 0x41AA0, symSize: 0x4 }
  - { offset: 0x20D628, size: 0x8, addend: 0x0, symName: '__ZNKSt3__110__function6__funcIZN19llama_kv_cache_iswaC1ERK11llama_model9ggml_typeS6_bbbbjjjjRKNS_8functionIFbiEEERKNS7_IFiiEEEE3$_0NS_9allocatorISG_EES8_E7__cloneEv', symObjAddr: 0x1F5C, symBinAddr: 0x41AA4, symSize: 0x38 }
  - { offset: 0x20D83B, size: 0x8, addend: 0x0, symName: '__ZNKSt3__110__function6__funcIZN19llama_kv_cache_iswaC1ERK11llama_model9ggml_typeS6_bbbbjjjjRKNS_8functionIFbiEEERKNS7_IFiiEEEE3$_0NS_9allocatorISG_EES8_E7__cloneEPNS0_6__baseIS8_EE', symObjAddr: 0x1F94, symBinAddr: 0x41ADC, symSize: 0x18 }
  - { offset: 0x20D870, size: 0x8, addend: 0x0, symName: '__ZNKSt3__110__function6__funcIZN19llama_kv_cache_iswaC1ERK11llama_model9ggml_typeS6_bbbbjjjjRKNS_8functionIFbiEEERKNS7_IFiiEEEE3$_0NS_9allocatorISG_EES8_E7__cloneEPNS0_6__baseIS8_EE', symObjAddr: 0x1F94, symBinAddr: 0x41ADC, symSize: 0x18 }
  - { offset: 0x20D895, size: 0x8, addend: 0x0, symName: '__ZNKSt3__110__function6__funcIZN19llama_kv_cache_iswaC1ERK11llama_model9ggml_typeS6_bbbbjjjjRKNS_8functionIFbiEEERKNS7_IFiiEEEE3$_0NS_9allocatorISG_EES8_E7__cloneEPNS0_6__baseIS8_EE', symObjAddr: 0x1F94, symBinAddr: 0x41ADC, symSize: 0x18 }
  - { offset: 0x20D909, size: 0x8, addend: 0x0, symName: '__ZNSt3__110__function6__funcIZN19llama_kv_cache_iswaC1ERK11llama_model9ggml_typeS6_bbbbjjjjRKNS_8functionIFbiEEERKNS7_IFiiEEEE3$_0NS_9allocatorISG_EES8_E7destroyEv', symObjAddr: 0x1FAC, symBinAddr: 0x41AF4, symSize: 0x4 }
  - { offset: 0x20D95D, size: 0x8, addend: 0x0, symName: '__ZNSt3__110__function6__funcIZN19llama_kv_cache_iswaC1ERK11llama_model9ggml_typeS6_bbbbjjjjRKNS_8functionIFbiEEERKNS7_IFiiEEEE3$_0NS_9allocatorISG_EES8_E18destroy_deallocateEv', symObjAddr: 0x1FB0, symBinAddr: 0x41AF8, symSize: 0x4 }
  - { offset: 0x20D992, size: 0x8, addend: 0x0, symName: '__ZNSt3__110__function6__funcIZN19llama_kv_cache_iswaC1ERK11llama_model9ggml_typeS6_bbbbjjjjRKNS_8functionIFbiEEERKNS7_IFiiEEEE3$_0NS_9allocatorISG_EES8_E18destroy_deallocateEv', symObjAddr: 0x1FB0, symBinAddr: 0x41AF8, symSize: 0x4 }
  - { offset: 0x20D9B5, size: 0x8, addend: 0x0, symName: '__ZNSt3__110__function6__funcIZN19llama_kv_cache_iswaC1ERK11llama_model9ggml_typeS6_bbbbjjjjRKNS_8functionIFbiEEERKNS7_IFiiEEEE3$_0NS_9allocatorISG_EES8_E18destroy_deallocateEv', symObjAddr: 0x1FB0, symBinAddr: 0x41AF8, symSize: 0x4 }
  - { offset: 0x20D9E8, size: 0x8, addend: 0x0, symName: '__ZNSt3__110__function6__funcIZN19llama_kv_cache_iswaC1ERK11llama_model9ggml_typeS6_bbbbjjjjRKNS_8functionIFbiEEERKNS7_IFiiEEEE3$_0NS_9allocatorISG_EES8_E18destroy_deallocateEv', symObjAddr: 0x1FB0, symBinAddr: 0x41AF8, symSize: 0x4 }
  - { offset: 0x20DB05, size: 0x8, addend: 0x0, symName: '__ZNSt3__110__function6__funcIZN19llama_kv_cache_iswaC1ERK11llama_model9ggml_typeS6_bbbbjjjjRKNS_8functionIFbiEEERKNS7_IFiiEEEE3$_0NS_9allocatorISG_EES8_EclEOi', symObjAddr: 0x1FB4, symBinAddr: 0x41AFC, symSize: 0x60 }
  - { offset: 0x20DCBB, size: 0x8, addend: 0x0, symName: '__ZNKSt3__110__function6__funcIZN19llama_kv_cache_iswaC1ERK11llama_model9ggml_typeS6_bbbbjjjjRKNS_8functionIFbiEEERKNS7_IFiiEEEE3$_0NS_9allocatorISG_EES8_E6targetERKSt9type_info', symObjAddr: 0x2014, symBinAddr: 0x41B5C, symSize: 0x64 }
  - { offset: 0x20DD86, size: 0x8, addend: 0x0, symName: '__ZNKSt3__110__function6__funcIZN19llama_kv_cache_iswaC1ERK11llama_model9ggml_typeS6_bbbbjjjjRKNS_8functionIFbiEEERKNS7_IFiiEEEE3$_0NS_9allocatorISG_EES8_E11target_typeEv', symObjAddr: 0x2078, symBinAddr: 0x41BC0, symSize: 0xC }
  - { offset: 0x20DDA9, size: 0x8, addend: 0x0, symName: '__ZNSt3__110__function6__funcIZN19llama_kv_cache_iswaC1ERK11llama_model9ggml_typeS6_bbbbjjjjRKNS_8functionIFbiEEERKNS7_IFiiEEEE3$_1NS_9allocatorISG_EES8_ED1Ev', symObjAddr: 0x20AC, symBinAddr: 0x41BCC, symSize: 0x4 }
  - { offset: 0x20DDD5, size: 0x8, addend: 0x0, symName: '__ZNSt3__110__function6__funcIZN19llama_kv_cache_iswaC1ERK11llama_model9ggml_typeS6_bbbbjjjjRKNS_8functionIFbiEEERKNS7_IFiiEEEE3$_1NS_9allocatorISG_EES8_ED0Ev', symObjAddr: 0x20B0, symBinAddr: 0x41BD0, symSize: 0x4 }
  - { offset: 0x20DEEB, size: 0x8, addend: 0x0, symName: '__ZNKSt3__110__function6__funcIZN19llama_kv_cache_iswaC1ERK11llama_model9ggml_typeS6_bbbbjjjjRKNS_8functionIFbiEEERKNS7_IFiiEEEE3$_1NS_9allocatorISG_EES8_E7__cloneEv', symObjAddr: 0x20B4, symBinAddr: 0x41BD4, symSize: 0x38 }
  - { offset: 0x20E0FE, size: 0x8, addend: 0x0, symName: '__ZNKSt3__110__function6__funcIZN19llama_kv_cache_iswaC1ERK11llama_model9ggml_typeS6_bbbbjjjjRKNS_8functionIFbiEEERKNS7_IFiiEEEE3$_1NS_9allocatorISG_EES8_E7__cloneEPNS0_6__baseIS8_EE', symObjAddr: 0x20EC, symBinAddr: 0x41C0C, symSize: 0x18 }
  - { offset: 0x20E133, size: 0x8, addend: 0x0, symName: '__ZNKSt3__110__function6__funcIZN19llama_kv_cache_iswaC1ERK11llama_model9ggml_typeS6_bbbbjjjjRKNS_8functionIFbiEEERKNS7_IFiiEEEE3$_1NS_9allocatorISG_EES8_E7__cloneEPNS0_6__baseIS8_EE', symObjAddr: 0x20EC, symBinAddr: 0x41C0C, symSize: 0x18 }
  - { offset: 0x20E158, size: 0x8, addend: 0x0, symName: '__ZNKSt3__110__function6__funcIZN19llama_kv_cache_iswaC1ERK11llama_model9ggml_typeS6_bbbbjjjjRKNS_8functionIFbiEEERKNS7_IFiiEEEE3$_1NS_9allocatorISG_EES8_E7__cloneEPNS0_6__baseIS8_EE', symObjAddr: 0x20EC, symBinAddr: 0x41C0C, symSize: 0x18 }
  - { offset: 0x20E1CC, size: 0x8, addend: 0x0, symName: '__ZNSt3__110__function6__funcIZN19llama_kv_cache_iswaC1ERK11llama_model9ggml_typeS6_bbbbjjjjRKNS_8functionIFbiEEERKNS7_IFiiEEEE3$_1NS_9allocatorISG_EES8_E7destroyEv', symObjAddr: 0x2104, symBinAddr: 0x41C24, symSize: 0x4 }
  - { offset: 0x20E220, size: 0x8, addend: 0x0, symName: '__ZNSt3__110__function6__funcIZN19llama_kv_cache_iswaC1ERK11llama_model9ggml_typeS6_bbbbjjjjRKNS_8functionIFbiEEERKNS7_IFiiEEEE3$_1NS_9allocatorISG_EES8_E18destroy_deallocateEv', symObjAddr: 0x2108, symBinAddr: 0x41C28, symSize: 0x4 }
  - { offset: 0x20E255, size: 0x8, addend: 0x0, symName: '__ZNSt3__110__function6__funcIZN19llama_kv_cache_iswaC1ERK11llama_model9ggml_typeS6_bbbbjjjjRKNS_8functionIFbiEEERKNS7_IFiiEEEE3$_1NS_9allocatorISG_EES8_E18destroy_deallocateEv', symObjAddr: 0x2108, symBinAddr: 0x41C28, symSize: 0x4 }
  - { offset: 0x20E278, size: 0x8, addend: 0x0, symName: '__ZNSt3__110__function6__funcIZN19llama_kv_cache_iswaC1ERK11llama_model9ggml_typeS6_bbbbjjjjRKNS_8functionIFbiEEERKNS7_IFiiEEEE3$_1NS_9allocatorISG_EES8_E18destroy_deallocateEv', symObjAddr: 0x2108, symBinAddr: 0x41C28, symSize: 0x4 }
  - { offset: 0x20E2AB, size: 0x8, addend: 0x0, symName: '__ZNSt3__110__function6__funcIZN19llama_kv_cache_iswaC1ERK11llama_model9ggml_typeS6_bbbbjjjjRKNS_8functionIFbiEEERKNS7_IFiiEEEE3$_1NS_9allocatorISG_EES8_E18destroy_deallocateEv', symObjAddr: 0x2108, symBinAddr: 0x41C28, symSize: 0x4 }
  - { offset: 0x20E34C, size: 0x8, addend: 0x0, symName: '__ZNSt3__110__function6__funcIZN19llama_kv_cache_iswaC1ERK11llama_model9ggml_typeS6_bbbbjjjjRKNS_8functionIFbiEEERKNS7_IFiiEEEE3$_1NS_9allocatorISG_EES8_EclEOi', symObjAddr: 0x210C, symBinAddr: 0x41C2C, symSize: 0x5C }
  - { offset: 0x20E4AA, size: 0x8, addend: 0x0, symName: '__ZNKSt3__110__function6__funcIZN19llama_kv_cache_iswaC1ERK11llama_model9ggml_typeS6_bbbbjjjjRKNS_8functionIFbiEEERKNS7_IFiiEEEE3$_1NS_9allocatorISG_EES8_E6targetERKSt9type_info', symObjAddr: 0x2168, symBinAddr: 0x41C88, symSize: 0x64 }
  - { offset: 0x20E55E, size: 0x8, addend: 0x0, symName: '__ZNKSt3__110__function6__funcIZN19llama_kv_cache_iswaC1ERK11llama_model9ggml_typeS6_bbbbjjjjRKNS_8functionIFbiEEERKNS7_IFiiEEEE3$_1NS_9allocatorISG_EES8_E11target_typeEv', symObjAddr: 0x21CC, symBinAddr: 0x41CEC, symSize: 0xC }
  - { offset: 0x23EE05, size: 0x8, addend: 0x0, symName: __ZNSt3__113__tree_removeB8ne200100IPNS_16__tree_node_baseIPvEEEEvT_S5_, symObjAddr: 0xB358, symBinAddr: 0x4CCE4, symSize: 0x3B4 }
  - { offset: 0x240E1A, size: 0x8, addend: 0x0, symName: __ZNSt3__135__uninitialized_allocator_copy_implB8ne200100INS_9allocatorINS_6vectorIjNS1_IjEEEEEEPS4_S6_S6_EET2_RT_T0_T1_S7_, symObjAddr: 0xBB18, symBinAddr: 0x4D4A4, symSize: 0xF8 }
  - { offset: 0x241A88, size: 0x8, addend: 0x0, symName: __ZNSt3__134__uninitialized_allocator_relocateB8ne200100INS_9allocatorI14llama_kv_cellsEEPS2_EEvRT_T0_S7_S7_, symObjAddr: 0xC8E0, symBinAddr: 0x4E05C, symSize: 0x1F4 }
  - { offset: 0x2429D5, size: 0x8, addend: 0x0, symName: __ZNSt3__134__uninitialized_allocator_relocateB8ne200100INS_9allocatorIN14llama_kv_cache9slot_infoEEEPS3_EEvRT_T0_S8_S8_, symObjAddr: 0xDC88, symBinAddr: 0x4F1D4, symSize: 0xF8 }
  - { offset: 0x242A30, size: 0x8, addend: 0x0, symName: __ZNSt3__134__uninitialized_allocator_relocateB8ne200100INS_9allocatorIN14llama_kv_cache9slot_infoEEEPS3_EEvRT_T0_S8_S8_, symObjAddr: 0xDC88, symBinAddr: 0x4F1D4, symSize: 0xF8 }
  - { offset: 0x24AC6D, size: 0x8, addend: 0x0, symName: __ZN14llama_kv_cache7prepareERKNSt3__16vectorI12llama_ubatchNS0_9allocatorIS2_EEEE, symObjAddr: 0x308C, symBinAddr: 0x44FA4, symSize: 0x11B8 }
  - { offset: 0x24F200, size: 0x8, addend: 0x0, symName: __ZN14llama_kv_cacheC2ERK11llama_model9ggml_typeS3_bbbjjjj14llama_swa_typeRKNSt3__18functionIFbiEEERKNS6_IFiiEEE, symObjAddr: 0x0, symBinAddr: 0x41F74, symSize: 0x11DC }
  - { offset: 0x253EA0, size: 0x8, addend: 0x0, symName: __ZNSt3__16vectorIjNS_9allocatorIjEEE8__appendEm, symObjAddr: 0xC584, symBinAddr: 0x4DD14, symSize: 0x120 }
  - { offset: 0x254287, size: 0x8, addend: 0x0, symName: __ZNSt3__16vectorI14llama_kv_cellsNS_9allocatorIS1_EEE8__appendEm, symObjAddr: 0xC6B8, symBinAddr: 0x4DE34, symSize: 0x1E0 }
  - { offset: 0x2547F5, size: 0x8, addend: 0x0, symName: __ZNSt3__16vectorI14llama_kv_cellsNS_9allocatorIS1_EEE22__base_destruct_at_endB8ne200100EPS1_, symObjAddr: 0xC474, symBinAddr: 0x4DC48, symSize: 0xCC }
  - { offset: 0x254DD1, size: 0x8, addend: 0x0, symName: __ZN14llama_kv_cells6resizeEj, symObjAddr: 0x11DC, symBinAddr: 0x43150, symSize: 0x13C }
  - { offset: 0x255180, size: 0x8, addend: 0x0, symName: __ZNSt3__16vectorIjNS_9allocatorIjEEE8__appendEmRKj, symObjAddr: 0xCC60, symBinAddr: 0x4E3DC, symSize: 0x234 }
  - { offset: 0x2556A7, size: 0x8, addend: 0x0, symName: __ZNSt3__112__hash_tableINS_17__hash_value_typeIiiEENS_22__unordered_map_hasherIiS2_NS_4hashIiEENS_8equal_toIiEELb1EEENS_21__unordered_map_equalIiS2_S7_S5_Lb1EEENS_9allocatorIS2_EEE25__emplace_unique_key_argsIiJRKNS_21piecewise_construct_tENS_5tupleIJOiEEENSI_IJEEEEEENS_4pairINS_15__hash_iteratorIPNS_11__hash_nodeIS2_PvEEEEbEERKT_DpOT0_, symObjAddr: 0xCEDC, symBinAddr: 0x4E610, symSize: 0x328 }
  - { offset: 0x255DDF, size: 0x8, addend: 0x0, symName: __ZNSt3__16vectorIN14llama_kv_cache8kv_layerENS_9allocatorIS2_EEE24__emplace_back_slow_pathIJS2_EEEPS2_DpOT_, symObjAddr: 0xD384, symBinAddr: 0x4EAB8, symSize: 0x1D4 }
  - { offset: 0x256617, size: 0x8, addend: 0x0, symName: __ZNSt3__16vectorIN14llama_kv_cache8kv_layerENS_9allocatorIS2_EEE20__throw_length_errorB8ne200100Ev, symObjAddr: 0xD558, symBinAddr: 0x4EC8C, symSize: 0x14 }
  - { offset: 0x25662D, size: 0x8, addend: 0x0, symName: __ZNSt3__112__hash_tableINS_17__hash_value_typeIiiEENS_22__unordered_map_hasherIiS2_NS_4hashIiEENS_8equal_toIiEELb1EEENS_21__unordered_map_equalIiS2_S7_S5_Lb1EEENS_9allocatorIS2_EEE25__emplace_unique_key_argsIiJRKNS_21piecewise_construct_tENS_5tupleIJRKiEEENSI_IJEEEEEENS_4pairINS_15__hash_iteratorIPNS_11__hash_nodeIS2_PvEEEEbEERKT_DpOT0_, symObjAddr: 0xD56C, symBinAddr: 0x4ECA0, symSize: 0x328 }
  - { offset: 0x256EE1, size: 0x8, addend: 0x0, symName: __ZNSt3__112__hash_tableINS_17__hash_value_typeIiiEENS_22__unordered_map_hasherIiS2_NS_4hashIiEENS_8equal_toIiEELb1EEENS_21__unordered_map_equalIiS2_S7_S5_Lb1EEENS_9allocatorIS2_EEE25__emplace_unique_key_argsIiJRKNS_21piecewise_construct_tENS_5tupleIJOiEEENSI_IJEEEEEENS_4pairINS_15__hash_iteratorIPNS_11__hash_nodeIS2_PvEEEEbEERKT_DpOT0_, symObjAddr: 0xCEDC, symBinAddr: 0x4E610, symSize: 0x328 }
  - { offset: 0x256F0B, size: 0x8, addend: 0x0, symName: __ZNSt3__16__treeIjNS_4lessIjEENS_9allocatorIjEEE7destroyEPNS_11__tree_nodeIjPvEE, symObjAddr: 0xB25C, symBinAddr: 0x4CC5C, symSize: 0x44 }
  - { offset: 0x256F16, size: 0x8, addend: 0x0, symName: __ZN14llama_kv_cache8kv_layerD1Ev, symObjAddr: 0x1318, symBinAddr: 0x4328C, symSize: 0x40 }
  - { offset: 0x257196, size: 0x8, addend: 0x0, symName: __ZNSt3__113unordered_mapIiiNS_4hashIiEENS_8equal_toIiEENS_9allocatorINS_4pairIKiiEEEEED1B8ne200100Ev, symObjAddr: 0x1420, symBinAddr: 0x43394, symSize: 0x48 }
  - { offset: 0x257423, size: 0x8, addend: 0x0, symName: __ZNSt3__16vectorIN14llama_kv_cache8kv_layerENS_9allocatorIS2_EEED1B8ne200100Ev, symObjAddr: 0x1468, symBinAddr: 0x433DC, symSize: 0x80 }
  - { offset: 0x257808, size: 0x8, addend: 0x0, symName: __ZN14llama_kv_cache16stream_copy_infoD1Ev, symObjAddr: 0x14E8, symBinAddr: 0x4345C, symSize: 0x40 }
  - { offset: 0x257A7C, size: 0x8, addend: 0x0, symName: __ZNSt3__16vectorI14llama_kv_cellsNS_9allocatorIS1_EEED1B8ne200100Ev, symObjAddr: 0x1528, symBinAddr: 0x4349C, symSize: 0x38 }
  - { offset: 0x257B87, size: 0x8, addend: 0x0, symName: __ZNSt3__16vectorINS_10unique_ptrI19ggml_backend_buffer27ggml_backend_buffer_deleterEENS_9allocatorIS4_EEED1B8ne200100Ev, symObjAddr: 0x1560, symBinAddr: 0x434D4, symSize: 0x70 }
  - { offset: 0x257D75, size: 0x8, addend: 0x0, symName: __ZNSt3__16vectorINS_10unique_ptrI12ggml_context20ggml_context_deleterEENS_9allocatorIS4_EEED1B8ne200100Ev, symObjAddr: 0x15D0, symBinAddr: 0x43544, symSize: 0x70 }
  - { offset: 0x25843E, size: 0x8, addend: 0x0, symName: __ZNSt3__16vectorINS_6bitsetILm64EEENS_9allocatorIS2_EEE8__appendEm, symObjAddr: 0xAF68, symBinAddr: 0x4CB3C, symSize: 0x120 }
  - { offset: 0x258892, size: 0x8, addend: 0x0, symName: __ZNSt3__16__treeIjNS_4lessIjEENS_9allocatorIjEEE7destroyEPNS_11__tree_nodeIjPvEE, symObjAddr: 0xB25C, symBinAddr: 0x4CC5C, symSize: 0x44 }
  - { offset: 0x2589A9, size: 0x8, addend: 0x0, symName: __ZNSt3__16__treeINS_12__value_typeIiiEENS_19__map_value_compareIiS2_NS_4lessIiEELb1EEENS_9allocatorIS2_EEE7destroyEPNS_11__tree_nodeIS2_PvEE, symObjAddr: 0xB2A0, symBinAddr: 0x4CCA0, symSize: 0x44 }
  - { offset: 0x258AC0, size: 0x8, addend: 0x0, symName: __ZNK14llama_kv_cache12size_k_bytesEv, symObjAddr: 0x1358, symBinAddr: 0x432CC, symSize: 0x64 }
  - { offset: 0x258B6E, size: 0x8, addend: 0x0, symName: __ZNK14llama_kv_cache12size_v_bytesEv, symObjAddr: 0x13BC, symBinAddr: 0x43330, symSize: 0x64 }
  - { offset: 0x2592E8, size: 0x8, addend: 0x0, symName: __ZN14llama_kv_cacheC1ERK11llama_model9ggml_typeS3_bbbjjjj14llama_swa_typeRKNSt3__18functionIFbiEEERKNS6_IFiiEEE, symObjAddr: 0x1640, symBinAddr: 0x435B4, symSize: 0x20 }
  - { offset: 0x259473, size: 0x8, addend: 0x0, symName: __ZN14llama_kv_cache5clearEb, symObjAddr: 0x1660, symBinAddr: 0x435D4, symSize: 0x130 }
  - { offset: 0x259D4A, size: 0x8, addend: 0x0, symName: __ZN14llama_kv_cache6seq_rmEiii, symObjAddr: 0x1790, symBinAddr: 0x43704, symSize: 0x420 }
  - { offset: 0x25A864, size: 0x8, addend: 0x0, symName: __ZN14llama_kv_cells6seq_rmEji, symObjAddr: 0x1BB0, symBinAddr: 0x43B24, symSize: 0x218 }
  - { offset: 0x25A877, size: 0x8, addend: 0x0, symName: __ZN14llama_kv_cells6seq_rmEji, symObjAddr: 0x1BB0, symBinAddr: 0x43B24, symSize: 0x218 }
  - { offset: 0x25AEE3, size: 0x8, addend: 0x0, symName: __ZN14llama_kv_cache6seq_cpEiiii, symObjAddr: 0x1DC8, symBinAddr: 0x43D3C, symSize: 0x580 }
  - { offset: 0x25B5EC, size: 0x8, addend: 0x0, symName: __ZN14llama_kv_cache6seq_cpEiiii, symObjAddr: 0x1DC8, symBinAddr: 0x43D3C, symSize: 0x580 }
  - { offset: 0x25C915, size: 0x8, addend: 0x0, symName: __ZN14llama_kv_cells7seq_addEji, symObjAddr: 0x2348, symBinAddr: 0x442BC, symSize: 0xFC }
  - { offset: 0x25C920, size: 0x8, addend: 0x0, symName: __ZN14llama_kv_cells7seq_addEji, symObjAddr: 0x2348, symBinAddr: 0x442BC, symSize: 0xFC }
  - { offset: 0x25CCB5, size: 0x8, addend: 0x0, symName: __ZNK14llama_kv_cache8get_sizeEv, symObjAddr: 0x2444, symBinAddr: 0x443B8, symSize: 0x24 }
  - { offset: 0x25CCC0, size: 0x8, addend: 0x0, symName: __ZN14llama_kv_cells7pos_addEji, symObjAddr: 0x2468, symBinAddr: 0x443DC, symSize: 0x140 }
  - { offset: 0x25D0FE, size: 0x8, addend: 0x0, symName: __ZNSt3__16vectorI14llama_kv_cellsNS_9allocatorIS1_EEE8__appendEm, symObjAddr: 0xC6B8, symBinAddr: 0x4DE34, symSize: 0x1E0 }
  - { offset: 0x25D571, size: 0x8, addend: 0x0, symName: __ZNK14llama_kv_cache8get_sizeEv, symObjAddr: 0x2444, symBinAddr: 0x443B8, symSize: 0x24 }
  - { offset: 0x25D59E, size: 0x8, addend: 0x0, symName: __ZNK14llama_kv_cache8get_sizeEv, symObjAddr: 0x2444, symBinAddr: 0x443B8, symSize: 0x24 }
  - { offset: 0x25D627, size: 0x8, addend: 0x0, symName: __ZN14llama_kv_cells10seq_pos_rmEj, symObjAddr: 0xB70C, symBinAddr: 0x4D098, symSize: 0x11C }
  - { offset: 0x25D9A8, size: 0x8, addend: 0x0, symName: __ZN14llama_kv_cells11seq_pos_addEj, symObjAddr: 0xB828, symBinAddr: 0x4D1B4, symSize: 0x110 }
  - { offset: 0x25DD2F, size: 0x8, addend: 0x0, symName: __ZN14llama_kv_cache8seq_keepEi, symObjAddr: 0x25A8, symBinAddr: 0x4451C, symSize: 0xE4 }
  - { offset: 0x25DEC1, size: 0x8, addend: 0x0, symName: __ZN14llama_kv_cells8seq_keepEji, symObjAddr: 0x268C, symBinAddr: 0x44600, symSize: 0x228 }
  - { offset: 0x25DED4, size: 0x8, addend: 0x0, symName: __ZN14llama_kv_cells8seq_keepEji, symObjAddr: 0x268C, symBinAddr: 0x44600, symSize: 0x228 }
  - { offset: 0x25E71F, size: 0x8, addend: 0x0, symName: __ZN14llama_kv_cache7seq_addEiiii, symObjAddr: 0x28B4, symBinAddr: 0x44828, symSize: 0x19C }
  - { offset: 0x25E76E, size: 0x8, addend: 0x0, symName: __ZN14llama_kv_cache7seq_addEiiii, symObjAddr: 0x28B4, symBinAddr: 0x44828, symSize: 0x19C }
  - { offset: 0x25E985, size: 0x8, addend: 0x0, symName: __ZN14llama_kv_cache7seq_divEiiii, symObjAddr: 0x2A50, symBinAddr: 0x449C4, symSize: 0x194 }
  - { offset: 0x25E9CF, size: 0x8, addend: 0x0, symName: __ZN14llama_kv_cache7seq_divEiiii, symObjAddr: 0x2A50, symBinAddr: 0x449C4, symSize: 0x194 }
  - { offset: 0x25EC0C, size: 0x8, addend: 0x0, symName: __ZNK14llama_kv_cache11seq_pos_minEi, symObjAddr: 0x2BE4, symBinAddr: 0x44B58, symSize: 0x7C }
  - { offset: 0x25EC80, size: 0x8, addend: 0x0, symName: __ZNK14llama_kv_cache11seq_pos_minEi, symObjAddr: 0x2BE4, symBinAddr: 0x44B58, symSize: 0x7C }
  - { offset: 0x25ED72, size: 0x8, addend: 0x0, symName: __ZNK14llama_kv_cache11seq_pos_maxEi, symObjAddr: 0x2C60, symBinAddr: 0x44BD4, symSize: 0xB8 }
  - { offset: 0x25EE19, size: 0x8, addend: 0x0, symName: __ZNK14llama_kv_cache11seq_pos_maxEi, symObjAddr: 0x2C60, symBinAddr: 0x44BD4, symSize: 0xB8 }
  - { offset: 0x25EF9F, size: 0x8, addend: 0x0, symName: __ZN14llama_kv_cache10init_batchER18llama_batch_allocrjb, symObjAddr: 0x2D18, symBinAddr: 0x44C8C, symSize: 0x318 }
  - { offset: 0x25F6FE, size: 0x8, addend: 0x0, symName: __ZN14llama_kv_cache10init_batchER18llama_batch_allocrjb, symObjAddr: 0x2D18, symBinAddr: 0x44C8C, symSize: 0x318 }
  - { offset: 0x2624C3, size: 0x8, addend: 0x0, symName: __ZNK14llama_kv_cache9find_slotERK12llama_ubatchb, symObjAddr: 0x4610, symBinAddr: 0x463CC, symSize: 0xB80 }
  - { offset: 0x264833, size: 0x8, addend: 0x0, symName: __ZN14llama_kv_cache9slot_infoC2ERKS0_, symObjAddr: 0xB938, symBinAddr: 0x4D2C4, symSize: 0x148 }
  - { offset: 0x264E7F, size: 0x8, addend: 0x0, symName: __ZNSt3__16vectorIN14llama_kv_cache9slot_infoENS_9allocatorIS2_EEE24__emplace_back_slow_pathIJRKS2_EEEPS2_DpOT_, symObjAddr: 0xDB34, symBinAddr: 0x4F080, symSize: 0x140 }
  - { offset: 0x265268, size: 0x8, addend: 0x0, symName: __ZNSt3__16vectorI14llama_kv_cellsNS_9allocatorIS1_EEE24__emplace_back_slow_pathIJS1_EEEPS1_DpOT_, symObjAddr: 0xDE38, symBinAddr: 0x4F384, symSize: 0x230 }
  - { offset: 0x265829, size: 0x8, addend: 0x0, symName: __ZN14llama_kv_cache12apply_ubatchERKNS_9slot_infoERK12llama_ubatch, symObjAddr: 0x533C, symBinAddr: 0x470F8, symSize: 0x9E0 }
  - { offset: 0x266FF3, size: 0x8, addend: 0x0, symName: __ZN14llama_kv_cells3setERKNSt3__16vectorIjNS0_9allocatorIjEEEERKS_, symObjAddr: 0x5D1C, symBinAddr: 0x47AD8, symSize: 0x238 }
  - { offset: 0x267037, size: 0x8, addend: 0x0, symName: __ZN14llama_kv_cells3setERKNSt3__16vectorIjNS0_9allocatorIjEEEERKS_, symObjAddr: 0x5D1C, symBinAddr: 0x47AD8, symSize: 0x238 }
  - { offset: 0x2676CA, size: 0x8, addend: 0x0, symName: __ZNSt3__116allocator_traitsINS_9allocatorIZN14llama_kv_cache7prepareERKNS_6vectorI12llama_ubatchNS1_IS4_EEEEE7state_tEEE7destroyB8ne200100IS9_Li0EEEvRSA_PT_, symObjAddr: 0xDA7C, symBinAddr: 0x4EFC8, symSize: 0xB8 }
  - { offset: 0x267D2F, size: 0x8, addend: 0x0, symName: __ZNSt3__16vectorIZN14llama_kv_cache7prepareERKNS0_I12llama_ubatchNS_9allocatorIS2_EEEEE7state_tNS3_IS8_EEE20__throw_length_errorB8ne200100Ev, symObjAddr: 0xE068, symBinAddr: 0x4F5B4, symSize: 0x14 }
  - { offset: 0x267D47, size: 0x8, addend: 0x0, symName: __ZNSt3__16vectorINS_4pairIjjEENS_9allocatorIS2_EEE20__throw_length_errorB8ne200100Ev, symObjAddr: 0xE07C, symBinAddr: 0x4F5C8, symSize: 0x14 }
  - { offset: 0x267D52, size: 0x8, addend: 0x0, symName: __ZN14llama_kv_cache9slot_infoD1Ev, symObjAddr: 0x5190, symBinAddr: 0x46F4C, symSize: 0x84 }
  - { offset: 0x26812C, size: 0x8, addend: 0x0, symName: __ZN14llama_kv_cellsD1Ev, symObjAddr: 0x5214, symBinAddr: 0x46FD0, symSize: 0x78 }
  - { offset: 0x268658, size: 0x8, addend: 0x0, symName: __ZZN14llama_kv_cache7prepareERKNSt3__16vectorI12llama_ubatchNS0_9allocatorIS2_EEEEEN7state_tD1Ev, symObjAddr: 0x528C, symBinAddr: 0x47048, symSize: 0xB0 }
  - { offset: 0x268C8A, size: 0x8, addend: 0x0, symName: __ZNSt3__16vectorIZN14llama_kv_cache7prepareERKNS0_I12llama_ubatchNS_9allocatorIS2_EEEEE7state_tNS3_IS8_EEED1B8ne200100Ev, symObjAddr: 0x5F54, symBinAddr: 0x47D10, symSize: 0x60 }
  - { offset: 0x268DDC, size: 0x8, addend: 0x0, symName: __ZN14llama_kv_cache9init_fullEv, symObjAddr: 0x43A0, symBinAddr: 0x4615C, symSize: 0x54 }
  - { offset: 0x268E85, size: 0x8, addend: 0x0, symName: __ZN22llama_kv_cache_contextC2EP14llama_kv_cache, symObjAddr: 0xA0A0, symBinAddr: 0x4BE5C, symSize: 0x290 }
  - { offset: 0x269846, size: 0x8, addend: 0x0, symName: __ZN14llama_kv_cache11init_updateEP13llama_contextb, symObjAddr: 0x43F4, symBinAddr: 0x461B0, symSize: 0x160 }
  - { offset: 0x269B4B, size: 0x8, addend: 0x0, symName: __ZNK14llama_kv_cache13get_has_shiftEv, symObjAddr: 0x4554, symBinAddr: 0x46310, symSize: 0xBC }
  - { offset: 0x26A048, size: 0x8, addend: 0x0, symName: __ZNSt3__16vectorINS0_IjNS_9allocatorIjEEEENS1_IS3_EEE8__appendEm, symObjAddr: 0xC2F4, symBinAddr: 0x4DAC8, symSize: 0x180 }
  - { offset: 0x26A489, size: 0x8, addend: 0x0, symName: __ZNSt3__16vectorI14llama_kv_cellsNS_9allocatorIS1_EEE22__base_destruct_at_endB8ne200100EPS1_, symObjAddr: 0xC474, symBinAddr: 0x4DC48, symSize: 0xCC }
  - { offset: 0x26A5D9, size: 0x8, addend: 0x0, symName: __ZN14llama_kv_cache6updateEP13llama_contextbRKNS_16stream_copy_infoE, symObjAddr: 0x5FB4, symBinAddr: 0x47D70, symSize: 0x32C }
  - { offset: 0x26A9A7, size: 0x8, addend: 0x0, symName: __ZNK14llama_kv_cache17build_graph_shiftEP16llm_graph_resultP13llama_context, symObjAddr: 0x62E0, symBinAddr: 0x4809C, symSize: 0x290 }
  - { offset: 0x26A9E8, size: 0x8, addend: 0x0, symName: __ZNK14llama_kv_cache17build_graph_shiftEP16llm_graph_resultP13llama_context, symObjAddr: 0x62E0, symBinAddr: 0x4809C, symSize: 0x290 }
  - { offset: 0x26B30E, size: 0x8, addend: 0x0, symName: __ZNK14llama_kv_cache16build_rope_shiftERK13llama_cparamsP12ggml_contextP11ggml_tensorS6_S6_ff, symObjAddr: 0x825C, symBinAddr: 0x4A018, symSize: 0x158 }
  - { offset: 0x26B4B8, size: 0x8, addend: 0x0, symName: __ZNK14llama_kv_cache13is_masked_swaEii, symObjAddr: 0x6570, symBinAddr: 0x4832C, symSize: 0x50 }
  - { offset: 0x26B500, size: 0x8, addend: 0x0, symName: __ZNK14llama_kv_cache13get_can_shiftEv, symObjAddr: 0x65C0, symBinAddr: 0x4837C, symSize: 0x8 }
  - { offset: 0x26B526, size: 0x8, addend: 0x0, symName: __ZNK14llama_kv_cache12get_n_streamEv, symObjAddr: 0x65C8, symBinAddr: 0x48384, symSize: 0x8 }
  - { offset: 0x26B586, size: 0x8, addend: 0x0, symName: __ZNK14llama_kv_cache8get_n_kvEv, symObjAddr: 0x65D0, symBinAddr: 0x4838C, symSize: 0xB0 }
  - { offset: 0x26B743, size: 0x8, addend: 0x0, symName: __ZNK14llama_kv_cache21get_supports_set_rowsEv, symObjAddr: 0x6680, symBinAddr: 0x4843C, symSize: 0x8 }
  - { offset: 0x26B83B, size: 0x8, addend: 0x0, symName: __ZNK14llama_kv_cache5get_kEP12ggml_contextijRKNS_9slot_infoE, symObjAddr: 0x6688, symBinAddr: 0x48444, symSize: 0x200 }
  - { offset: 0x26BBC7, size: 0x8, addend: 0x0, symName: __ZNK14llama_kv_cache5get_vEP12ggml_contextijRKNS_9slot_infoE, symObjAddr: 0x6888, symBinAddr: 0x48644, symSize: 0x294 }
  - { offset: 0x26BC12, size: 0x8, addend: 0x0, symName: __ZNK14llama_kv_cache5get_vEP12ggml_contextijRKNS_9slot_infoE, symObjAddr: 0x6888, symBinAddr: 0x48644, symSize: 0x294 }
  - { offset: 0x26BFB6, size: 0x8, addend: 0x0, symName: __ZNK14llama_kv_cache5cpy_kEP12ggml_contextP11ggml_tensorS3_iRKNS_9slot_infoE, symObjAddr: 0x6B1C, symBinAddr: 0x488D8, symSize: 0x280 }
  - { offset: 0x26BFD7, size: 0x8, addend: 0x0, symName: __ZNK14llama_kv_cache5cpy_kEP12ggml_contextP11ggml_tensorS3_iRKNS_9slot_infoE, symObjAddr: 0x6B1C, symBinAddr: 0x488D8, symSize: 0x280 }
  - { offset: 0x26C343, size: 0x8, addend: 0x0, symName: __ZNK14llama_kv_cache5cpy_vEP12ggml_contextP11ggml_tensorS3_iRKNS_9slot_infoE, symObjAddr: 0x6D9C, symBinAddr: 0x48B58, symSize: 0x374 }
  - { offset: 0x26C3D8, size: 0x8, addend: 0x0, symName: __ZNK14llama_kv_cache5cpy_vEP12ggml_contextP11ggml_tensorS3_iRKNS_9slot_infoE, symObjAddr: 0x6D9C, symBinAddr: 0x48B58, symSize: 0x374 }
  - { offset: 0x26C890, size: 0x8, addend: 0x0, symName: __ZNK14llama_kv_cache18build_input_k_idxsEP12ggml_contextRK12llama_ubatch, symObjAddr: 0x7110, symBinAddr: 0x48ECC, symSize: 0x34 }
  - { offset: 0x26C8F9, size: 0x8, addend: 0x0, symName: __ZNK14llama_kv_cache18build_input_k_idxsEP12ggml_contextRK12llama_ubatch, symObjAddr: 0x7110, symBinAddr: 0x48ECC, symSize: 0x34 }
  - { offset: 0x26C964, size: 0x8, addend: 0x0, symName: __ZNK14llama_kv_cache18build_input_v_idxsEP12ggml_contextRK12llama_ubatch, symObjAddr: 0x7144, symBinAddr: 0x48F00, symSize: 0x54 }
  - { offset: 0x26C9D7, size: 0x8, addend: 0x0, symName: __ZNK14llama_kv_cache16set_input_k_idxsEP11ggml_tensorPK12llama_ubatchRKNS_9slot_infoE, symObjAddr: 0x7198, symBinAddr: 0x48F54, symSize: 0x404 }
  - { offset: 0x26CB74, size: 0x8, addend: 0x0, symName: __ZNK14llama_kv_cache16set_input_v_idxsEP11ggml_tensorPK12llama_ubatchRKNS_9slot_infoE, symObjAddr: 0x759C, symBinAddr: 0x49358, symSize: 0x5B0 }
  - { offset: 0x26CB99, size: 0x8, addend: 0x0, symName: __ZNK14llama_kv_cache16set_input_v_idxsEP11ggml_tensorPK12llama_ubatchRKNS_9slot_infoE, symObjAddr: 0x759C, symBinAddr: 0x49358, symSize: 0x5B0 }
  - { offset: 0x26CE78, size: 0x8, addend: 0x0, symName: __ZNK14llama_kv_cache17set_input_k_shiftEP11ggml_tensor, symObjAddr: 0x7B4C, symBinAddr: 0x49908, symSize: 0x310 }
  - { offset: 0x26CE8B, size: 0x8, addend: 0x0, symName: __ZNK14llama_kv_cache17set_input_k_shiftEP11ggml_tensor, symObjAddr: 0x7B4C, symBinAddr: 0x49908, symSize: 0x310 }
  - { offset: 0x26CF9E, size: 0x8, addend: 0x0, symName: __ZNK14llama_kv_cache17set_input_kq_maskEP11ggml_tensorPK12llama_ubatchb, symObjAddr: 0x7E5C, symBinAddr: 0x49C18, symSize: 0x25C }
  - { offset: 0x26CFB1, size: 0x8, addend: 0x0, symName: __ZNK14llama_kv_cache17set_input_kq_maskEP11ggml_tensorPK12llama_ubatchb, symObjAddr: 0x7E5C, symBinAddr: 0x49C18, symSize: 0x25C }
  - { offset: 0x26D2FB, size: 0x8, addend: 0x0, symName: __ZNK14llama_kv_cache20set_input_pos_bucketEP11ggml_tensorPK12llama_ubatch, symObjAddr: 0x80B8, symBinAddr: 0x49E74, symSize: 0x144 }
  - { offset: 0x26D337, size: 0x8, addend: 0x0, symName: __ZNK14llama_kv_cache20set_input_pos_bucketEP11ggml_tensorPK12llama_ubatch, symObjAddr: 0x80B8, symBinAddr: 0x49E74, symSize: 0x144 }
  - { offset: 0x26D4FC, size: 0x8, addend: 0x0, symName: __ZNK14llama_kv_cache10total_sizeEv, symObjAddr: 0x81FC, symBinAddr: 0x49FB8, symSize: 0x60 }
  - { offset: 0x26D54A, size: 0x8, addend: 0x0, symName: __ZNK14llama_kv_cache10total_sizeEv, symObjAddr: 0x81FC, symBinAddr: 0x49FB8, symSize: 0x60 }
  - { offset: 0x26D750, size: 0x8, addend: 0x0, symName: __ZN23llm_graph_input_k_shift9set_inputEPK12llama_ubatch, symObjAddr: 0x83B4, symBinAddr: 0x4A170, symSize: 0x314 }
  - { offset: 0x26D88D, size: 0x8, addend: 0x0, symName: __ZNK14llama_kv_cache11state_writeER16llama_io_write_iij, symObjAddr: 0x86C8, symBinAddr: 0x4A484, symSize: 0x51C }
  - { offset: 0x26E00A, size: 0x8, addend: 0x0, symName: __ZNK14llama_kv_cache11state_writeER16llama_io_write_iij, symObjAddr: 0x86C8, symBinAddr: 0x4A484, symSize: 0x51C }
  - { offset: 0x26ECE3, size: 0x8, addend: 0x0, symName: __ZNK14llama_kv_cache16state_write_metaER16llama_io_write_iRKNS_13cell_ranges_tEi, symObjAddr: 0x8BE4, symBinAddr: 0x4A9A0, symSize: 0x270 }
  - { offset: 0x26F44A, size: 0x8, addend: 0x0, symName: __ZNK14llama_kv_cache16state_write_dataER16llama_io_write_iRKNS_13cell_ranges_tE, symObjAddr: 0x8E54, symBinAddr: 0x4AC10, symSize: 0x37C }
  - { offset: 0x26FC6B, size: 0x8, addend: 0x0, symName: __ZNSt3__16vectorINS_4pairIjjEENS_9allocatorIS2_EEE20__throw_length_errorB8ne200100Ev, symObjAddr: 0xE07C, symBinAddr: 0x4F5C8, symSize: 0x14 }
  - { offset: 0x26FC83, size: 0x8, addend: 0x0, symName: __ZNSt3__16vectorIN14llama_kv_cache9slot_infoENS_9allocatorIS2_EEE8__appendEm, symObjAddr: 0xE090, symBinAddr: 0x4F5DC, symSize: 0x1D0 }
  - { offset: 0x26FE5A, size: 0x8, addend: 0x0, symName: __ZN14llama_kv_cache10state_readER15llama_io_read_iij, symObjAddr: 0x91D0, symBinAddr: 0x4AF8C, symSize: 0x248 }
  - { offset: 0x27006E, size: 0x8, addend: 0x0, symName: __ZN14llama_kv_cache15state_read_metaER15llama_io_read_ijji, symObjAddr: 0x9418, symBinAddr: 0x4B1D4, symSize: 0x668 }
  - { offset: 0x270E75, size: 0x8, addend: 0x0, symName: __ZN14llama_kv_cache15state_read_dataER15llama_io_read_ijj, symObjAddr: 0x9A80, symBinAddr: 0x4B83C, symSize: 0x5B0 }
  - { offset: 0x2720C2, size: 0x8, addend: 0x0, symName: __ZN22llama_kv_cache_contextC2E19llama_memory_status, symObjAddr: 0xA030, symBinAddr: 0x4BDEC, symSize: 0x38 }
  - { offset: 0x272166, size: 0x8, addend: 0x0, symName: __ZN22llama_kv_cache_contextC1E19llama_memory_status, symObjAddr: 0xA068, symBinAddr: 0x4BE24, symSize: 0x38 }
  - { offset: 0x27218F, size: 0x8, addend: 0x0, symName: __ZN22llama_kv_cache_contextC1E19llama_memory_status, symObjAddr: 0xA068, symBinAddr: 0x4BE24, symSize: 0x38 }
  - { offset: 0x2723EA, size: 0x8, addend: 0x0, symName: __ZNSt3__16vectorIN14llama_kv_cache9slot_infoENS_9allocatorIS2_EEE6resizeEm, symObjAddr: 0xA330, symBinAddr: 0x4C0EC, symSize: 0xF0 }
  - { offset: 0x2728E5, size: 0x8, addend: 0x0, symName: __ZNSt3__16vectorIN14llama_kv_cache9slot_infoENS_9allocatorIS2_EEE8__appendEm, symObjAddr: 0xE090, symBinAddr: 0x4F5DC, symSize: 0x1D0 }
  - { offset: 0x272E2C, size: 0x8, addend: 0x0, symName: __ZN22llama_kv_cache_contextC1EP14llama_kv_cache, symObjAddr: 0xA420, symBinAddr: 0x4C1DC, symSize: 0x4 }
  - { offset: 0x272E56, size: 0x8, addend: 0x0, symName: __ZN22llama_kv_cache_contextC1EP14llama_kv_cache, symObjAddr: 0xA420, symBinAddr: 0x4C1DC, symSize: 0x4 }
  - { offset: 0x272E70, size: 0x8, addend: 0x0, symName: __ZN22llama_kv_cache_contextC2EP14llama_kv_cacheP13llama_contextbNS0_16stream_copy_infoE, symObjAddr: 0xA424, symBinAddr: 0x4C1E0, symSize: 0x8C }
  - { offset: 0x27300F, size: 0x8, addend: 0x0, symName: __ZN22llama_kv_cache_contextC1EP14llama_kv_cacheP13llama_contextbNS0_16stream_copy_infoE, symObjAddr: 0xA4B0, symBinAddr: 0x4C26C, symSize: 0x8C }
  - { offset: 0x2731E6, size: 0x8, addend: 0x0, symName: __ZN22llama_kv_cache_contextC2EP14llama_kv_cacheNSt3__16vectorINS0_9slot_infoENS2_9allocatorIS4_EEEENS3_I12llama_ubatchNS5_IS8_EEEE, symObjAddr: 0xA53C, symBinAddr: 0x4C2F8, symSize: 0x6C }
  - { offset: 0x273336, size: 0x8, addend: 0x0, symName: __ZN22llama_kv_cache_contextC1EP14llama_kv_cacheNSt3__16vectorINS0_9slot_infoENS2_9allocatorIS4_EEEENS3_I12llama_ubatchNS5_IS8_EEEE, symObjAddr: 0xA5A8, symBinAddr: 0x4C364, symSize: 0x6C }
  - { offset: 0x27336F, size: 0x8, addend: 0x0, symName: __ZN22llama_kv_cache_contextC1EP14llama_kv_cacheNSt3__16vectorINS0_9slot_infoENS2_9allocatorIS4_EEEENS3_I12llama_ubatchNS5_IS8_EEEE, symObjAddr: 0xA5A8, symBinAddr: 0x4C364, symSize: 0x6C }
  - { offset: 0x2734D6, size: 0x8, addend: 0x0, symName: __ZN22llama_kv_cache_contextD2Ev, symObjAddr: 0xA614, symBinAddr: 0x4C3D0, symSize: 0x158 }
  - { offset: 0x273F00, size: 0x8, addend: 0x0, symName: __ZN22llama_kv_cache_contextD1Ev, symObjAddr: 0xA76C, symBinAddr: 0x4C528, symSize: 0x4 }
  - { offset: 0x273F23, size: 0x8, addend: 0x0, symName: __ZN22llama_kv_cache_contextD1Ev, symObjAddr: 0xA76C, symBinAddr: 0x4C528, symSize: 0x4 }
  - { offset: 0x273F53, size: 0x8, addend: 0x0, symName: __ZN22llama_kv_cache_contextD0Ev, symObjAddr: 0xA770, symBinAddr: 0x4C52C, symSize: 0x14 }
  - { offset: 0x273FB1, size: 0x8, addend: 0x0, symName: __ZN22llama_kv_cache_context4nextEv, symObjAddr: 0xA784, symBinAddr: 0x4C540, symSize: 0x38 }
  - { offset: 0x274074, size: 0x8, addend: 0x0, symName: __ZN22llama_kv_cache_context5applyEv, symObjAddr: 0xA7BC, symBinAddr: 0x4C578, symSize: 0x118 }
  - { offset: 0x2742E8, size: 0x8, addend: 0x0, symName: __ZNK22llama_kv_cache_context10get_statusEv, symObjAddr: 0xA8D4, symBinAddr: 0x4C690, symSize: 0x8 }
  - { offset: 0x274334, size: 0x8, addend: 0x0, symName: __ZNK22llama_kv_cache_context10get_ubatchEv, symObjAddr: 0xA8DC, symBinAddr: 0x4C698, symSize: 0x14 }
  - { offset: 0x274385, size: 0x8, addend: 0x0, symName: __ZNK22llama_kv_cache_context8get_n_kvEv, symObjAddr: 0xA8F0, symBinAddr: 0x4C6AC, symSize: 0x8 }
  - { offset: 0x2743C8, size: 0x8, addend: 0x0, symName: __ZNK22llama_kv_cache_context21get_supports_set_rowsEv, symObjAddr: 0xA8F8, symBinAddr: 0x4C6B4, symSize: 0xC }
  - { offset: 0x274431, size: 0x8, addend: 0x0, symName: __ZNK22llama_kv_cache_context5get_kEP12ggml_contexti, symObjAddr: 0xA904, symBinAddr: 0x4C6C0, symSize: 0x1C }
  - { offset: 0x2744BB, size: 0x8, addend: 0x0, symName: __ZNK22llama_kv_cache_context5get_vEP12ggml_contexti, symObjAddr: 0xA920, symBinAddr: 0x4C6DC, symSize: 0x1C }
  - { offset: 0x274545, size: 0x8, addend: 0x0, symName: __ZNK22llama_kv_cache_context5cpy_kEP12ggml_contextP11ggml_tensorS3_i, symObjAddr: 0xA93C, symBinAddr: 0x4C6F8, symSize: 0x18 }
  - { offset: 0x2745F9, size: 0x8, addend: 0x0, symName: __ZNK22llama_kv_cache_context5cpy_vEP12ggml_contextP11ggml_tensorS3_i, symObjAddr: 0xA954, symBinAddr: 0x4C710, symSize: 0x18 }
  - { offset: 0x2746F6, size: 0x8, addend: 0x0, symName: __ZNK22llama_kv_cache_context18build_input_k_idxsEP12ggml_contextRK12llama_ubatch, symObjAddr: 0xA96C, symBinAddr: 0x4C728, symSize: 0x34 }
  - { offset: 0x2747E2, size: 0x8, addend: 0x0, symName: __ZNK22llama_kv_cache_context18build_input_v_idxsEP12ggml_contextRK12llama_ubatch, symObjAddr: 0xA9A0, symBinAddr: 0x4C75C, symSize: 0x58 }
  - { offset: 0x274893, size: 0x8, addend: 0x0, symName: __ZNK22llama_kv_cache_context17set_input_k_shiftEP11ggml_tensor, symObjAddr: 0xA9F8, symBinAddr: 0x4C7B4, symSize: 0x310 }
  - { offset: 0x2749D5, size: 0x8, addend: 0x0, symName: __ZNK22llama_kv_cache_context16set_input_k_idxsEP11ggml_tensorPK12llama_ubatch, symObjAddr: 0xAD08, symBinAddr: 0x4CAC4, symSize: 0x18 }
  - { offset: 0x2749E8, size: 0x8, addend: 0x0, symName: __ZNK22llama_kv_cache_context16set_input_k_idxsEP11ggml_tensorPK12llama_ubatch, symObjAddr: 0xAD08, symBinAddr: 0x4CAC4, symSize: 0x18 }
  - { offset: 0x274A72, size: 0x8, addend: 0x0, symName: __ZNK22llama_kv_cache_context16set_input_v_idxsEP11ggml_tensorPK12llama_ubatch, symObjAddr: 0xAD20, symBinAddr: 0x4CADC, symSize: 0x18 }
  - { offset: 0x274AFC, size: 0x8, addend: 0x0, symName: __ZNK22llama_kv_cache_context17set_input_kq_maskEP11ggml_tensorPK12llama_ubatchb, symObjAddr: 0xAD38, symBinAddr: 0x4CAF4, symSize: 0x8 }
  - { offset: 0x274B79, size: 0x8, addend: 0x0, symName: __ZNK22llama_kv_cache_context20set_input_pos_bucketEP11ggml_tensorPK12llama_ubatch, symObjAddr: 0xAD40, symBinAddr: 0x4CAFC, symSize: 0x8 }
  - { offset: 0x274BDC, size: 0x8, addend: 0x0, symName: __ZN14llama_kv_cache11get_paddingERK13llama_cparams, symObjAddr: 0xAD48, symBinAddr: 0x4CB04, symSize: 0x18 }
  - { offset: 0x274C04, size: 0x8, addend: 0x0, symName: __ZN14llama_kv_cacheD1Ev, symObjAddr: 0xAD60, symBinAddr: 0x4CB1C, symSize: 0x4 }
  - { offset: 0x274C27, size: 0x8, addend: 0x0, symName: __ZN14llama_kv_cacheD1Ev, symObjAddr: 0xAD60, symBinAddr: 0x4CB1C, symSize: 0x4 }
  - { offset: 0x274C3A, size: 0x8, addend: 0x0, symName: __ZN14llama_kv_cacheD2Ev, symObjAddr: 0xC154, symBinAddr: 0x4D928, symSize: 0x1A0 }
  - { offset: 0x275CB1, size: 0x8, addend: 0x0, symName: __ZN14llama_kv_cacheD0Ev, symObjAddr: 0xAD64, symBinAddr: 0x4CB20, symSize: 0x14 }
  - { offset: 0x275D0B, size: 0x8, addend: 0x0, symName: __ZN23llm_graph_input_k_shiftD1Ev, symObjAddr: 0xAD78, symBinAddr: 0x4CB34, symSize: 0x4 }
  - { offset: 0x275D34, size: 0x8, addend: 0x0, symName: __ZN23llm_graph_input_k_shiftD0Ev, symObjAddr: 0xAD7C, symBinAddr: 0x4CB38, symSize: 0x4 }
  - { offset: 0x27622B, size: 0x8, addend: 0x0, symName: __ZNSt3__16vectorINS0_IjNS_9allocatorIjEEEENS1_IS3_EEE20__throw_length_errorB8ne200100Ev, symObjAddr: 0xBB04, symBinAddr: 0x4D490, symSize: 0x14 }
  - { offset: 0x276243, size: 0x8, addend: 0x0, symName: __ZNSt3__135__uninitialized_allocator_copy_implB8ne200100INS_9allocatorINS_6vectorIjNS1_IjEEEEEEPS4_S6_S6_EET2_RT_T0_T1_S7_, symObjAddr: 0xBB18, symBinAddr: 0x4D4A4, symSize: 0xF8 }
  - { offset: 0x27624E, size: 0x8, addend: 0x0, symName: __ZNSt3__128__exception_guard_exceptionsINS_6vectorINS1_IjNS_9allocatorIjEEEENS2_IS4_EEE16__destroy_vectorEED1B8ne200100Ev, symObjAddr: 0xBA80, symBinAddr: 0x4D40C, symSize: 0x84 }
  - { offset: 0x276577, size: 0x8, addend: 0x0, symName: __ZNSt3__128__exception_guard_exceptionsINS_29_AllocatorDestroyRangeReverseINS_9allocatorINS_6vectorIjNS2_IjEEEEEEPS5_EEED1B8ne200100Ev, symObjAddr: 0xBC10, symBinAddr: 0x4D59C, symSize: 0x6C }
  - { offset: 0x276773, size: 0x8, addend: 0x0, symName: __ZN14llama_kv_cellsC2Ev, symObjAddr: 0xBC7C, symBinAddr: 0x4D608, symSize: 0x320 }
  - { offset: 0x2779ED, size: 0x8, addend: 0x0, symName: __ZNSt3__114__split_bufferI14llama_kv_cellsRNS_9allocatorIS1_EEE17__destruct_at_endB8ne200100EPS1_, symObjAddr: 0xCB90, symBinAddr: 0x4E30C, symSize: 0xD0 }
  - { offset: 0x278017, size: 0x8, addend: 0x0, symName: __ZNSt3__16vectorI14llama_kv_cellsNS_9allocatorIS1_EEE20__throw_length_errorB8ne200100Ev, symObjAddr: 0xC8CC, symBinAddr: 0x4E048, symSize: 0x14 }
  - { offset: 0x27802F, size: 0x8, addend: 0x0, symName: __ZNSt3__134__uninitialized_allocator_relocateB8ne200100INS_9allocatorI14llama_kv_cellsEEPS2_EEvRT_T0_S7_S7_, symObjAddr: 0xC8E0, symBinAddr: 0x4E05C, symSize: 0x1F4 }
  - { offset: 0x27803A, size: 0x8, addend: 0x0, symName: __ZNSt3__114__split_bufferI14llama_kv_cellsRNS_9allocatorIS1_EEED1Ev, symObjAddr: 0xC898, symBinAddr: 0x4E014, symSize: 0x34 }
  - { offset: 0x278173, size: 0x8, addend: 0x0, symName: __ZNKSt3__129_AllocatorDestroyRangeReverseINS_9allocatorI14llama_kv_cellsEEPS2_EclB8ne200100Ev, symObjAddr: 0xCAD4, symBinAddr: 0x4E250, symSize: 0xBC }
  - { offset: 0x278D68, size: 0x8, addend: 0x0, symName: __ZNSt3__112__hash_tableINS_17__hash_value_typeIiiEENS_22__unordered_map_hasherIiS2_NS_4hashIiEENS_8equal_toIiEELb1EEENS_21__unordered_map_equalIiS2_S7_S5_Lb1EEENS_9allocatorIS2_EEE11__do_rehashILb1EEEvm, symObjAddr: 0xD204, symBinAddr: 0x4E938, symSize: 0x180 }
  - { offset: 0x2790F5, size: 0x8, addend: 0x0, symName: __ZNSt3__16vectorIN14llama_kv_cache8kv_layerENS_9allocatorIS2_EEE24__emplace_back_slow_pathIJS2_EEEPS2_DpOT_, symObjAddr: 0xD384, symBinAddr: 0x4EAB8, symSize: 0x1D4 }
  - { offset: 0x2792F5, size: 0x8, addend: 0x0, symName: __ZNSt3__16vectorIN14llama_kv_cache8kv_layerENS_9allocatorIS2_EEE20__throw_length_errorB8ne200100Ev, symObjAddr: 0xD558, symBinAddr: 0x4EC8C, symSize: 0x14 }
  - { offset: 0x27930D, size: 0x8, addend: 0x0, symName: __ZNSt3__112__hash_tableINS_17__hash_value_typeIiiEENS_22__unordered_map_hasherIiS2_NS_4hashIiEENS_8equal_toIiEELb1EEENS_21__unordered_map_equalIiS2_S7_S5_Lb1EEENS_9allocatorIS2_EEE25__emplace_unique_key_argsIiJRKNS_21piecewise_construct_tENS_5tupleIJRKiEEENSI_IJEEEEEENS_4pairINS_15__hash_iteratorIPNS_11__hash_nodeIS2_PvEEEEbEERKT_DpOT0_, symObjAddr: 0xD56C, symBinAddr: 0x4ECA0, symSize: 0x328 }
  - { offset: 0x2795CE, size: 0x8, addend: 0x0, symName: __ZNSt3__116allocator_traitsINS_9allocatorIZN14llama_kv_cache7prepareERKNS_6vectorI12llama_ubatchNS1_IS4_EEEEE7state_tEEE7destroyB8ne200100IS9_Li0EEEvRSA_PT_, symObjAddr: 0xDA7C, symBinAddr: 0x4EFC8, symSize: 0xB8 }
  - { offset: 0x279746, size: 0x8, addend: 0x0, symName: __ZNSt3__16vectorIN14llama_kv_cache9slot_infoENS_9allocatorIS2_EEE20__throw_length_errorB8ne200100Ev, symObjAddr: 0xDC74, symBinAddr: 0x4F1C0, symSize: 0x14 }
  - { offset: 0x27975E, size: 0x8, addend: 0x0, symName: __ZNSt3__134__uninitialized_allocator_relocateB8ne200100INS_9allocatorIN14llama_kv_cache9slot_infoEEEPS3_EEvRT_T0_S8_S8_, symObjAddr: 0xDC88, symBinAddr: 0x4F1D4, symSize: 0xF8 }
  - { offset: 0x279769, size: 0x8, addend: 0x0, symName: __ZNSt3__114__split_bufferIN14llama_kv_cache9slot_infoERNS_9allocatorIS2_EEED2Ev, symObjAddr: 0xDD80, symBinAddr: 0x4F2CC, symSize: 0xB8 }
  - { offset: 0x27BD95, size: 0x8, addend: 0x0, symName: __ZN19llama_memory_hybridC2ERK11llama_model9ggml_typeS3_bjjj14llama_swa_typeS3_S3_jjbbRKNSt3__18functionIFbiEEESA_, symObjAddr: 0x0, symBinAddr: 0x4F7AC, symSize: 0x340 }
  - { offset: 0x29FE02, size: 0x8, addend: 0x0, symName: __ZNSt3__111make_uniqueB8ne200100I27llama_memory_hybrid_contextJP19llama_memory_hybridNS_6vectorIN14llama_kv_cache9slot_infoENS_9allocatorIS6_EEEENS4_I12llama_ubatchNS7_ISA_EEEEELi0EEENS_10unique_ptrIT_NS_14default_deleteISE_EEEEDpOT0_, symObjAddr: 0x994, symBinAddr: 0x500E4, symSize: 0x1B0 }
  - { offset: 0x2A887C, size: 0x8, addend: 0x0, symName: __ZN19llama_memory_hybridC1ERK11llama_model9ggml_typeS3_bjjj14llama_swa_typeS3_S3_jjbbRKNSt3__18functionIFbiEEESA_, symObjAddr: 0x340, symBinAddr: 0x4FAEC, symSize: 0x34 }
  - { offset: 0x2A9441, size: 0x8, addend: 0x0, symName: __ZN19llama_memory_hybridC2ERK11llama_model9ggml_typeS3_bjjj14llama_swa_typeS3_S3_jjbbRKNSt3__18functionIFbiEEESA_, symObjAddr: 0x0, symBinAddr: 0x4F7AC, symSize: 0x340 }
  - { offset: 0x2AA977, size: 0x8, addend: 0x0, symName: __ZN19llama_memory_hybrid10init_batchER18llama_batch_allocrjb, symObjAddr: 0x374, symBinAddr: 0x4FB20, symSize: 0x5C4 }
  - { offset: 0x2AC5E5, size: 0x8, addend: 0x0, symName: __ZN27llama_memory_hybrid_contextC2EP19llama_memory_hybridNSt3__16vectorIN14llama_kv_cache9slot_infoENS2_9allocatorIS5_EEEENS3_I12llama_ubatchNS6_IS9_EEEE, symObjAddr: 0x13B4, symBinAddr: 0x509A8, symSize: 0x4E8 }
  - { offset: 0x2ADBC3, size: 0x8, addend: 0x0, symName: __ZN19llama_memory_hybrid9init_fullEv, symObjAddr: 0xCA0, symBinAddr: 0x50294, symSize: 0x54 }
  - { offset: 0x2ADC69, size: 0x8, addend: 0x0, symName: __ZN27llama_memory_hybrid_contextC2EP19llama_memory_hybrid, symObjAddr: 0x114C, symBinAddr: 0x50740, symSize: 0x120 }
  - { offset: 0x2ADF17, size: 0x8, addend: 0x0, symName: __ZN19llama_memory_hybrid11init_updateEP13llama_contextb, symObjAddr: 0xCF4, symBinAddr: 0x502E8, symSize: 0x6C }
  - { offset: 0x2ADFFA, size: 0x8, addend: 0x0, symName: __ZN27llama_memory_hybrid_contextC2EP19llama_memory_hybridP13llama_contextb, symObjAddr: 0x1270, symBinAddr: 0x50864, symSize: 0x140 }
  - { offset: 0x2AE29E, size: 0x8, addend: 0x0, symName: __ZNK19llama_memory_hybrid13get_can_shiftEv, symObjAddr: 0xD60, symBinAddr: 0x50354, symSize: 0x10 }
  - { offset: 0x2AE2C9, size: 0x8, addend: 0x0, symName: __ZNK19llama_memory_hybrid13get_can_shiftEv, symObjAddr: 0xD60, symBinAddr: 0x50354, symSize: 0x10 }
  - { offset: 0x2AE2F1, size: 0x8, addend: 0x0, symName: __ZN19llama_memory_hybrid5clearEb, symObjAddr: 0xD70, symBinAddr: 0x50364, symSize: 0x40 }
  - { offset: 0x2AE385, size: 0x8, addend: 0x0, symName: __ZN19llama_memory_hybrid6seq_rmEiii, symObjAddr: 0xDB0, symBinAddr: 0x503A4, symSize: 0x6C }
  - { offset: 0x2AE445, size: 0x8, addend: 0x0, symName: __ZN19llama_memory_hybrid6seq_cpEiiii, symObjAddr: 0xE1C, symBinAddr: 0x50410, symSize: 0x68 }
  - { offset: 0x2AE51B, size: 0x8, addend: 0x0, symName: __ZN19llama_memory_hybrid8seq_keepEi, symObjAddr: 0xE84, symBinAddr: 0x50478, symSize: 0x40 }
  - { offset: 0x2AE5AF, size: 0x8, addend: 0x0, symName: __ZN19llama_memory_hybrid7seq_addEiiii, symObjAddr: 0xEC4, symBinAddr: 0x504B8, symSize: 0x68 }
  - { offset: 0x2AE685, size: 0x8, addend: 0x0, symName: __ZN19llama_memory_hybrid7seq_divEiiii, symObjAddr: 0xF2C, symBinAddr: 0x50520, symSize: 0x68 }
  - { offset: 0x2AE75B, size: 0x8, addend: 0x0, symName: __ZNK19llama_memory_hybrid11seq_pos_minEi, symObjAddr: 0xF94, symBinAddr: 0x50588, symSize: 0x58 }
  - { offset: 0x2AE7F6, size: 0x8, addend: 0x0, symName: __ZNK19llama_memory_hybrid11seq_pos_maxEi, symObjAddr: 0xFEC, symBinAddr: 0x505E0, symSize: 0x58 }
  - { offset: 0x2AE891, size: 0x8, addend: 0x0, symName: __ZNK19llama_memory_hybrid11state_writeER16llama_io_write_iij, symObjAddr: 0x1044, symBinAddr: 0x50638, symSize: 0x58 }
  - { offset: 0x2AE951, size: 0x8, addend: 0x0, symName: __ZN19llama_memory_hybrid10state_readER15llama_io_read_iij, symObjAddr: 0x109C, symBinAddr: 0x50690, symSize: 0x58 }
  - { offset: 0x2AEA27, size: 0x8, addend: 0x0, symName: __ZNK19llama_memory_hybrid12get_mem_attnEv, symObjAddr: 0x10F4, symBinAddr: 0x506E8, symSize: 0x8 }
  - { offset: 0x2AEA4B, size: 0x8, addend: 0x0, symName: __ZNK19llama_memory_hybrid12get_mem_attnEv, symObjAddr: 0x10F4, symBinAddr: 0x506E8, symSize: 0x8 }
  - { offset: 0x2AEA7D, size: 0x8, addend: 0x0, symName: __ZNK19llama_memory_hybrid12get_mem_recrEv, symObjAddr: 0x10FC, symBinAddr: 0x506F0, symSize: 0x8 }
  - { offset: 0x2AEAA1, size: 0x8, addend: 0x0, symName: __ZNK19llama_memory_hybrid12get_mem_recrEv, symObjAddr: 0x10FC, symBinAddr: 0x506F0, symSize: 0x8 }
  - { offset: 0x2AEABD, size: 0x8, addend: 0x0, symName: __ZN27llama_memory_hybrid_contextC2E19llama_memory_status, symObjAddr: 0x1104, symBinAddr: 0x506F8, symSize: 0x24 }
  - { offset: 0x2AEB20, size: 0x8, addend: 0x0, symName: __ZN27llama_memory_hybrid_contextC1E19llama_memory_status, symObjAddr: 0x1128, symBinAddr: 0x5071C, symSize: 0x24 }
  - { offset: 0x2AEB49, size: 0x8, addend: 0x0, symName: __ZN27llama_memory_hybrid_contextC1E19llama_memory_status, symObjAddr: 0x1128, symBinAddr: 0x5071C, symSize: 0x24 }
  - { offset: 0x2AEC98, size: 0x8, addend: 0x0, symName: __ZN27llama_memory_hybrid_contextC1EP19llama_memory_hybrid, symObjAddr: 0x126C, symBinAddr: 0x50860, symSize: 0x4 }
  - { offset: 0x2AECC2, size: 0x8, addend: 0x0, symName: __ZN27llama_memory_hybrid_contextC1EP19llama_memory_hybrid, symObjAddr: 0x126C, symBinAddr: 0x50860, symSize: 0x4 }
  - { offset: 0x2AECDC, size: 0x8, addend: 0x0, symName: __ZN27llama_memory_hybrid_contextC1EP19llama_memory_hybridP13llama_contextb, symObjAddr: 0x13B0, symBinAddr: 0x509A4, symSize: 0x4 }
  - { offset: 0x2AED19, size: 0x8, addend: 0x0, symName: __ZN27llama_memory_hybrid_contextC1EP19llama_memory_hybridP13llama_contextb, symObjAddr: 0x13B0, symBinAddr: 0x509A4, symSize: 0x4 }
  - { offset: 0x2AF236, size: 0x8, addend: 0x0, symName: __ZN27llama_memory_hybrid_contextC1EP19llama_memory_hybridNSt3__16vectorIN14llama_kv_cache9slot_infoENS2_9allocatorIS5_EEEENS3_I12llama_ubatchNS6_IS9_EEEE, symObjAddr: 0x189C, symBinAddr: 0x50E90, symSize: 0x4 }
  - { offset: 0x2AF270, size: 0x8, addend: 0x0, symName: __ZN27llama_memory_hybrid_contextC1EP19llama_memory_hybridNSt3__16vectorIN14llama_kv_cache9slot_infoENS2_9allocatorIS5_EEEENS3_I12llama_ubatchNS6_IS9_EEEE, symObjAddr: 0x189C, symBinAddr: 0x50E90, symSize: 0x4 }
  - { offset: 0x2AF298, size: 0x8, addend: 0x0, symName: __ZN27llama_memory_hybrid_context4nextEv, symObjAddr: 0x18A0, symBinAddr: 0x50E94, symSize: 0x70 }
  - { offset: 0x2AF333, size: 0x8, addend: 0x0, symName: __ZN27llama_memory_hybrid_context5applyEv, symObjAddr: 0x1910, symBinAddr: 0x50F04, symSize: 0x44 }
  - { offset: 0x2AF3C0, size: 0x8, addend: 0x0, symName: __ZNK27llama_memory_hybrid_context10get_statusEv, symObjAddr: 0x1954, symBinAddr: 0x50F48, symSize: 0x8 }
  - { offset: 0x2AF40B, size: 0x8, addend: 0x0, symName: __ZNK27llama_memory_hybrid_context10get_ubatchEv, symObjAddr: 0x195C, symBinAddr: 0x50F50, symSize: 0x10 }
  - { offset: 0x2AF46F, size: 0x8, addend: 0x0, symName: __ZNK27llama_memory_hybrid_context8get_attnEv, symObjAddr: 0x196C, symBinAddr: 0x50F60, symSize: 0x8 }
  - { offset: 0x2AF49A, size: 0x8, addend: 0x0, symName: __ZNK27llama_memory_hybrid_context8get_attnEv, symObjAddr: 0x196C, symBinAddr: 0x50F60, symSize: 0x8 }
  - { offset: 0x2AF4B6, size: 0x8, addend: 0x0, symName: __ZNK27llama_memory_hybrid_context8get_recrEv, symObjAddr: 0x1974, symBinAddr: 0x50F68, symSize: 0x8 }
  - { offset: 0x2AF4E2, size: 0x8, addend: 0x0, symName: __ZNK27llama_memory_hybrid_context8get_recrEv, symObjAddr: 0x1974, symBinAddr: 0x50F68, symSize: 0x8 }
  - { offset: 0x2AF5A1, size: 0x8, addend: 0x0, symName: __ZN19llama_memory_hybridD1Ev, symObjAddr: 0x197C, symBinAddr: 0x50F70, symSize: 0x5C }
  - { offset: 0x2AF735, size: 0x8, addend: 0x0, symName: __ZN19llama_memory_hybridD0Ev, symObjAddr: 0x19D8, symBinAddr: 0x50FCC, symSize: 0x5C }
  - { offset: 0x2AF8EE, size: 0x8, addend: 0x0, symName: __ZN27llama_memory_hybrid_contextD1Ev, symObjAddr: 0x1A34, symBinAddr: 0x51028, symSize: 0xD4 }
  - { offset: 0x2AFCAF, size: 0x8, addend: 0x0, symName: __ZN27llama_memory_hybrid_contextD0Ev, symObjAddr: 0x1B08, symBinAddr: 0x510FC, symSize: 0xD4 }
  - { offset: 0x2B007B, size: 0x8, addend: 0x0, symName: '__ZNSt3__110__function6__funcIZN19llama_memory_hybridC1ERK11llama_model9ggml_typeS6_bjjj14llama_swa_typeS6_S6_jjbbRKNS_8functionIFbiEEESC_E3$_0NS_9allocatorISD_EES9_ED1Ev', symObjAddr: 0x1BDC, symBinAddr: 0x511D0, symSize: 0x4 }
  - { offset: 0x2B00A7, size: 0x8, addend: 0x0, symName: '__ZNSt3__110__function6__funcIZN19llama_memory_hybridC1ERK11llama_model9ggml_typeS6_bjjj14llama_swa_typeS6_S6_jjbbRKNS_8functionIFbiEEESC_E3$_0NS_9allocatorISD_EES9_ED0Ev', symObjAddr: 0x1BE0, symBinAddr: 0x511D4, symSize: 0x4 }
  - { offset: 0x2B015D, size: 0x8, addend: 0x0, symName: '__ZNKSt3__110__function6__funcIZN19llama_memory_hybridC1ERK11llama_model9ggml_typeS6_bjjj14llama_swa_typeS6_S6_jjbbRKNS_8functionIFbiEEESC_E3$_0NS_9allocatorISD_EES9_E7__cloneEv', symObjAddr: 0x1BE4, symBinAddr: 0x511D8, symSize: 0x34 }
  - { offset: 0x2B02AF, size: 0x8, addend: 0x0, symName: '__ZNKSt3__110__function6__funcIZN19llama_memory_hybridC1ERK11llama_model9ggml_typeS6_bjjj14llama_swa_typeS6_S6_jjbbRKNS_8functionIFbiEEESC_E3$_0NS_9allocatorISD_EES9_E7__cloneEPNS0_6__baseIS9_EE', symObjAddr: 0x1C18, symBinAddr: 0x5120C, symSize: 0x14 }
  - { offset: 0x2B031C, size: 0x8, addend: 0x0, symName: '__ZNSt3__110__function6__funcIZN19llama_memory_hybridC1ERK11llama_model9ggml_typeS6_bjjj14llama_swa_typeS6_S6_jjbbRKNS_8functionIFbiEEESC_E3$_0NS_9allocatorISD_EES9_E7destroyEv', symObjAddr: 0x1C2C, symBinAddr: 0x51220, symSize: 0x4 }
  - { offset: 0x2B0370, size: 0x8, addend: 0x0, symName: '__ZNSt3__110__function6__funcIZN19llama_memory_hybridC1ERK11llama_model9ggml_typeS6_bjjj14llama_swa_typeS6_S6_jjbbRKNS_8functionIFbiEEESC_E3$_0NS_9allocatorISD_EES9_E18destroy_deallocateEv', symObjAddr: 0x1C30, symBinAddr: 0x51224, symSize: 0x4 }
  - { offset: 0x2B03A5, size: 0x8, addend: 0x0, symName: '__ZNSt3__110__function6__funcIZN19llama_memory_hybridC1ERK11llama_model9ggml_typeS6_bjjj14llama_swa_typeS6_S6_jjbbRKNS_8functionIFbiEEESC_E3$_0NS_9allocatorISD_EES9_E18destroy_deallocateEv', symObjAddr: 0x1C30, symBinAddr: 0x51224, symSize: 0x4 }
  - { offset: 0x2B03C8, size: 0x8, addend: 0x0, symName: '__ZNSt3__110__function6__funcIZN19llama_memory_hybridC1ERK11llama_model9ggml_typeS6_bjjj14llama_swa_typeS6_S6_jjbbRKNS_8functionIFbiEEESC_E3$_0NS_9allocatorISD_EES9_E18destroy_deallocateEv', symObjAddr: 0x1C30, symBinAddr: 0x51224, symSize: 0x4 }
  - { offset: 0x2B03FB, size: 0x8, addend: 0x0, symName: '__ZNSt3__110__function6__funcIZN19llama_memory_hybridC1ERK11llama_model9ggml_typeS6_bjjj14llama_swa_typeS6_S6_jjbbRKNS_8functionIFbiEEESC_E3$_0NS_9allocatorISD_EES9_E18destroy_deallocateEv', symObjAddr: 0x1C30, symBinAddr: 0x51224, symSize: 0x4 }
  - { offset: 0x2B049C, size: 0x8, addend: 0x0, symName: '__ZNSt3__110__function6__funcIZN19llama_memory_hybridC1ERK11llama_model9ggml_typeS6_bjjj14llama_swa_typeS6_S6_jjbbRKNS_8functionIFbiEEESC_E3$_0NS_9allocatorISD_EES9_EclEOi', symObjAddr: 0x1C34, symBinAddr: 0x51228, symSize: 0x24 }
  - { offset: 0x2B059F, size: 0x8, addend: 0x0, symName: '__ZNKSt3__110__function6__funcIZN19llama_memory_hybridC1ERK11llama_model9ggml_typeS6_bjjj14llama_swa_typeS6_S6_jjbbRKNS_8functionIFbiEEESC_E3$_0NS_9allocatorISD_EES9_E6targetERKSt9type_info', symObjAddr: 0x1C58, symBinAddr: 0x5124C, symSize: 0x64 }
  - { offset: 0x2B066A, size: 0x8, addend: 0x0, symName: '__ZNKSt3__110__function6__funcIZN19llama_memory_hybridC1ERK11llama_model9ggml_typeS6_bjjj14llama_swa_typeS6_S6_jjbbRKNS_8functionIFbiEEESC_E3$_0NS_9allocatorISD_EES9_E11target_typeEv', symObjAddr: 0x1CBC, symBinAddr: 0x512B0, symSize: 0xC }
  - { offset: 0x2B068D, size: 0x8, addend: 0x0, symName: '__ZNSt3__110__function6__funcIZN19llama_memory_hybridC1ERK11llama_model9ggml_typeS6_bjjj14llama_swa_typeS6_S6_jjbbRKNS_8functionIFbiEEESC_E3$_1NS_9allocatorISD_EES9_ED1Ev', symObjAddr: 0x1CF0, symBinAddr: 0x512BC, symSize: 0x4 }
  - { offset: 0x2B06B9, size: 0x8, addend: 0x0, symName: '__ZNSt3__110__function6__funcIZN19llama_memory_hybridC1ERK11llama_model9ggml_typeS6_bjjj14llama_swa_typeS6_S6_jjbbRKNS_8functionIFbiEEESC_E3$_1NS_9allocatorISD_EES9_ED0Ev', symObjAddr: 0x1CF4, symBinAddr: 0x512C0, symSize: 0x4 }
  - { offset: 0x2B076F, size: 0x8, addend: 0x0, symName: '__ZNKSt3__110__function6__funcIZN19llama_memory_hybridC1ERK11llama_model9ggml_typeS6_bjjj14llama_swa_typeS6_S6_jjbbRKNS_8functionIFbiEEESC_E3$_1NS_9allocatorISD_EES9_E7__cloneEv', symObjAddr: 0x1CF8, symBinAddr: 0x512C4, symSize: 0x34 }
  - { offset: 0x2B08C1, size: 0x8, addend: 0x0, symName: '__ZNKSt3__110__function6__funcIZN19llama_memory_hybridC1ERK11llama_model9ggml_typeS6_bjjj14llama_swa_typeS6_S6_jjbbRKNS_8functionIFbiEEESC_E3$_1NS_9allocatorISD_EES9_E7__cloneEPNS0_6__baseIS9_EE', symObjAddr: 0x1D2C, symBinAddr: 0x512F8, symSize: 0x14 }
  - { offset: 0x2B092E, size: 0x8, addend: 0x0, symName: '__ZNSt3__110__function6__funcIZN19llama_memory_hybridC1ERK11llama_model9ggml_typeS6_bjjj14llama_swa_typeS6_S6_jjbbRKNS_8functionIFbiEEESC_E3$_1NS_9allocatorISD_EES9_E7destroyEv', symObjAddr: 0x1D40, symBinAddr: 0x5130C, symSize: 0x4 }
  - { offset: 0x2B0982, size: 0x8, addend: 0x0, symName: '__ZNSt3__110__function6__funcIZN19llama_memory_hybridC1ERK11llama_model9ggml_typeS6_bjjj14llama_swa_typeS6_S6_jjbbRKNS_8functionIFbiEEESC_E3$_1NS_9allocatorISD_EES9_E18destroy_deallocateEv', symObjAddr: 0x1D44, symBinAddr: 0x51310, symSize: 0x4 }
  - { offset: 0x2B09B7, size: 0x8, addend: 0x0, symName: '__ZNSt3__110__function6__funcIZN19llama_memory_hybridC1ERK11llama_model9ggml_typeS6_bjjj14llama_swa_typeS6_S6_jjbbRKNS_8functionIFbiEEESC_E3$_1NS_9allocatorISD_EES9_E18destroy_deallocateEv', symObjAddr: 0x1D44, symBinAddr: 0x51310, symSize: 0x4 }
  - { offset: 0x2B09DA, size: 0x8, addend: 0x0, symName: '__ZNSt3__110__function6__funcIZN19llama_memory_hybridC1ERK11llama_model9ggml_typeS6_bjjj14llama_swa_typeS6_S6_jjbbRKNS_8functionIFbiEEESC_E3$_1NS_9allocatorISD_EES9_E18destroy_deallocateEv', symObjAddr: 0x1D44, symBinAddr: 0x51310, symSize: 0x4 }
  - { offset: 0x2B0A0D, size: 0x8, addend: 0x0, symName: '__ZNSt3__110__function6__funcIZN19llama_memory_hybridC1ERK11llama_model9ggml_typeS6_bjjj14llama_swa_typeS6_S6_jjbbRKNS_8functionIFbiEEESC_E3$_1NS_9allocatorISD_EES9_E18destroy_deallocateEv', symObjAddr: 0x1D44, symBinAddr: 0x51310, symSize: 0x4 }
  - { offset: 0x2B0AAE, size: 0x8, addend: 0x0, symName: '__ZNSt3__110__function6__funcIZN19llama_memory_hybridC1ERK11llama_model9ggml_typeS6_bjjj14llama_swa_typeS6_S6_jjbbRKNS_8functionIFbiEEESC_E3$_1NS_9allocatorISD_EES9_EclEOi', symObjAddr: 0x1D48, symBinAddr: 0x51314, symSize: 0x10 }
  - { offset: 0x2B0B57, size: 0x8, addend: 0x0, symName: '__ZNKSt3__110__function6__funcIZN19llama_memory_hybridC1ERK11llama_model9ggml_typeS6_bjjj14llama_swa_typeS6_S6_jjbbRKNS_8functionIFbiEEESC_E3$_1NS_9allocatorISD_EES9_E6targetERKSt9type_info', symObjAddr: 0x1D58, symBinAddr: 0x51324, symSize: 0x64 }
  - { offset: 0x2B0C0B, size: 0x8, addend: 0x0, symName: '__ZNKSt3__110__function6__funcIZN19llama_memory_hybridC1ERK11llama_model9ggml_typeS6_bjjj14llama_swa_typeS6_S6_jjbbRKNS_8functionIFbiEEESC_E3$_1NS_9allocatorISD_EES9_E11target_typeEv', symObjAddr: 0x1DBC, symBinAddr: 0x51388, symSize: 0xC }
  - { offset: 0x2D36D2, size: 0x8, addend: 0x0, symName: __ZN22llama_memory_recurrentC2ERK11llama_model9ggml_typeS3_bjjRKNSt3__18functionIFbiEEE, symObjAddr: 0x0, symBinAddr: 0x51394, symSize: 0x7DC }
  - { offset: 0x2D5E53, size: 0x8, addend: 0x0, symName: __ZNSt3__16vectorIN22llama_memory_recurrent8mem_cellENS_9allocatorIS2_EEE8__appendEm, symObjAddr: 0x4718, symBinAddr: 0x554B4, symSize: 0x220 }
  - { offset: 0x2D6641, size: 0x8, addend: 0x0, symName: __ZNSt3__16vectorIN22llama_memory_recurrent8mem_cellENS_9allocatorIS2_EEE20__throw_length_errorB8ne200100Ev, symObjAddr: 0x4938, symBinAddr: 0x556D4, symSize: 0x14 }
  - { offset: 0x2D664C, size: 0x8, addend: 0x0, symName: __ZNSt3__16vectorIP11ggml_tensorNS_9allocatorIS2_EEE8__appendEm, symObjAddr: 0x49F0, symBinAddr: 0x55748, symSize: 0x120 }
  - { offset: 0x2D6EC3, size: 0x8, addend: 0x0, symName: __ZNSt3__16vectorIN22llama_memory_recurrent8mem_cellENS_9allocatorIS2_EEED1B8ne200100Ev, symObjAddr: 0x974, symBinAddr: 0x51C28, symSize: 0x68 }
  - { offset: 0x2D7123, size: 0x8, addend: 0x0, symName: __ZNK22llama_memory_recurrent12size_r_bytesEv, symObjAddr: 0x7DC, symBinAddr: 0x51B70, symSize: 0x5C }
  - { offset: 0x2D71D0, size: 0x8, addend: 0x0, symName: __ZNK22llama_memory_recurrent12size_s_bytesEv, symObjAddr: 0x838, symBinAddr: 0x51BCC, symSize: 0x5C }
  - { offset: 0x2D77D4, size: 0x8, addend: 0x0, symName: __ZN22llama_memory_recurrentC1ERK11llama_model9ggml_typeS3_bjjRKNSt3__18functionIFbiEEE, symObjAddr: 0x9DC, symBinAddr: 0x51C90, symSize: 0x4 }
  - { offset: 0x2D7868, size: 0x8, addend: 0x0, symName: __ZN22llama_memory_recurrentC1ERK11llama_model9ggml_typeS3_bjjRKNSt3__18functionIFbiEEE, symObjAddr: 0x9DC, symBinAddr: 0x51C90, symSize: 0x4 }
  - { offset: 0x2D793E, size: 0x8, addend: 0x0, symName: __ZN22llama_memory_recurrent5clearEb, symObjAddr: 0x9E0, symBinAddr: 0x51C94, symSize: 0xC8 }
  - { offset: 0x2D7DD9, size: 0x8, addend: 0x0, symName: __ZN22llama_memory_recurrent6seq_rmEiii, symObjAddr: 0xAA8, symBinAddr: 0x51D5C, symSize: 0x2F8 }
  - { offset: 0x2D85A5, size: 0x8, addend: 0x0, symName: __ZN22llama_memory_recurrent6seq_cpEiiii, symObjAddr: 0xDA0, symBinAddr: 0x52054, symSize: 0x1E8 }
  - { offset: 0x2D8BA2, size: 0x8, addend: 0x0, symName: __ZN22llama_memory_recurrent8seq_keepEi, symObjAddr: 0xF88, symBinAddr: 0x5223C, symSize: 0x1B8 }
  - { offset: 0x2D8FE2, size: 0x8, addend: 0x0, symName: __ZN22llama_memory_recurrent7seq_addEiiii, symObjAddr: 0x1140, symBinAddr: 0x523F4, symSize: 0xA0 }
  - { offset: 0x2D91BD, size: 0x8, addend: 0x0, symName: __ZN22llama_memory_recurrent7seq_divEiiii, symObjAddr: 0x11E0, symBinAddr: 0x52494, symSize: 0xA8 }
  - { offset: 0x2D9402, size: 0x8, addend: 0x0, symName: __ZNK22llama_memory_recurrent11seq_pos_minEi, symObjAddr: 0x1288, symBinAddr: 0x5253C, symSize: 0x8C }
  - { offset: 0x2D95DA, size: 0x8, addend: 0x0, symName: __ZNK22llama_memory_recurrent11seq_pos_maxEi, symObjAddr: 0x1314, symBinAddr: 0x525C8, symSize: 0x80 }
  - { offset: 0x2D9E37, size: 0x8, addend: 0x0, symName: __ZN22llama_memory_recurrent10init_batchER18llama_batch_allocrjb, symObjAddr: 0x1394, symBinAddr: 0x52648, symSize: 0x474 }
  - { offset: 0x2DAD96, size: 0x8, addend: 0x0, symName: __ZN22llama_memory_recurrent7prepareERKNSt3__16vectorI12llama_ubatchNS0_9allocatorIS2_EEEE, symObjAddr: 0x1864, symBinAddr: 0x52ABC, symSize: 0x128 }
  - { offset: 0x2DB452, size: 0x8, addend: 0x0, symName: __ZNSt3__16vectorIN22llama_memory_recurrent8mem_cellENS_9allocatorIS2_EEE16__init_with_sizeB8ne200100IPS2_S7_EEvT_T0_m, symObjAddr: 0x50C0, symBinAddr: 0x55868, symSize: 0x14C }
  - { offset: 0x2DB955, size: 0x8, addend: 0x0, symName: __ZN22llama_memory_recurrent9find_slotERK12llama_ubatch, symObjAddr: 0x1AC4, symBinAddr: 0x52C84, symSize: 0xDD0 }
  - { offset: 0x2DD2EF, size: 0x8, addend: 0x0, symName: __ZN22llama_memory_recurrent9init_fullEv, symObjAddr: 0x1A24, symBinAddr: 0x52BE4, symSize: 0x54 }
  - { offset: 0x2DD3ED, size: 0x8, addend: 0x0, symName: __ZN22llama_memory_recurrent11init_updateEP13llama_contextb, symObjAddr: 0x1A78, symBinAddr: 0x52C38, symSize: 0x4C }
  - { offset: 0x2DD8A9, size: 0x8, addend: 0x0, symName: __ZNK22llama_memory_recurrent13get_can_shiftEv, symObjAddr: 0x2894, symBinAddr: 0x53A54, symSize: 0x8 }
  - { offset: 0x2DD8E5, size: 0x8, addend: 0x0, symName: __ZNK22llama_memory_recurrent10total_sizeEv, symObjAddr: 0x289C, symBinAddr: 0x53A5C, symSize: 0x60 }
  - { offset: 0x2DE0D6, size: 0x8, addend: 0x0, symName: __ZNK22llama_memory_recurrent11state_writeER16llama_io_write_iij, symObjAddr: 0x28FC, symBinAddr: 0x53ABC, symSize: 0x4AC }
  - { offset: 0x2DEE95, size: 0x8, addend: 0x0, symName: __ZNK22llama_memory_recurrent16state_write_metaER16llama_io_write_iRKNSt3__16vectorINS2_4pairIjjEENS2_9allocatorIS5_EEEEi, symObjAddr: 0x2DA8, symBinAddr: 0x53F68, symSize: 0x15C }
  - { offset: 0x2DF1B9, size: 0x8, addend: 0x0, symName: __ZNK22llama_memory_recurrent16state_write_dataER16llama_io_write_iRKNSt3__16vectorINS2_4pairIjjEENS2_9allocatorIS5_EEEE, symObjAddr: 0x2F04, symBinAddr: 0x540C4, symSize: 0x22C }
  - { offset: 0x2DF717, size: 0x8, addend: 0x0, symName: __ZN22llama_memory_recurrent10state_readER15llama_io_read_iij, symObjAddr: 0x3130, symBinAddr: 0x542F0, symSize: 0xF8 }
  - { offset: 0x2DF816, size: 0x8, addend: 0x0, symName: __ZN22llama_memory_recurrent15state_read_metaER15llama_io_read_iji, symObjAddr: 0x3228, symBinAddr: 0x543E8, symSize: 0x5F4 }
  - { offset: 0x2E0154, size: 0x8, addend: 0x0, symName: __ZN22llama_memory_recurrent15state_read_dataER15llama_io_read_ij, symObjAddr: 0x381C, symBinAddr: 0x549DC, symSize: 0x568 }
  - { offset: 0x2E1285, size: 0x8, addend: 0x0, symName: __ZN30llama_memory_recurrent_contextC2E19llama_memory_status, symObjAddr: 0x3D84, symBinAddr: 0x54F44, symSize: 0x24 }
  - { offset: 0x2E12E9, size: 0x8, addend: 0x0, symName: __ZN30llama_memory_recurrent_contextC1E19llama_memory_status, symObjAddr: 0x3DA8, symBinAddr: 0x54F68, symSize: 0x24 }
  - { offset: 0x2E1312, size: 0x8, addend: 0x0, symName: __ZN30llama_memory_recurrent_contextC1E19llama_memory_status, symObjAddr: 0x3DA8, symBinAddr: 0x54F68, symSize: 0x24 }
  - { offset: 0x2E1371, size: 0x8, addend: 0x0, symName: __ZN30llama_memory_recurrent_contextC2EP22llama_memory_recurrent, symObjAddr: 0x3DCC, symBinAddr: 0x54F8C, symSize: 0x2C }
  - { offset: 0x2E13D5, size: 0x8, addend: 0x0, symName: __ZN30llama_memory_recurrent_contextC1EP22llama_memory_recurrent, symObjAddr: 0x3DF8, symBinAddr: 0x54FB8, symSize: 0x2C }
  - { offset: 0x2E13FE, size: 0x8, addend: 0x0, symName: __ZN30llama_memory_recurrent_contextC1EP22llama_memory_recurrent, symObjAddr: 0x3DF8, symBinAddr: 0x54FB8, symSize: 0x2C }
  - { offset: 0x2E145D, size: 0x8, addend: 0x0, symName: __ZN30llama_memory_recurrent_contextC2EP22llama_memory_recurrentNSt3__16vectorI12llama_ubatchNS2_9allocatorIS4_EEEE, symObjAddr: 0x3E24, symBinAddr: 0x54FE4, symSize: 0x40 }
  - { offset: 0x2E14D8, size: 0x8, addend: 0x0, symName: __ZN30llama_memory_recurrent_contextC1EP22llama_memory_recurrentNSt3__16vectorI12llama_ubatchNS2_9allocatorIS4_EEEE, symObjAddr: 0x3E64, symBinAddr: 0x55024, symSize: 0x40 }
  - { offset: 0x2E1509, size: 0x8, addend: 0x0, symName: __ZN30llama_memory_recurrent_contextC1EP22llama_memory_recurrentNSt3__16vectorI12llama_ubatchNS2_9allocatorIS4_EEEE, symObjAddr: 0x3E64, symBinAddr: 0x55024, symSize: 0x40 }
  - { offset: 0x2E157F, size: 0x8, addend: 0x0, symName: __ZN30llama_memory_recurrent_contextD2Ev, symObjAddr: 0x3EA4, symBinAddr: 0x55064, symSize: 0xA4 }
  - { offset: 0x2E17EC, size: 0x8, addend: 0x0, symName: __ZN30llama_memory_recurrent_contextD1Ev, symObjAddr: 0x3F48, symBinAddr: 0x55108, symSize: 0xA4 }
  - { offset: 0x2E1A76, size: 0x8, addend: 0x0, symName: __ZN30llama_memory_recurrent_contextD0Ev, symObjAddr: 0x3FEC, symBinAddr: 0x551AC, symSize: 0xA4 }
  - { offset: 0x2E1D0C, size: 0x8, addend: 0x0, symName: __ZN30llama_memory_recurrent_context4nextEv, symObjAddr: 0x4090, symBinAddr: 0x55250, symSize: 0x38 }
  - { offset: 0x2E1D8D, size: 0x8, addend: 0x0, symName: __ZN30llama_memory_recurrent_context5applyEv, symObjAddr: 0x40C8, symBinAddr: 0x55288, symSize: 0x34 }
  - { offset: 0x2E1DB9, size: 0x8, addend: 0x0, symName: __ZN30llama_memory_recurrent_context5applyEv, symObjAddr: 0x40C8, symBinAddr: 0x55288, symSize: 0x34 }
  - { offset: 0x2E1E01, size: 0x8, addend: 0x0, symName: __ZNK30llama_memory_recurrent_context10get_statusEv, symObjAddr: 0x40FC, symBinAddr: 0x552BC, symSize: 0x8 }
  - { offset: 0x2E1E4D, size: 0x8, addend: 0x0, symName: __ZNK30llama_memory_recurrent_context10get_ubatchEv, symObjAddr: 0x4104, symBinAddr: 0x552C4, symSize: 0x10 }
  - { offset: 0x2E1E9D, size: 0x8, addend: 0x0, symName: __ZNK30llama_memory_recurrent_context8get_n_rsEv, symObjAddr: 0x4114, symBinAddr: 0x552D4, symSize: 0x20 }
  - { offset: 0x2E1EC7, size: 0x8, addend: 0x0, symName: __ZNK30llama_memory_recurrent_context8get_headEv, symObjAddr: 0x4134, symBinAddr: 0x552F4, symSize: 0x1C }
  - { offset: 0x2E1EF1, size: 0x8, addend: 0x0, symName: __ZNK30llama_memory_recurrent_context8get_rs_zEv, symObjAddr: 0x4150, symBinAddr: 0x55310, symSize: 0x1C }
  - { offset: 0x2E1F1B, size: 0x8, addend: 0x0, symName: __ZNK30llama_memory_recurrent_context8get_sizeEv, symObjAddr: 0x416C, symBinAddr: 0x5532C, symSize: 0xC }
  - { offset: 0x2E1F45, size: 0x8, addend: 0x0, symName: __ZNK30llama_memory_recurrent_context7get_r_lEi, symObjAddr: 0x4178, symBinAddr: 0x55338, symSize: 0x10 }
  - { offset: 0x2E1F9C, size: 0x8, addend: 0x0, symName: __ZNK30llama_memory_recurrent_context7get_s_lEi, symObjAddr: 0x4188, symBinAddr: 0x55348, symSize: 0x10 }
  - { offset: 0x2E1FF4, size: 0x8, addend: 0x0, symName: __ZNK30llama_memory_recurrent_context6s_copyEi, symObjAddr: 0x4198, symBinAddr: 0x55358, symSize: 0x20 }
  - { offset: 0x2E204B, size: 0x8, addend: 0x0, symName: __ZN22llama_memory_recurrentD1Ev, symObjAddr: 0x41B8, symBinAddr: 0x55378, symSize: 0x4 }
  - { offset: 0x2E206E, size: 0x8, addend: 0x0, symName: __ZN22llama_memory_recurrentD1Ev, symObjAddr: 0x41B8, symBinAddr: 0x55378, symSize: 0x4 }
  - { offset: 0x2E2081, size: 0x8, addend: 0x0, symName: __ZN22llama_memory_recurrentD2Ev, symObjAddr: 0x45F4, symBinAddr: 0x55390, symSize: 0x124 }
  - { offset: 0x2E293C, size: 0x8, addend: 0x0, symName: __ZN22llama_memory_recurrentD0Ev, symObjAddr: 0x41BC, symBinAddr: 0x5537C, symSize: 0x14 }
  - { offset: 0x2E38E9, size: 0x8, addend: 0x0, symName: __ZNSt3__16vectorIN22llama_memory_recurrent8mem_cellENS_9allocatorIS2_EEE20__throw_length_errorB8ne200100Ev, symObjAddr: 0x4938, symBinAddr: 0x556D4, symSize: 0x14 }
  - { offset: 0x2E3901, size: 0x8, addend: 0x0, symName: __ZNSt3__128__exception_guard_exceptionsINS_29_AllocatorDestroyRangeReverseINS_9allocatorIN22llama_memory_recurrent8mem_cellEEEPS4_EEED1B8ne200100Ev, symObjAddr: 0x494C, symBinAddr: 0x556E8, symSize: 0x60 }
  - { offset: 0x2E399A, size: 0x8, addend: 0x0, symName: __ZNSt3__128__exception_guard_exceptionsINS_29_AllocatorDestroyRangeReverseINS_9allocatorIN22llama_memory_recurrent8mem_cellEEEPS4_EEED1B8ne200100Ev, symObjAddr: 0x494C, symBinAddr: 0x556E8, symSize: 0x60 }
  - { offset: 0x2E4039, size: 0x8, addend: 0x0, symName: __ZNSt3__16vectorIN22llama_memory_recurrent8mem_cellENS_9allocatorIS2_EEE16__init_with_sizeB8ne200100IPS2_S7_EEvT_T0_m, symObjAddr: 0x50C0, symBinAddr: 0x55868, symSize: 0x14C }
  - { offset: 0x2E42CB, size: 0x8, addend: 0x0, symName: __ZNSt3__13setIiNS_4lessIiEENS_9allocatorIiEEE6insertB8ne200100INS_21__tree_const_iteratorIiPNS_11__tree_nodeIiPvEElEEEEvT_SD_, symObjAddr: 0x5284, symBinAddr: 0x55A2C, symSize: 0xF8 }
  - { offset: 0x2E4311, size: 0x8, addend: 0x0, symName: __ZNSt3__13setIiNS_4lessIiEENS_9allocatorIiEEE6insertB8ne200100INS_21__tree_const_iteratorIiPNS_11__tree_nodeIiPvEElEEEEvT_SD_, symObjAddr: 0x5284, symBinAddr: 0x55A2C, symSize: 0xF8 }
  - { offset: 0x2E45E0, size: 0x8, addend: 0x0, symName: __ZNSt3__128__exception_guard_exceptionsINS_6vectorIN22llama_memory_recurrent8mem_cellENS_9allocatorIS3_EEE16__destroy_vectorEED1B8ne200100Ev, symObjAddr: 0x520C, symBinAddr: 0x559B4, symSize: 0x78 }
  - { offset: 0x2E460D, size: 0x8, addend: 0x0, symName: __ZNSt3__128__exception_guard_exceptionsINS_6vectorIN22llama_memory_recurrent8mem_cellENS_9allocatorIS3_EEE16__destroy_vectorEED1B8ne200100Ev, symObjAddr: 0x520C, symBinAddr: 0x559B4, symSize: 0x78 }
  - { offset: 0x2E496B, size: 0x8, addend: 0x0, symName: __ZNSt3__16__treeIiNS_4lessIiEENS_9allocatorIiEEE12__find_equalIiEERPNS_16__tree_node_baseIPvEENS_21__tree_const_iteratorIiPNS_11__tree_nodeIiS8_EElEERPNS_15__tree_end_nodeISA_EESB_RKT_, symObjAddr: 0x537C, symBinAddr: 0x55B24, symSize: 0x1B0 }
  - { offset: 0x2E49CE, size: 0x8, addend: 0x0, symName: __ZNSt3__16__treeIiNS_4lessIiEENS_9allocatorIiEEE12__find_equalIiEERPNS_16__tree_node_baseIPvEENS_21__tree_const_iteratorIiPNS_11__tree_nodeIiS8_EElEERPNS_15__tree_end_nodeISA_EESB_RKT_, symObjAddr: 0x537C, symBinAddr: 0x55B24, symSize: 0x1B0 }
  - { offset: 0x2E49EA, size: 0x8, addend: 0x0, symName: __ZNSt3__16__treeIiNS_4lessIiEENS_9allocatorIiEEE12__find_equalIiEERPNS_16__tree_node_baseIPvEENS_21__tree_const_iteratorIiPNS_11__tree_nodeIiS8_EElEERPNS_15__tree_end_nodeISA_EESB_RKT_, symObjAddr: 0x537C, symBinAddr: 0x55B24, symSize: 0x1B0 }
  - { offset: 0x2E6B9A, size: 0x8, addend: 0x0, symName: __Z27llama_memory_status_combine19llama_memory_statusS_, symObjAddr: 0x0, symBinAddr: 0x55CD4, symSize: 0x38 }
  - { offset: 0x2E6BAF, size: 0x8, addend: 0x0, symName: __Z27llama_memory_status_combine19llama_memory_statusS_, symObjAddr: 0x0, symBinAddr: 0x55CD4, symSize: 0x38 }
  - { offset: 0x2E6BFB, size: 0x8, addend: 0x0, symName: __Z27llama_memory_status_is_fail19llama_memory_status, symObjAddr: 0x38, symBinAddr: 0x55D0C, symSize: 0x10 }
  - { offset: 0x2E96E4, size: 0x8, addend: 0x0, symName: __ZN10llama_mmap9SUPPORTEDE, symObjAddr: 0x1428, symBinAddr: 0x22CA5C, symSize: 0x0 }
  - { offset: 0x2EE7CB, size: 0x8, addend: 0x0, symName: __ZN11llama_mlock9SUPPORTEDE, symObjAddr: 0x1429, symBinAddr: 0x22CA5D, symSize: 0x0 }
  - { offset: 0x2EEA7D, size: 0x8, addend: 0x0, symName: __ZN10llama_fileC2EPKcS1_, symObjAddr: 0x0, symBinAddr: 0x55D1C, symSize: 0x60 }
  - { offset: 0x2EEB4A, size: 0x8, addend: 0x0, symName: __ZN10llama_file4implC2EPKcS2_, symObjAddr: 0xEA4, symBinAddr: 0x56B14, symSize: 0x108 }
  - { offset: 0x2EED67, size: 0x8, addend: 0x0, symName: __ZN10llama_fileC1EPKcS1_, symObjAddr: 0x60, symBinAddr: 0x55D7C, symSize: 0x60 }
  - { offset: 0x2EEF2F, size: 0x8, addend: 0x0, symName: __ZN10llama_fileD2Ev, symObjAddr: 0xC0, symBinAddr: 0x55DDC, symSize: 0x40 }
  - { offset: 0x2EF055, size: 0x8, addend: 0x0, symName: __ZN10llama_fileD1Ev, symObjAddr: 0x100, symBinAddr: 0x55E1C, symSize: 0x40 }
  - { offset: 0x2EF191, size: 0x8, addend: 0x0, symName: __ZNK10llama_file4tellEv, symObjAddr: 0x140, symBinAddr: 0x55E5C, symSize: 0x8 }
  - { offset: 0x2EF1BC, size: 0x8, addend: 0x0, symName: __ZNK10llama_file4tellEv, symObjAddr: 0x140, symBinAddr: 0x55E5C, symSize: 0x8 }
  - { offset: 0x2EF1E4, size: 0x8, addend: 0x0, symName: __ZNK10llama_file4impl4tellEv, symObjAddr: 0x148, symBinAddr: 0x55E64, symSize: 0xCC }
  - { offset: 0x2EF47E, size: 0x8, addend: 0x0, symName: __ZNK10llama_file4sizeEv, symObjAddr: 0x214, symBinAddr: 0x55F30, symSize: 0xC }
  - { offset: 0x2EF4A2, size: 0x8, addend: 0x0, symName: __ZNK10llama_file4sizeEv, symObjAddr: 0x214, symBinAddr: 0x55F30, symSize: 0xC }
  - { offset: 0x2EF4BC, size: 0x8, addend: 0x0, symName: __ZNK10llama_file7file_idEv, symObjAddr: 0x220, symBinAddr: 0x55F3C, symSize: 0xC }
  - { offset: 0x2EF4E0, size: 0x8, addend: 0x0, symName: __ZNK10llama_file7file_idEv, symObjAddr: 0x220, symBinAddr: 0x55F3C, symSize: 0xC }
  - { offset: 0x2EF51C, size: 0x8, addend: 0x0, symName: __ZNK10llama_file4seekEmi, symObjAddr: 0x22C, symBinAddr: 0x55F48, symSize: 0x8 }
  - { offset: 0x2EF564, size: 0x8, addend: 0x0, symName: __ZNK10llama_file4seekEmi, symObjAddr: 0x22C, symBinAddr: 0x55F48, symSize: 0x8 }
  - { offset: 0x2EF59C, size: 0x8, addend: 0x0, symName: __ZNK10llama_file4impl4seekEmi, symObjAddr: 0x234, symBinAddr: 0x55F50, symSize: 0xC8 }
  - { offset: 0x2EF75F, size: 0x8, addend: 0x0, symName: __ZNK10llama_file8read_rawEPvm, symObjAddr: 0x2FC, symBinAddr: 0x56018, symSize: 0x8 }
  - { offset: 0x2EF7A7, size: 0x8, addend: 0x0, symName: __ZNK10llama_file8read_rawEPvm, symObjAddr: 0x2FC, symBinAddr: 0x56018, symSize: 0x8 }
  - { offset: 0x2EF7DF, size: 0x8, addend: 0x0, symName: __ZNK10llama_file4impl8read_rawEPvm, symObjAddr: 0x304, symBinAddr: 0x56020, symSize: 0x148 }
  - { offset: 0x2EF9FE, size: 0x8, addend: 0x0, symName: __ZNK10llama_file8read_u32Ev, symObjAddr: 0x44C, symBinAddr: 0x56168, symSize: 0x30 }
  - { offset: 0x2EFA86, size: 0x8, addend: 0x0, symName: __ZNK10llama_file9write_rawEPKvm, symObjAddr: 0x47C, symBinAddr: 0x56198, symSize: 0x8 }
  - { offset: 0x2EFACE, size: 0x8, addend: 0x0, symName: __ZNK10llama_file9write_rawEPKvm, symObjAddr: 0x47C, symBinAddr: 0x56198, symSize: 0x8 }
  - { offset: 0x2EFB06, size: 0x8, addend: 0x0, symName: __ZNK10llama_file4impl9write_rawEPKvm, symObjAddr: 0x484, symBinAddr: 0x561A0, symSize: 0xF0 }
  - { offset: 0x2EFD03, size: 0x8, addend: 0x0, symName: __ZNK10llama_file9write_u32Ej, symObjAddr: 0x574, symBinAddr: 0x56290, symSize: 0x2C }
  - { offset: 0x2EFE4C, size: 0x8, addend: 0x0, symName: __ZN10llama_mmapC2EP10llama_filemb, symObjAddr: 0x5A0, symBinAddr: 0x562BC, symSize: 0x70 }
  - { offset: 0x2EFF35, size: 0x8, addend: 0x0, symName: __ZN10llama_mmap4implC2EP10llama_filemb, symObjAddr: 0xFAC, symBinAddr: 0x56C1C, symSize: 0x288 }
  - { offset: 0x2F086D, size: 0x8, addend: 0x0, symName: __ZN10llama_mmapC1EP10llama_filemb, symObjAddr: 0x610, symBinAddr: 0x5632C, symSize: 0x70 }
  - { offset: 0x2F0A4B, size: 0x8, addend: 0x0, symName: __ZN10llama_mmapD2Ev, symObjAddr: 0x680, symBinAddr: 0x5639C, symSize: 0x3C }
  - { offset: 0x2F0B2C, size: 0x8, addend: 0x0, symName: __ZN10llama_mmap4implD2Ev, symObjAddr: 0x1234, symBinAddr: 0x56EA4, symSize: 0xA4 }
  - { offset: 0x2F0D49, size: 0x8, addend: 0x0, symName: __ZN10llama_mmapD1Ev, symObjAddr: 0x6BC, symBinAddr: 0x563D8, symSize: 0x3C }
  - { offset: 0x2F0E70, size: 0x8, addend: 0x0, symName: __ZNK10llama_mmap4sizeEv, symObjAddr: 0x6F8, symBinAddr: 0x56414, symSize: 0xC }
  - { offset: 0x2F0E9C, size: 0x8, addend: 0x0, symName: __ZNK10llama_mmap4sizeEv, symObjAddr: 0x6F8, symBinAddr: 0x56414, symSize: 0xC }
  - { offset: 0x2F0EB7, size: 0x8, addend: 0x0, symName: __ZNK10llama_mmap4addrEv, symObjAddr: 0x704, symBinAddr: 0x56420, symSize: 0xC }
  - { offset: 0x2F0EE3, size: 0x8, addend: 0x0, symName: __ZNK10llama_mmap4addrEv, symObjAddr: 0x704, symBinAddr: 0x56420, symSize: 0xC }
  - { offset: 0x2F0EFE, size: 0x8, addend: 0x0, symName: __ZN10llama_mmap14unmap_fragmentEmm, symObjAddr: 0x710, symBinAddr: 0x5642C, symSize: 0x8 }
  - { offset: 0x2F0F46, size: 0x8, addend: 0x0, symName: __ZN10llama_mmap14unmap_fragmentEmm, symObjAddr: 0x710, symBinAddr: 0x5642C, symSize: 0x8 }
  - { offset: 0x2F0F7E, size: 0x8, addend: 0x0, symName: __ZN10llama_mmap4impl14unmap_fragmentEmm, symObjAddr: 0x718, symBinAddr: 0x56434, symSize: 0x4AC }
  - { offset: 0x2F28F0, size: 0x8, addend: 0x0, symName: __ZNSt3__16vectorINS_4pairImmEENS_9allocatorIS2_EEE20__throw_length_errorB8ne200100Ev, symObjAddr: 0xDE4, symBinAddr: 0x56B00, symSize: 0x14 }
  - { offset: 0x2F29C6, size: 0x8, addend: 0x0, symName: __ZN11llama_mlockC2Ev, symObjAddr: 0xBC4, symBinAddr: 0x568E0, symSize: 0x34 }
  - { offset: 0x2F2AA1, size: 0x8, addend: 0x0, symName: __ZN11llama_mlockC1Ev, symObjAddr: 0xBF8, symBinAddr: 0x56914, symSize: 0x34 }
  - { offset: 0x2F2C0B, size: 0x8, addend: 0x0, symName: __ZN11llama_mlockD2Ev, symObjAddr: 0xC2C, symBinAddr: 0x56948, symSize: 0x34 }
  - { offset: 0x2F2C2F, size: 0x8, addend: 0x0, symName: __ZN11llama_mlockD2Ev, symObjAddr: 0xC2C, symBinAddr: 0x56948, symSize: 0x34 }
  - { offset: 0x2F2C4D, size: 0x8, addend: 0x0, symName: __ZN11llama_mlockD2Ev, symObjAddr: 0xC2C, symBinAddr: 0x56948, symSize: 0x34 }
  - { offset: 0x2F2C6B, size: 0x8, addend: 0x0, symName: __ZN11llama_mlockD2Ev, symObjAddr: 0xC2C, symBinAddr: 0x56948, symSize: 0x34 }
  - { offset: 0x2F2CDF, size: 0x8, addend: 0x0, symName: __ZN11llama_mlockD1Ev, symObjAddr: 0xC60, symBinAddr: 0x5697C, symSize: 0x34 }
  - { offset: 0x2F2D0F, size: 0x8, addend: 0x0, symName: __ZN11llama_mlockD1Ev, symObjAddr: 0xC60, symBinAddr: 0x5697C, symSize: 0x34 }
  - { offset: 0x2F2D2D, size: 0x8, addend: 0x0, symName: __ZN11llama_mlockD1Ev, symObjAddr: 0xC60, symBinAddr: 0x5697C, symSize: 0x34 }
  - { offset: 0x2F2D4B, size: 0x8, addend: 0x0, symName: __ZN11llama_mlockD1Ev, symObjAddr: 0xC60, symBinAddr: 0x5697C, symSize: 0x34 }
  - { offset: 0x2F2D69, size: 0x8, addend: 0x0, symName: __ZN11llama_mlockD1Ev, symObjAddr: 0xC60, symBinAddr: 0x5697C, symSize: 0x34 }
  - { offset: 0x2F2DFE, size: 0x8, addend: 0x0, symName: __ZN11llama_mlock4initEPv, symObjAddr: 0xC94, symBinAddr: 0x569B0, symSize: 0x4C }
  - { offset: 0x2F2E3A, size: 0x8, addend: 0x0, symName: __ZN11llama_mlock4initEPv, symObjAddr: 0xC94, symBinAddr: 0x569B0, symSize: 0x4C }
  - { offset: 0x2F2E6E, size: 0x8, addend: 0x0, symName: __ZN11llama_mlock7grow_toEm, symObjAddr: 0xCE0, symBinAddr: 0x569FC, symSize: 0x8 }
  - { offset: 0x2F2E81, size: 0x8, addend: 0x0, symName: __ZN11llama_mlock7grow_toEm, symObjAddr: 0xCE0, symBinAddr: 0x569FC, symSize: 0x8 }
  - { offset: 0x2F2EBB, size: 0x8, addend: 0x0, symName: __ZN11llama_mlock7grow_toEm, symObjAddr: 0xCE0, symBinAddr: 0x569FC, symSize: 0x8 }
  - { offset: 0x2F2EEC, size: 0x8, addend: 0x0, symName: __ZN11llama_mlock4impl7grow_toEm, symObjAddr: 0xCE8, symBinAddr: 0x56A04, symSize: 0xF4 }
  - { offset: 0x2F2FE4, size: 0x8, addend: 0x0, symName: __Z14llama_path_maxv, symObjAddr: 0xDDC, symBinAddr: 0x56AF8, symSize: 0x8 }
  - { offset: 0x2F3060, size: 0x8, addend: 0x0, symName: __Z14llama_path_maxv, symObjAddr: 0xDDC, symBinAddr: 0x56AF8, symSize: 0x8 }
  - { offset: 0x314BBE, size: 0x8, addend: 0x0, symName: __ZNSt3__120__throw_future_errorB8ne200100ENS_11future_errcE, symObjAddr: 0xAA20, symBinAddr: 0x60DF8, symSize: 0x5C }
  - { offset: 0x315A31, size: 0x8, addend: 0x0, symName: '__ZNSt3__114__thread_proxyB8ne200100INS_5tupleIJNS_10unique_ptrINS_15__thread_structENS_14default_deleteIS3_EEEEMNS_19__async_assoc_stateINS_4pairIP11ggml_tensorbEENS_12__async_funcIZN18llama_model_loader13load_all_dataEP12ggml_contextRNS_13unordered_mapIjP19ggml_backend_bufferNS_4hashIjEENS_8equal_toIjEENS_9allocatorINS8_IKjSI_EEEEEEPNS_6vectorINS2_I11llama_mlockNS4_ISU_EEEENSN_ISW_EEEEPFbfPvES10_E3$_0JEEEEEFvvEPS15_EEEEES10_S10_', symObjAddr: 0xAA7C, symBinAddr: 0x60E54, symSize: 0x8C }
  - { offset: 0x315DFE, size: 0x8, addend: 0x0, symName: '__ZNSt3__114__thread_proxyB8ne200100INS_5tupleIJNS_10unique_ptrINS_15__thread_structENS_14default_deleteIS3_EEEEMNS_19__async_assoc_stateINS_4pairIP11ggml_tensorbEENS_12__async_funcIZN18llama_model_loader13load_all_dataEP12ggml_contextRNS_13unordered_mapIjP19ggml_backend_bufferNS_4hashIjEENS_8equal_toIjEENS_9allocatorINS8_IKjSI_EEEEEEPNS_6vectorINS2_I11llama_mlockNS4_ISU_EEEENSN_ISW_EEEEPFbfPvES10_E3$_1JEEEEEFvvEPS15_EEEEES10_S10_', symObjAddr: 0xAD88, symBinAddr: 0x61160, symSize: 0x8C }
  - { offset: 0x31A537, size: 0x8, addend: 0x0, symName: __ZN18llama_model_loader13load_all_dataEP12ggml_contextRNSt3__113unordered_mapIjP19ggml_backend_bufferNS2_4hashIjEENS2_8equal_toIjEENS2_9allocatorINS2_4pairIKjS5_EEEEEEPNS2_6vectorINS2_10unique_ptrI11llama_mlockNS2_14default_deleteISJ_EEEENSA_ISM_EEEEPFbfPvESQ_, symObjAddr: 0x5700, symBinAddr: 0x5C490, symSize: 0x1880 }
  - { offset: 0x31EA64, size: 0x8, addend: 0x0, symName: __Z23llama_file_version_name10llama_fver, symObjAddr: 0x0, symBinAddr: 0x56F48, symSize: 0x28 }
  - { offset: 0x31EB4E, size: 0x8, addend: 0x0, symName: __ZN18llama_model_loader9get_arr_nIjEENSt3__19enable_ifIXsr3std11is_integralIT_EE5valueEbE4typeE6llm_kvRS3_b, symObjAddr: 0x28, symBinAddr: 0x56F70, symSize: 0xA0 }
  - { offset: 0x31EDDA, size: 0x8, addend: 0x0, symName: __ZN18llama_model_loader9get_arr_nIjEENSt3__19enable_ifIXsr3std11is_integralIT_EE5valueEbE4typeERKNS1_12basic_stringIcNS1_11char_traitsIcEENS1_9allocatorIcEEEERS3_b, symObjAddr: 0xC8, symBinAddr: 0x57010, symSize: 0x128 }
  - { offset: 0x31F148, size: 0x8, addend: 0x0, symName: __ZN8GGUFMeta3GKVINS_9ArrayInfoEE6get_kvEPK12gguf_contexti, symObjAddr: 0x7978, symBinAddr: 0x5E5BC, symSize: 0x150 }
  - { offset: 0x31F384, size: 0x8, addend: 0x0, symName: __ZN18llama_model_loader7get_arrINSt3__16vectorINS1_12basic_stringIcNS1_11char_traitsIcEENS1_9allocatorIcEEEENS6_IS8_EEEEEEb6llm_kvRT_b, symObjAddr: 0x1F0, symBinAddr: 0x57138, symSize: 0xA0 }
  - { offset: 0x31F610, size: 0x8, addend: 0x0, symName: __ZN18llama_model_loader7get_arrINSt3__112basic_stringIcNS1_11char_traitsIcEENS1_9allocatorIcEEEEEEbRKS7_RNS1_6vectorIT_NS5_ISB_EEEEb, symObjAddr: 0x290, symBinAddr: 0x571D8, symSize: 0x3B0 }
  - { offset: 0x320B32, size: 0x8, addend: 0x0, symName: __ZNSt3__112__hash_tableINS_17__hash_value_typeINS_12basic_stringIcNS_11char_traitsIcEENS_9allocatorIcEEEE23llama_model_kv_overrideEENS_22__unordered_map_hasherIS7_S9_NS_4hashIS7_EENS_8equal_toIS7_EELb1EEENS_21__unordered_map_equalIS7_S9_SE_SC_Lb1EEENS5_IS9_EEE4findIS7_EENS_15__hash_iteratorIPNS_11__hash_nodeIS9_PvEEEERKT_, symObjAddr: 0x7CA0, symBinAddr: 0x5E70C, symSize: 0x1B4 }
  - { offset: 0x320B71, size: 0x8, addend: 0x0, symName: __ZN18llama_model_loader7get_keyIbEEb6llm_kvRT_b, symObjAddr: 0x640, symBinAddr: 0x57588, symSize: 0xA0 }
  - { offset: 0x320DFD, size: 0x8, addend: 0x0, symName: __ZN18llama_model_loader7get_keyIbEEbRKNSt3__112basic_stringIcNS1_11char_traitsIcEENS1_9allocatorIcEEEERT_b, symObjAddr: 0x6E0, symBinAddr: 0x57628, symSize: 0x15C }
  - { offset: 0x3212BC, size: 0x8, addend: 0x0, symName: __ZNSt3__112__hash_tableINS_17__hash_value_typeINS_12basic_stringIcNS_11char_traitsIcEENS_9allocatorIcEEEE23llama_model_kv_overrideEENS_22__unordered_map_hasherIS7_S9_NS_4hashIS7_EENS_8equal_toIS7_EELb1EEENS_21__unordered_map_equalIS7_S9_SE_SC_Lb1EEENS5_IS9_EEE4findIS7_EENS_15__hash_iteratorIPNS_11__hash_nodeIS9_PvEEEERKT_, symObjAddr: 0x7CA0, symBinAddr: 0x5E70C, symSize: 0x1B4 }
  - { offset: 0x3215C5, size: 0x8, addend: 0x0, symName: __ZN8GGUFMeta3GKVIbE17validate_overrideE28llama_model_kv_override_typePK23llama_model_kv_override, symObjAddr: 0x83A0, symBinAddr: 0x5E9C0, symSize: 0x240 }
  - { offset: 0x3217A7, size: 0x8, addend: 0x0, symName: __ZN8GGUFMeta3GKVIbE6get_kvEPK12gguf_contexti, symObjAddr: 0x82A0, symBinAddr: 0x5E8C0, symSize: 0x100 }
  - { offset: 0x321978, size: 0x8, addend: 0x0, symName: __ZN18llama_model_loader7get_keyIfEEb6llm_kvRT_b, symObjAddr: 0x83C, symBinAddr: 0x57784, symSize: 0xA0 }
  - { offset: 0x321C04, size: 0x8, addend: 0x0, symName: __ZN18llama_model_loader7get_keyIfEEbRKNSt3__112basic_stringIcNS1_11char_traitsIcEENS1_9allocatorIcEEEERT_b, symObjAddr: 0x8DC, symBinAddr: 0x57824, symSize: 0x160 }
  - { offset: 0x32209C, size: 0x8, addend: 0x0, symName: __ZN8GGUFMeta3GKVIfE17validate_overrideE28llama_model_kv_override_typePK23llama_model_kv_override, symObjAddr: 0x86E0, symBinAddr: 0x5ED00, symSize: 0x240 }
  - { offset: 0x32227E, size: 0x8, addend: 0x0, symName: __ZN8GGUFMeta3GKVIfE6get_kvEPK12gguf_contexti, symObjAddr: 0x85E0, symBinAddr: 0x5EC00, symSize: 0x100 }
  - { offset: 0x32244F, size: 0x8, addend: 0x0, symName: __ZN18llama_model_loader7get_keyIjEEb6llm_kvRT_b, symObjAddr: 0xA3C, symBinAddr: 0x57984, symSize: 0xA0 }
  - { offset: 0x3226B8, size: 0x8, addend: 0x0, symName: __ZN18llama_model_loader7get_keyIjEEbRKNSt3__112basic_stringIcNS1_11char_traitsIcEENS1_9allocatorIcEEEERT_b, symObjAddr: 0xADC, symBinAddr: 0x57A24, symSize: 0x15C }
  - { offset: 0x322B50, size: 0x8, addend: 0x0, symName: __ZN8GGUFMeta3GKVIjE17validate_overrideE28llama_model_kv_override_typePK23llama_model_kv_override, symObjAddr: 0x8A20, symBinAddr: 0x5F040, symSize: 0x240 }
  - { offset: 0x322D32, size: 0x8, addend: 0x0, symName: __ZN8GGUFMeta3GKVIjE6get_kvEPK12gguf_contexti, symObjAddr: 0x8920, symBinAddr: 0x5EF40, symSize: 0x100 }
  - { offset: 0x322F03, size: 0x8, addend: 0x0, symName: __ZN18llama_model_loader7get_keyINSt3__112basic_stringIcNS1_11char_traitsIcEENS1_9allocatorIcEEEEEEb6llm_kvRT_b, symObjAddr: 0xC38, symBinAddr: 0x57B80, symSize: 0xA0 }
  - { offset: 0x32318F, size: 0x8, addend: 0x0, symName: __ZN18llama_model_loader7get_keyINSt3__112basic_stringIcNS1_11char_traitsIcEENS1_9allocatorIcEEEEEEbRKS7_RT_b, symObjAddr: 0xCD8, symBinAddr: 0x57C20, symSize: 0x184 }
  - { offset: 0x3237DE, size: 0x8, addend: 0x0, symName: __ZN8GGUFMeta3GKVINSt3__112basic_stringIcNS1_11char_traitsIcEENS1_9allocatorIcEEEEE17validate_overrideE28llama_model_kv_override_typePK23llama_model_kv_override, symObjAddr: 0x8DE4, symBinAddr: 0x5F404, symSize: 0x240 }
  - { offset: 0x3239C0, size: 0x8, addend: 0x0, symName: __ZN8GGUFMeta3GKVINSt3__112basic_stringIcNS1_11char_traitsIcEENS1_9allocatorIcEEEEE6get_kvEPK12gguf_contexti, symObjAddr: 0x8C60, symBinAddr: 0x5F280, symSize: 0x184 }
  - { offset: 0x323E54, size: 0x8, addend: 0x0, symName: __ZN18llama_model_loader7get_keyI18llama_pooling_typeEEb6llm_kvRT_b, symObjAddr: 0xE5C, symBinAddr: 0x57DA4, symSize: 0xA0 }
  - { offset: 0x324142, size: 0x8, addend: 0x0, symName: __ZN18llama_model_loader14get_key_or_arrINSt3__15arrayIiLm4EEEEEb6llm_kvRT_jb, symObjAddr: 0xEFC, symBinAddr: 0x57E44, symSize: 0xA8 }
  - { offset: 0x3243E4, size: 0x8, addend: 0x0, symName: __ZN18llama_model_loader14get_key_or_arrIiLm4EEEbRKNSt3__112basic_stringIcNS1_11char_traitsIcEENS1_9allocatorIcEEEERNS1_5arrayIT_XT0_EEEjb, symObjAddr: 0xFA4, symBinAddr: 0x57EEC, symSize: 0x32C }
  - { offset: 0x324AB4, size: 0x8, addend: 0x0, symName: __ZN18llama_model_loader7get_arrIiLm4EEEbRKNSt3__112basic_stringIcNS1_11char_traitsIcEENS1_9allocatorIcEEEERNS1_5arrayIT_XT0_EEEb, symObjAddr: 0x9024, symBinAddr: 0x5F644, symSize: 0x2D0 }
  - { offset: 0x325124, size: 0x8, addend: 0x0, symName: __ZN18llama_model_loader7get_keyIiEEbRKNSt3__112basic_stringIcNS1_11char_traitsIcEENS1_9allocatorIcEEEERT_b, symObjAddr: 0x402C, symBinAddr: 0x5AE2C, symSize: 0x15C }
  - { offset: 0x3254F0, size: 0x8, addend: 0x0, symName: __ZN18llama_model_loader14get_key_or_arrINSt3__15arrayIjLm512EEEEEb6llm_kvRT_jb, symObjAddr: 0x12D0, symBinAddr: 0x58218, symSize: 0xA8 }
  - { offset: 0x325792, size: 0x8, addend: 0x0, symName: __ZN18llama_model_loader14get_key_or_arrIjLm512EEEbRKNSt3__112basic_stringIcNS1_11char_traitsIcEENS1_9allocatorIcEEEERNS1_5arrayIT_XT0_EEEjb, symObjAddr: 0x1378, symBinAddr: 0x582C0, symSize: 0x34C }
  - { offset: 0x325E63, size: 0x8, addend: 0x0, symName: __ZN18llama_model_loader7get_arrIjLm512EEEbRKNSt3__112basic_stringIcNS1_11char_traitsIcEENS1_9allocatorIcEEEERNS1_5arrayIT_XT0_EEEb, symObjAddr: 0x92F4, symBinAddr: 0x5F914, symSize: 0x2D0 }
  - { offset: 0x3288B2, size: 0x8, addend: 0x0, symName: __ZN18llama_model_loaderC2ERKNSt3__112basic_stringIcNS0_11char_traitsIcEENS0_9allocatorIcEEEERNS0_6vectorIS6_NS4_IS6_EEEEbbPK23llama_model_kv_overridePK32llama_model_tensor_buft_override, symObjAddr: 0x16C4, symBinAddr: 0x5860C, symSize: 0x26C4 }
  - { offset: 0x33132F, size: 0x8, addend: 0x0, symName: __ZNSt3__112__hash_tableINS_17__hash_value_typeINS_12basic_stringIcNS_11char_traitsIcEENS_9allocatorIcEEEE23llama_model_kv_overrideEENS_22__unordered_map_hasherIS7_S9_NS_4hashIS7_EENS_8equal_toIS7_EELb1EEENS_21__unordered_map_equalIS7_S9_SE_SC_Lb1EEENS5_IS9_EEE25__emplace_unique_key_argsIS7_JNS_4pairIKS7_S8_EEEEENSL_INS_15__hash_iteratorIPNS_11__hash_nodeIS9_PvEEEEbEERKT_DpOT0_, symObjAddr: 0x9624, symBinAddr: 0x5FC44, symSize: 0x428 }
  - { offset: 0x331C85, size: 0x8, addend: 0x0, symName: __ZNK18llama_model_loader20weight_name_comparerclERKNSt3__112basic_stringIcNS1_11char_traitsIcEENS1_9allocatorIcEEEES9_, symObjAddr: 0x9C54, symBinAddr: 0x60260, symSize: 0xF4 }
  - { offset: 0x331F42, size: 0x8, addend: 0x0, symName: __ZN18llama_model_loader19llama_tensor_weightC2EPK10llama_filetPK12gguf_contextP11ggml_tensor, symObjAddr: 0x7558, symBinAddr: 0x5E2D8, symSize: 0x1B8 }
  - { offset: 0x3321CA, size: 0x8, addend: 0x0, symName: __ZNSt3__16__treeINS_12__value_typeINS_12basic_stringIcNS_11char_traitsIcEENS_9allocatorIcEEEEN18llama_model_loader19llama_tensor_weightEEENS_19__map_value_compareIS7_SA_NS8_20weight_name_comparerELb1EEENS5_ISA_EEE25__emplace_unique_key_argsIS7_JRS7_S9_EEENS_4pairINS_15__tree_iteratorISA_PNS_11__tree_nodeISA_PvEElEEbEERKT_DpOT0_, symObjAddr: 0x9D48, symBinAddr: 0x60354, symSize: 0x148 }
  - { offset: 0x3325A8, size: 0x8, addend: 0x0, symName: __ZN8GGUFMeta3GKVItE17validate_overrideE28llama_model_kv_override_typePK23llama_model_kv_override, symObjAddr: 0xA19C, symBinAddr: 0x605FC, symSize: 0x240 }
  - { offset: 0x33278A, size: 0x8, addend: 0x0, symName: __ZN8GGUFMeta3GKVItE6get_kvEPK12gguf_contexti, symObjAddr: 0xA09C, symBinAddr: 0x604FC, symSize: 0x100 }
  - { offset: 0x332969, size: 0x8, addend: 0x0, symName: __ZN18llama_model_loader7get_keyItEEbRKNSt3__112basic_stringIcNS1_11char_traitsIcEENS1_9allocatorIcEEEERT_b, symObjAddr: 0x3E2C, symBinAddr: 0x5ACD0, symSize: 0x15C }
  - { offset: 0x332E5D, size: 0x8, addend: 0x0, symName: __ZNSt3__16__treeINS_12__value_typeI9ggml_typejEENS_19__map_value_compareIS2_S3_NS_4lessIS2_EELb1EEENS_9allocatorIS3_EEE7destroyEPNS_11__tree_nodeIS3_PvEE, symObjAddr: 0xA71C, symBinAddr: 0x60B7C, symSize: 0x44 }
  - { offset: 0x332F7E, size: 0x8, addend: 0x0, symName: __ZNK18llama_model_loader20weight_name_comparerclERKNSt3__112basic_stringIcNS1_11char_traitsIcEENS1_9allocatorIcEEEES9_, symObjAddr: 0x9C54, symBinAddr: 0x60260, symSize: 0xF4 }
  - { offset: 0x332F89, size: 0x8, addend: 0x0, symName: __ZNSt3__16vectorINS_10unique_ptrI10llama_fileNS_14default_deleteIS2_EEEENS_9allocatorIS5_EEE20__throw_length_errorB8ne200100Ev, symObjAddr: 0x9C2C, symBinAddr: 0x6024C, symSize: 0x14 }
  - { offset: 0x332FB6, size: 0x8, addend: 0x0, symName: __ZNSt3__16vectorIP18ggml_backend_eventNS_9allocatorIS2_EEE12emplace_backIJRS2_EEES7_DpOT_, symObjAddr: 0x784C, symBinAddr: 0x5E490, symSize: 0xF0 }
  - { offset: 0x333156, size: 0x8, addend: 0x0, symName: __ZNSt3__110unique_ptrINS_11__tree_nodeINS_12__value_typeINS_12basic_stringIcNS_11char_traitsIcEENS_9allocatorIcEEEEN18llama_model_loader19llama_tensor_weightEEEPvEENS_22__tree_node_destructorINS6_ISD_EEEEED1B8ne200100Ev, symObjAddr: 0x9E90, symBinAddr: 0x6049C, symSize: 0x60 }
  - { offset: 0x3335D6, size: 0x8, addend: 0x0, symName: __ZNSt3__113unordered_mapINS_12basic_stringIcNS_11char_traitsIcEENS_9allocatorIcEEEE23llama_model_kv_overrideNS_4hashIS6_EENS_8equal_toIS6_EENS4_INS_4pairIKS6_S7_EEEEED1B8ne200100Ev, symObjAddr: 0x41F8, symBinAddr: 0x5AF88, symSize: 0x68 }
  - { offset: 0x3339D6, size: 0x8, addend: 0x0, symName: __ZNSt3__16__treeINS_12__value_typeINS_12basic_stringIcNS_11char_traitsIcEENS_9allocatorIcEEEEN18llama_model_loader19llama_tensor_weightEEENS_19__map_value_compareIS7_SA_NS8_20weight_name_comparerELb1EEENS5_ISA_EEE7destroyEPNS_11__tree_nodeISA_PvEE, symObjAddr: 0x95C4, symBinAddr: 0x5FBE4, symSize: 0x60 }
  - { offset: 0x333C1A, size: 0x8, addend: 0x0, symName: __ZNSt3__16vectorINS_10unique_ptrI10llama_mmapNS_14default_deleteIS2_EEEENS_9allocatorIS5_EEED1B8ne200100Ev, symObjAddr: 0x4260, symBinAddr: 0x5AFF0, symSize: 0x70 }
  - { offset: 0x333E33, size: 0x8, addend: 0x0, symName: __ZNSt3__16vectorINS_10unique_ptrI10llama_fileNS_14default_deleteIS2_EEEENS_9allocatorIS5_EEED1B8ne200100Ev, symObjAddr: 0x42D0, symBinAddr: 0x5B060, symSize: 0x70 }
  - { offset: 0x3341D1, size: 0x8, addend: 0x0, symName: __ZN18llama_model_loader7get_keyItEEbRKNSt3__112basic_stringIcNS1_11char_traitsIcEENS1_9allocatorIcEEEERT_b, symObjAddr: 0x3E2C, symBinAddr: 0x5ACD0, symSize: 0x15C }
  - { offset: 0x3342DD, size: 0x8, addend: 0x0, symName: __ZN8GGUFMeta3GKVIiE17validate_overrideE28llama_model_kv_override_typePK23llama_model_kv_override, symObjAddr: 0xA4DC, symBinAddr: 0x6093C, symSize: 0x240 }
  - { offset: 0x3344BF, size: 0x8, addend: 0x0, symName: __ZN8GGUFMeta3GKVIiE6get_kvEPK12gguf_contexti, symObjAddr: 0xA3DC, symBinAddr: 0x6083C, symSize: 0x100 }
  - { offset: 0x334D4A, size: 0x8, addend: 0x0, symName: __ZN18llama_model_loaderC1ERKNSt3__112basic_stringIcNS0_11char_traitsIcEENS0_9allocatorIcEEEERNS0_6vectorIS6_NS4_IS6_EEEEbbPK23llama_model_kv_overridePK32llama_model_tensor_buft_override, symObjAddr: 0x4340, symBinAddr: 0x5B0D0, symSize: 0x4 }
  - { offset: 0x334DD7, size: 0x8, addend: 0x0, symName: __ZN18llama_model_loaderC1ERKNSt3__112basic_stringIcNS0_11char_traitsIcEENS0_9allocatorIcEEEERNS0_6vectorIS6_NS4_IS6_EEEEbbPK23llama_model_kv_overridePK32llama_model_tensor_buft_override, symObjAddr: 0x4340, symBinAddr: 0x5B0D0, symSize: 0x4 }
  - { offset: 0x334E14, size: 0x8, addend: 0x0, symName: __ZNK18llama_model_loader13get_arch_nameEv, symObjAddr: 0x4344, symBinAddr: 0x5B0D4, symSize: 0x28 }
  - { offset: 0x334E5A, size: 0x8, addend: 0x0, symName: __ZNK18llama_model_loader13get_arch_nameEv, symObjAddr: 0x4344, symBinAddr: 0x5B0D4, symSize: 0x28 }
  - { offset: 0x334E92, size: 0x8, addend: 0x0, symName: __ZNK18llama_model_loader8get_archEv, symObjAddr: 0x436C, symBinAddr: 0x5B0FC, symSize: 0x8 }
  - { offset: 0x334F73, size: 0x8, addend: 0x0, symName: __ZNK18llama_model_loader10get_weightEPKc, symObjAddr: 0x4374, symBinAddr: 0x5B104, symSize: 0x14C }
  - { offset: 0x335534, size: 0x8, addend: 0x0, symName: __ZNK18llama_model_loader14require_weightEPKc, symObjAddr: 0x44C0, symBinAddr: 0x5B250, symSize: 0xC4 }
  - { offset: 0x3356B5, size: 0x8, addend: 0x0, symName: __ZNK18llama_model_loader15get_tensor_metaEPKc, symObjAddr: 0x4584, symBinAddr: 0x5B314, symSize: 0x1C }
  - { offset: 0x33573B, size: 0x8, addend: 0x0, symName: __ZNK18llama_model_loader19require_tensor_metaERKNSt3__112basic_stringIcNS0_11char_traitsIcEENS0_9allocatorIcEEEE, symObjAddr: 0x45A0, symBinAddr: 0x5B330, symSize: 0xEC }
  - { offset: 0x3359CE, size: 0x8, addend: 0x0, symName: __ZNK18llama_model_loader17check_tensor_dimsERKNSt3__112basic_stringIcNS0_11char_traitsIcEENS0_9allocatorIcEEEERKNS0_6vectorIxNS4_IxEEEEb, symObjAddr: 0x468C, symBinAddr: 0x5B41C, symSize: 0x2E0 }
  - { offset: 0x336485, size: 0x8, addend: 0x0, symName: __ZN18llama_model_loader13create_tensorEP12ggml_contextRKNSt3__112basic_stringIcNS2_11char_traitsIcEENS2_9allocatorIcEEEERKSt16initializer_listIxEi, symObjAddr: 0x496C, symBinAddr: 0x5B6FC, symSize: 0x144 }
  - { offset: 0x336A81, size: 0x8, addend: 0x0, symName: __ZNSt3__16vectorIxNS_9allocatorIxEEE20__throw_length_errorB8ne200100Ev, symObjAddr: 0xA7D4, symBinAddr: 0x60BC0, symSize: 0x14 }
  - { offset: 0x336A99, size: 0x8, addend: 0x0, symName: __ZNSt3__16vectorINS_10unique_ptrI10llama_mmapNS_14default_deleteIS2_EEEENS_9allocatorIS5_EEE20__throw_length_errorB8ne200100Ev, symObjAddr: 0xA7E8, symBinAddr: 0x60BD4, symSize: 0x14 }
  - { offset: 0x336AA4, size: 0x8, addend: 0x0, symName: __ZN18llama_model_loader21create_tensor_as_viewEP12ggml_contextP11ggml_tensorRKNSt3__112basic_stringIcNS4_11char_traitsIcEENS4_9allocatorIcEEEERKSt16initializer_listIxEmb, symObjAddr: 0x4AB0, symBinAddr: 0x5B840, symSize: 0x28C }
  - { offset: 0x3372E3, size: 0x8, addend: 0x0, symName: __ZNK18llama_model_loader20done_getting_tensorsEv, symObjAddr: 0x4D3C, symBinAddr: 0x5BACC, symSize: 0xD0 }
  - { offset: 0x338014, size: 0x8, addend: 0x0, symName: __ZN18llama_model_loader13init_mappingsEbPNSt3__16vectorINS0_10unique_ptrI11llama_mlockNS0_14default_deleteIS3_EEEENS0_9allocatorIS6_EEEE, symObjAddr: 0x4E0C, symBinAddr: 0x5BB9C, symSize: 0x52C }
  - { offset: 0x3397BB, size: 0x8, addend: 0x0, symName: __ZNSt3__16vectorINS_10unique_ptrI10llama_mmapNS_14default_deleteIS2_EEEENS_9allocatorIS5_EEE20__throw_length_errorB8ne200100Ev, symObjAddr: 0xA7E8, symBinAddr: 0x60BD4, symSize: 0x14 }
  - { offset: 0x3397E8, size: 0x8, addend: 0x0, symName: __ZNSt3__16vectorINS_10unique_ptrI11llama_mlockNS_14default_deleteIS2_EEEENS_9allocatorIS5_EEE20__throw_length_errorB8ne200100Ev, symObjAddr: 0xA810, symBinAddr: 0x60BE8, symSize: 0x14 }
  - { offset: 0x3397F3, size: 0x8, addend: 0x0, symName: __ZNSt3__16vectorINS_10unique_ptrI11llama_mlockNS_14default_deleteIS2_EEEENS_9allocatorIS5_EEE20__throw_length_errorB8ne200100Ev, symObjAddr: 0xA810, symBinAddr: 0x60BE8, symSize: 0x14 }
  - { offset: 0x33980B, size: 0x8, addend: 0x0, symName: __ZNSt3__16vectorINS_10unique_ptrI10llama_mmapNS_14default_deleteIS2_EEEENS_9allocatorIS5_EEE20__throw_out_of_rangeB8ne200100Ev, symObjAddr: 0xA824, symBinAddr: 0x60BFC, symSize: 0x14 }
  - { offset: 0x339816, size: 0x8, addend: 0x0, symName: __ZNSt3__110unique_ptrI10llama_mmapNS_14default_deleteIS1_EEED1B8ne200100Ev, symObjAddr: 0x5374, symBinAddr: 0x5C104, symSize: 0x3C }
  - { offset: 0x3398AE, size: 0x8, addend: 0x0, symName: __ZNSt3__110unique_ptrI11llama_mlockNS_14default_deleteIS1_EEED1B8ne200100Ev, symObjAddr: 0x5338, symBinAddr: 0x5C0C8, symSize: 0x3C }
  - { offset: 0x339A5D, size: 0x8, addend: 0x0, symName: __ZNK18llama_model_loader17get_mapping_rangeEPmS0_PPviP12ggml_context, symObjAddr: 0x53B0, symBinAddr: 0x5C140, symSize: 0x134 }
  - { offset: 0x339CE1, size: 0x8, addend: 0x0, symName: __ZNK18llama_model_loader13load_data_forEP11ggml_tensor, symObjAddr: 0x54E4, symBinAddr: 0x5C274, symSize: 0x21C }
  - { offset: 0x339CEC, size: 0x8, addend: 0x0, symName: __ZNSt3__16vectorINS_10unique_ptrI10llama_mmapNS_14default_deleteIS2_EEEENS_9allocatorIS5_EEE20__throw_out_of_rangeB8ne200100Ev, symObjAddr: 0xA824, symBinAddr: 0x60BFC, symSize: 0x14 }
  - { offset: 0x339D04, size: 0x8, addend: 0x0, symName: __ZNSt3__16vectorINS_10unique_ptrI10llama_fileNS_14default_deleteIS2_EEEENS_9allocatorIS5_EEE20__throw_out_of_rangeB8ne200100Ev, symObjAddr: 0xA838, symBinAddr: 0x60C10, symSize: 0x14 }
  - { offset: 0x339D25, size: 0x8, addend: 0x0, symName: __ZNK18llama_model_loader13load_data_forEP11ggml_tensor, symObjAddr: 0x54E4, symBinAddr: 0x5C274, symSize: 0x21C }
  - { offset: 0x33C691, size: 0x8, addend: 0x0, symName: __ZNSt3__113__assoc_stateINS_4pairIP11ggml_tensorbEEE4moveEv, symObjAddr: 0xAE70, symBinAddr: 0x61248, symSize: 0xCC }
  - { offset: 0x33C88F, size: 0x8, addend: 0x0, symName: __ZNSt3__16vectorIP18ggml_backend_eventNS_9allocatorIS2_EEE12emplace_backIJRS2_EEES7_DpOT_, symObjAddr: 0x784C, symBinAddr: 0x5E490, symSize: 0xF0 }
  - { offset: 0x33CC7D, size: 0x8, addend: 0x0, symName: __ZNSt3__16vectorIP19ggml_backend_bufferNS_9allocatorIS2_EEE20__throw_length_errorB8ne200100Ev, symObjAddr: 0x793C, symBinAddr: 0x5E580, symSize: 0x14 }
  - { offset: 0x33CCCE, size: 0x8, addend: 0x0, symName: __ZNSt3__16vectorINS_10unique_ptrI10llama_fileNS_14default_deleteIS2_EEEENS_9allocatorIS5_EEE20__throw_out_of_rangeB8ne200100Ev, symObjAddr: 0xA838, symBinAddr: 0x60C10, symSize: 0x14 }
  - { offset: 0x33CCE6, size: 0x8, addend: 0x0, symName: '__ZNSt3__119__async_assoc_stateINS_4pairIP11ggml_tensorbEENS_12__async_funcIZN18llama_model_loader13load_all_dataEP12ggml_contextRNS_13unordered_mapIjP19ggml_backend_bufferNS_4hashIjEENS_8equal_toIjEENS_9allocatorINS1_IKjSB_EEEEEEPNS_6vectorINS_10unique_ptrI11llama_mlockNS_14default_deleteISO_EEEENSG_ISR_EEEEPFbfPvESV_E3$_0JEEEED1Ev', symObjAddr: 0xA84C, symBinAddr: 0x60C24, symSize: 0x4C }
  - { offset: 0x33CCF1, size: 0x8, addend: 0x0, symName: __ZNSt3__16vectorINS_4pairImmEENS_9allocatorIS2_EEE20__throw_out_of_rangeB8ne200100Ev, symObjAddr: 0xAF3C, symBinAddr: 0x61314, symSize: 0x14 }
  - { offset: 0x33CD14, size: 0x8, addend: 0x0, symName: __ZNSt3__16vectorINS_6futureINS_4pairIP11ggml_tensorbEEEENS_9allocatorIS6_EEE20__throw_length_errorB8ne200100Ev, symObjAddr: 0xAB8C, symBinAddr: 0x60F64, symSize: 0x14 }
  - { offset: 0x33CD2C, size: 0x8, addend: 0x0, symName: __ZNSt3__16vectorINS_10unique_ptrI11llama_mlockNS_14default_deleteIS2_EEEENS_9allocatorIS5_EEE20__throw_out_of_rangeB8ne200100Ev, symObjAddr: 0xABA0, symBinAddr: 0x60F78, symSize: 0x14 }
  - { offset: 0x33CD37, size: 0x8, addend: 0x0, symName: __ZNSt3__16vectorINS_10unique_ptrI11llama_mlockNS_14default_deleteIS2_EEEENS_9allocatorIS5_EEE20__throw_out_of_rangeB8ne200100Ev, symObjAddr: 0xABA0, symBinAddr: 0x60F78, symSize: 0x14 }
  - { offset: 0x33CD4F, size: 0x8, addend: 0x0, symName: '__ZNSt3__119__async_assoc_stateINS_4pairIP11ggml_tensorbEENS_12__async_funcIZN18llama_model_loader13load_all_dataEP12ggml_contextRNS_13unordered_mapIjP19ggml_backend_bufferNS_4hashIjEENS_8equal_toIjEENS_9allocatorINS1_IKjSB_EEEEEEPNS_6vectorINS_10unique_ptrI11llama_mlockNS_14default_deleteISO_EEEENSG_ISR_EEEEPFbfPvESV_E3$_1JEEEED1Ev', symObjAddr: 0xABB4, symBinAddr: 0x60F8C, symSize: 0x4C }
  - { offset: 0x33CD5A, size: 0x8, addend: 0x0, symName: __ZNSt3__16vectorI7no_initIhENS_9allocatorIS2_EEE20__throw_length_errorB8ne200100Ev, symObjAddr: 0xAE5C, symBinAddr: 0x61234, symSize: 0x14 }
  - { offset: 0x33CD72, size: 0x8, addend: 0x0, symName: __ZNSt3__113__assoc_stateINS_4pairIP11ggml_tensorbEEE4moveEv, symObjAddr: 0xAE70, symBinAddr: 0x61248, symSize: 0xCC }
  - { offset: 0x33CD7D, size: 0x8, addend: 0x0, symName: __ZNSt3__16vectorIP19ggml_backend_bufferNS_9allocatorIS2_EEE20__throw_length_errorB8ne200100Ev, symObjAddr: 0x793C, symBinAddr: 0x5E580, symSize: 0x14 }
  - { offset: 0x33CD95, size: 0x8, addend: 0x0, symName: __ZNSt3__16vectorIPvNS_9allocatorIS1_EEE20__throw_length_errorB8ne200100Ev, symObjAddr: 0x7950, symBinAddr: 0x5E594, symSize: 0x14 }
  - { offset: 0x33CDA0, size: 0x8, addend: 0x0, symName: __ZNSt3__16vectorIPvNS_9allocatorIS1_EEE20__throw_length_errorB8ne200100Ev, symObjAddr: 0x7950, symBinAddr: 0x5E594, symSize: 0x14 }
  - { offset: 0x33CDB8, size: 0x8, addend: 0x0, symName: __ZNSt3__16vectorIP18ggml_backend_eventNS_9allocatorIS2_EEE20__throw_length_errorB8ne200100Ev, symObjAddr: 0x7964, symBinAddr: 0x5E5A8, symSize: 0x14 }
  - { offset: 0x33CDC3, size: 0x8, addend: 0x0, symName: '__ZNSt3__110unique_ptrINS_5tupleIJNS0_INS_15__thread_structENS_14default_deleteIS2_EEEEMNS_19__async_assoc_stateINS_4pairIP11ggml_tensorbEENS_12__async_funcIZN18llama_model_loader13load_all_dataEP12ggml_contextRNS_13unordered_mapIjP19ggml_backend_bufferNS_4hashIjEENS_8equal_toIjEENS_9allocatorINS7_IKjSH_EEEEEEPNS_6vectorINS0_I11llama_mlockNS3_IST_EEEENSM_ISV_EEEEPFbfPvESZ_E3$_1JEEEEEFvvEPS14_EEENS3_IS18_EEED1B8ne200100Ev', symObjAddr: 0xAE14, symBinAddr: 0x611EC, symSize: 0x48 }
  - { offset: 0x33CF6B, size: 0x8, addend: 0x0, symName: __ZNSt3__110unique_ptrINS_15__thread_structENS_14default_deleteIS1_EEED1B8ne200100Ev, symObjAddr: 0xAB50, symBinAddr: 0x60F28, symSize: 0x3C }
  - { offset: 0x33D003, size: 0x8, addend: 0x0, symName: '__ZNSt3__110unique_ptrINS_5tupleIJNS0_INS_15__thread_structENS_14default_deleteIS2_EEEEMNS_19__async_assoc_stateINS_4pairIP11ggml_tensorbEENS_12__async_funcIZN18llama_model_loader13load_all_dataEP12ggml_contextRNS_13unordered_mapIjP19ggml_backend_bufferNS_4hashIjEENS_8equal_toIjEENS_9allocatorINS7_IKjSH_EEEEEEPNS_6vectorINS0_I11llama_mlockNS3_IST_EEEENSM_ISV_EEEEPFbfPvESZ_E3$_0JEEEEEFvvEPS14_EEENS3_IS18_EEED1B8ne200100Ev', symObjAddr: 0xAB08, symBinAddr: 0x60EE0, symSize: 0x48 }
  - { offset: 0x33D1AB, size: 0x8, addend: 0x0, symName: __ZNSt3__16vectorINS_6futureINS_4pairIP11ggml_tensorbEEEENS_9allocatorIS6_EEED1B8ne200100Ev, symObjAddr: 0x6F80, symBinAddr: 0x5DD10, symSize: 0x80 }
  - { offset: 0x33D3AD, size: 0x8, addend: 0x0, symName: __ZNK18llama_model_loader10ftype_nameEv, symObjAddr: 0x7000, symBinAddr: 0x5DD90, symSize: 0xC }
  - { offset: 0x33D3ED, size: 0x8, addend: 0x0, symName: __ZL22llama_model_ftype_name11llama_ftype, symObjAddr: 0x700C, symBinAddr: 0x5DD9C, symSize: 0x3EC }
  - { offset: 0x33D876, size: 0x8, addend: 0x0, symName: __ZNK18llama_model_loader10print_infoEv, symObjAddr: 0x73F8, symBinAddr: 0x5E188, symSize: 0x150 }
  - { offset: 0x33E071, size: 0x8, addend: 0x0, symName: __ZNSt3__16vectorIP18ggml_backend_eventNS_9allocatorIS2_EEE20__throw_length_errorB8ne200100Ev, symObjAddr: 0x7964, symBinAddr: 0x5E5A8, symSize: 0x14 }
  - { offset: 0x33E089, size: 0x8, addend: 0x0, symName: __ZN8GGUFMeta3GKVINS_9ArrayInfoEE6get_kvEPK12gguf_contexti, symObjAddr: 0x7978, symBinAddr: 0x5E5BC, symSize: 0x150 }
  - { offset: 0x33F0CF, size: 0x8, addend: 0x0, symName: __ZNSt3__112__hash_tableINS_17__hash_value_typeINS_12basic_stringIcNS_11char_traitsIcEENS_9allocatorIcEEEE23llama_model_kv_overrideEENS_22__unordered_map_hasherIS7_S9_NS_4hashIS7_EENS_8equal_toIS7_EELb1EEENS_21__unordered_map_equalIS7_S9_SE_SC_Lb1EEENS5_IS9_EEE11__do_rehashILb1EEEvm, symObjAddr: 0x9AAC, symBinAddr: 0x600CC, symSize: 0x180 }
  - { offset: 0x33F45C, size: 0x8, addend: 0x0, symName: __ZNSt3__16vectorINS_10unique_ptrI10llama_fileNS_14default_deleteIS2_EEEENS_9allocatorIS5_EEE20__throw_length_errorB8ne200100Ev, symObjAddr: 0x9C2C, symBinAddr: 0x6024C, symSize: 0x14 }
  - { offset: 0x33F471, size: 0x8, addend: 0x0, symName: __ZNSt3__110unique_ptrINS_11__hash_nodeINS_17__hash_value_typeINS_12basic_stringIcNS_11char_traitsIcEENS_9allocatorIcEEEE23llama_model_kv_overrideEEPvEENS_22__hash_node_destructorINS6_ISC_EEEEED1B8ne200100Ev, symObjAddr: 0x9A4C, symBinAddr: 0x6006C, symSize: 0x60 }
  - { offset: 0x33FA12, size: 0x8, addend: 0x0, symName: '__ZNSt3__119__async_assoc_stateINS_4pairIP11ggml_tensorbEENS_12__async_funcIZN18llama_model_loader13load_all_dataEP12ggml_contextRNS_13unordered_mapIjP19ggml_backend_bufferNS_4hashIjEENS_8equal_toIjEENS_9allocatorINS1_IKjSB_EEEEEEPNS_6vectorINS_10unique_ptrI11llama_mlockNS_14default_deleteISO_EEEENSG_ISR_EEEEPFbfPvESV_E3$_0JEEEED1Ev', symObjAddr: 0xA84C, symBinAddr: 0x60C24, symSize: 0x4C }
  - { offset: 0x33FAAE, size: 0x8, addend: 0x0, symName: '__ZNSt3__119__async_assoc_stateINS_4pairIP11ggml_tensorbEENS_12__async_funcIZN18llama_model_loader13load_all_dataEP12ggml_contextRNS_13unordered_mapIjP19ggml_backend_bufferNS_4hashIjEENS_8equal_toIjEENS_9allocatorINS1_IKjSB_EEEEEEPNS_6vectorINS_10unique_ptrI11llama_mlockNS_14default_deleteISO_EEEENSG_ISR_EEEEPFbfPvESV_E3$_0JEEEED0Ev', symObjAddr: 0xA898, symBinAddr: 0x60C70, symSize: 0x50 }
  - { offset: 0x33FB68, size: 0x8, addend: 0x0, symName: '__ZNSt3__119__async_assoc_stateINS_4pairIP11ggml_tensorbEENS_12__async_funcIZN18llama_model_loader13load_all_dataEP12ggml_contextRNS_13unordered_mapIjP19ggml_backend_bufferNS_4hashIjEENS_8equal_toIjEENS_9allocatorINS1_IKjSB_EEEEEEPNS_6vectorINS_10unique_ptrI11llama_mlockNS_14default_deleteISO_EEEENSG_ISR_EEEEPFbfPvESV_E3$_0JEEEE16__on_zero_sharedEv', symObjAddr: 0xA8E8, symBinAddr: 0x60CC0, symSize: 0x30 }
  - { offset: 0x33FDD1, size: 0x8, addend: 0x0, symName: '__ZNSt3__119__async_assoc_stateINS_4pairIP11ggml_tensorbEENS_12__async_funcIZN18llama_model_loader13load_all_dataEP12ggml_contextRNS_13unordered_mapIjP19ggml_backend_bufferNS_4hashIjEENS_8equal_toIjEENS_9allocatorINS1_IKjSB_EEEEEEPNS_6vectorINS_10unique_ptrI11llama_mlockNS_14default_deleteISO_EEEENSG_ISR_EEEEPFbfPvESV_E3$_0JEEEE9__executeEv', symObjAddr: 0xA918, symBinAddr: 0x60CF0, symSize: 0x108 }
  - { offset: 0x34028E, size: 0x8, addend: 0x0, symName: '__ZNSt3__119__async_assoc_stateINS_4pairIP11ggml_tensorbEENS_12__async_funcIZN18llama_model_loader13load_all_dataEP12ggml_contextRNS_13unordered_mapIjP19ggml_backend_bufferNS_4hashIjEENS_8equal_toIjEENS_9allocatorINS1_IKjSB_EEEEEEPNS_6vectorINS_10unique_ptrI11llama_mlockNS_14default_deleteISO_EEEENSG_ISR_EEEEPFbfPvESV_E3$_1JEEEED1Ev', symObjAddr: 0xABB4, symBinAddr: 0x60F8C, symSize: 0x4C }
  - { offset: 0x34032A, size: 0x8, addend: 0x0, symName: '__ZNSt3__119__async_assoc_stateINS_4pairIP11ggml_tensorbEENS_12__async_funcIZN18llama_model_loader13load_all_dataEP12ggml_contextRNS_13unordered_mapIjP19ggml_backend_bufferNS_4hashIjEENS_8equal_toIjEENS_9allocatorINS1_IKjSB_EEEEEEPNS_6vectorINS_10unique_ptrI11llama_mlockNS_14default_deleteISO_EEEENSG_ISR_EEEEPFbfPvESV_E3$_1JEEEED0Ev', symObjAddr: 0xAC00, symBinAddr: 0x60FD8, symSize: 0x50 }
  - { offset: 0x3403CC, size: 0x8, addend: 0x0, symName: '__ZNSt3__119__async_assoc_stateINS_4pairIP11ggml_tensorbEENS_12__async_funcIZN18llama_model_loader13load_all_dataEP12ggml_contextRNS_13unordered_mapIjP19ggml_backend_bufferNS_4hashIjEENS_8equal_toIjEENS_9allocatorINS1_IKjSB_EEEEEEPNS_6vectorINS_10unique_ptrI11llama_mlockNS_14default_deleteISO_EEEENSG_ISR_EEEEPFbfPvESV_E3$_1JEEEE16__on_zero_sharedEv', symObjAddr: 0xAC50, symBinAddr: 0x61028, symSize: 0x30 }
  - { offset: 0x34047C, size: 0x8, addend: 0x0, symName: '__ZNSt3__119__async_assoc_stateINS_4pairIP11ggml_tensorbEENS_12__async_funcIZN18llama_model_loader13load_all_dataEP12ggml_contextRNS_13unordered_mapIjP19ggml_backend_bufferNS_4hashIjEENS_8equal_toIjEENS_9allocatorINS1_IKjSB_EEEEEEPNS_6vectorINS_10unique_ptrI11llama_mlockNS_14default_deleteISO_EEEENSG_ISR_EEEEPFbfPvESV_E3$_1JEEEE9__executeEv', symObjAddr: 0xAC80, symBinAddr: 0x61058, symSize: 0x108 }
  - { offset: 0x356439, size: 0x8, addend: 0x0, symName: __ZN17llama_model_saverC2ERK11llama_model, symObjAddr: 0x0, symBinAddr: 0x61328, symSize: 0x38 }
  - { offset: 0x3564AA, size: 0x8, addend: 0x0, symName: __ZN17llama_model_saverC1ERK11llama_model, symObjAddr: 0x38, symBinAddr: 0x61360, symSize: 0x38 }
  - { offset: 0x356519, size: 0x8, addend: 0x0, symName: __ZN17llama_model_saverD2Ev, symObjAddr: 0x70, symBinAddr: 0x61398, symSize: 0x2C }
  - { offset: 0x356572, size: 0x8, addend: 0x0, symName: __ZN17llama_model_saverD1Ev, symObjAddr: 0xAC, symBinAddr: 0x613C4, symSize: 0x2C }
  - { offset: 0x3566CC, size: 0x8, addend: 0x0, symName: __ZN17llama_model_saver6add_kvE6llm_kvj, symObjAddr: 0xD8, symBinAddr: 0x613F0, symSize: 0x98 }
  - { offset: 0x3569A8, size: 0x8, addend: 0x0, symName: __ZN17llama_model_saver6add_kvE6llm_kvi, symObjAddr: 0x170, symBinAddr: 0x61488, symSize: 0x98 }
  - { offset: 0x356C84, size: 0x8, addend: 0x0, symName: __ZN17llama_model_saver6add_kvE6llm_kvf, symObjAddr: 0x208, symBinAddr: 0x61520, symSize: 0x98 }
  - { offset: 0x356F5A, size: 0x8, addend: 0x0, symName: __ZN17llama_model_saver6add_kvE6llm_kvb, symObjAddr: 0x2A0, symBinAddr: 0x615B8, symSize: 0x98 }
  - { offset: 0x357236, size: 0x8, addend: 0x0, symName: __ZN17llama_model_saver6add_kvE6llm_kvPKc, symObjAddr: 0x338, symBinAddr: 0x61650, symSize: 0x98 }
  - { offset: 0x357525, size: 0x8, addend: 0x0, symName: __ZN17llama_model_saver6add_kvE6llm_kvc, symObjAddr: 0x3D0, symBinAddr: 0x616E8, symSize: 0x20 }
  - { offset: 0x357562, size: 0x8, addend: 0x0, symName: __ZN17llama_model_saver6add_kvE6llm_kvRKNSt3__16vectorINS1_12basic_stringIcNS1_11char_traitsIcEENS1_9allocatorIcEEEENS6_IS8_EEEE, symObjAddr: 0x3F0, symBinAddr: 0x61708, symSize: 0x2D4 }
  - { offset: 0x357801, size: 0x8, addend: 0x0, symName: __ZN17llama_model_saver6add_kvE6llm_kvRKNSt3__16vectorINS1_12basic_stringIcNS1_11char_traitsIcEENS1_9allocatorIcEEEENS6_IS8_EEEE, symObjAddr: 0x3F0, symBinAddr: 0x61708, symSize: 0x2D4 }
  - { offset: 0x357E5F, size: 0x8, addend: 0x0, symName: __ZNSt3__16vectorIPKcNS_9allocatorIS2_EEE20__throw_length_errorB8ne200100Ev, symObjAddr: 0x293C, symBinAddr: 0x63BE4, symSize: 0x14 }
  - { offset: 0x3580FC, size: 0x8, addend: 0x0, symName: __ZN17llama_model_saver10add_tensorEPK11ggml_tensor, symObjAddr: 0x6C4, symBinAddr: 0x619DC, symSize: 0x1A0 }
  - { offset: 0x3584CD, size: 0x8, addend: 0x0, symName: __ZN17llama_model_saver17add_kv_from_modelEv, symObjAddr: 0x864, symBinAddr: 0x61B7C, symSize: 0x1ADC }
  - { offset: 0x35852E, size: 0x8, addend: 0x0, symName: __ZNSt3__128__exception_guard_exceptionsINS_6vectorINS_12basic_stringIcNS_11char_traitsIcEENS_9allocatorIcEEEENS5_IS7_EEE16__destroy_vectorEED1B8ne200100Ev, symObjAddr: 0x29D8, symBinAddr: 0x63BF8, symSize: 0x80 }
  - { offset: 0x358FC8, size: 0x8, addend: 0x0, symName: __ZN17llama_model_saver17add_kv_from_modelEv, symObjAddr: 0x864, symBinAddr: 0x61B7C, symSize: 0x1ADC }
  - { offset: 0x361EC2, size: 0x8, addend: 0x0, symName: __ZN17llama_model_saver6add_kvINSt3__112basic_stringIcNS1_11char_traitsIcEENS1_9allocatorIcEEEEEEv6llm_kvRKT_b, symObjAddr: 0x2340, symBinAddr: 0x63658, symSize: 0x148 }
  - { offset: 0x3622F8, size: 0x8, addend: 0x0, symName: __ZN17llama_model_saver6add_kvINSt3__15arrayIjLm512EEEEEv6llm_kvRKT_b, symObjAddr: 0x2488, symBinAddr: 0x637A0, symSize: 0x13C }
  - { offset: 0x3626D8, size: 0x8, addend: 0x0, symName: __ZNSt3__128__exception_guard_exceptionsINS_6vectorINS_12basic_stringIcNS_11char_traitsIcEENS_9allocatorIcEEEENS5_IS7_EEE16__destroy_vectorEED1B8ne200100Ev, symObjAddr: 0x29D8, symBinAddr: 0x63BF8, symSize: 0x80 }
  - { offset: 0x362992, size: 0x8, addend: 0x0, symName: __ZN17llama_model_saver22add_tensors_from_modelEv, symObjAddr: 0x2634, symBinAddr: 0x638DC, symSize: 0x2EC }
  - { offset: 0x363463, size: 0x8, addend: 0x0, symName: __ZN17llama_model_saver4saveERKNSt3__112basic_stringIcNS0_11char_traitsIcEENS0_9allocatorIcEEEE, symObjAddr: 0x2920, symBinAddr: 0x63BC8, symSize: 0x1C }
  - { offset: 0x3654A6, size: 0x8, addend: 0x0, symName: __ZL24LLAMA_ROPE_SCALING_TYPES, symObjAddr: 0x46F358, symBinAddr: 0x2E9380, symSize: 0x0 }
  - { offset: 0x3B6787, size: 0x8, addend: 0x0, symName: __ZNSt3__111make_uniqueB8ne200100I14llm_build_phi3ILb1EEJRK11llama_modelRK16llm_graph_paramsELi0EEENS_10unique_ptrIT_NS_14default_deleteISA_EEEEDpOT0_, symObjAddr: 0x28730, symBinAddr: 0x8C328, symSize: 0x5C }
  - { offset: 0x3B6872, size: 0x8, addend: 0x0, symName: __ZNSt3__111make_uniqueB8ne200100I15llm_build_rwkv6JRK11llama_modelRK16llm_graph_paramsELi0EEENS_10unique_ptrIT_NS_14default_deleteIS9_EEEEDpOT0_, symObjAddr: 0x294D8, symBinAddr: 0x8D0D0, symSize: 0x5C }
  - { offset: 0x3B695D, size: 0x8, addend: 0x0, symName: __ZNSt3__111make_uniqueB8ne200100I19llm_build_chameleonJRK11llama_modelRK16llm_graph_paramsELi0EEENS_10unique_ptrIT_NS_14default_deleteIS9_EEEEDpOT0_, symObjAddr: 0x296A4, symBinAddr: 0x8D29C, symSize: 0x5C }
  - { offset: 0x3B6A48, size: 0x8, addend: 0x0, symName: __ZNSt3__111make_uniqueB8ne200100I15llm_build_dots1JRK11llama_modelRK16llm_graph_paramsELi0EEENS_10unique_ptrIT_NS_14default_deleteIS9_EEEEDpOT0_, symObjAddr: 0x29870, symBinAddr: 0x8D468, symSize: 0x5C }
  - { offset: 0x3B6B33, size: 0x8, addend: 0x0, symName: __ZNSt3__111make_uniqueB8ne200100I23llm_build_hunyuan_denseJRK11llama_modelRK16llm_graph_paramsELi0EEENS_10unique_ptrIT_NS_14default_deleteIS9_EEEEDpOT0_, symObjAddr: 0x29A3C, symBinAddr: 0x8D634, symSize: 0x5C }
  - { offset: 0x3B6C1E, size: 0x8, addend: 0x0, symName: __ZNSt3__111make_uniqueB8ne200100I16llm_build_arwkv7JRK11llama_modelRK16llm_graph_paramsELi0EEENS_10unique_ptrIT_NS_14default_deleteIS9_EEEEDpOT0_, symObjAddr: 0x295EC, symBinAddr: 0x8D1E4, symSize: 0x5C }
  - { offset: 0x3B6D09, size: 0x8, addend: 0x0, symName: __ZNSt3__111make_uniqueB8ne200100I20llm_build_rwkv6qwen2JRK11llama_modelRK16llm_graph_paramsELi0EEENS_10unique_ptrIT_NS_14default_deleteIS9_EEEEDpOT0_, symObjAddr: 0x29534, symBinAddr: 0x8D12C, symSize: 0x5C }
  - { offset: 0x3B6DF4, size: 0x8, addend: 0x0, symName: __ZNSt3__111make_uniqueB8ne200100I14llm_build_olmoJRK11llama_modelRK16llm_graph_paramsELi0EEENS_10unique_ptrIT_NS_14default_deleteIS9_EEEEDpOT0_, symObjAddr: 0x28E04, symBinAddr: 0x8C9FC, symSize: 0x5C }
  - { offset: 0x3B6EDF, size: 0x8, addend: 0x0, symName: __ZNSt3__111make_uniqueB8ne200100I18llm_build_glm4_moeJRK11llama_modelRK16llm_graph_paramsELi0EEENS_10unique_ptrIT_NS_14default_deleteIS9_EEEEDpOT0_, symObjAddr: 0x2919C, symBinAddr: 0x8CD94, symSize: 0x5C }
  - { offset: 0x3B6FCA, size: 0x8, addend: 0x0, symName: __ZNSt3__111make_uniqueB8ne200100I16llm_build_exaoneJRK11llama_modelRK16llm_graph_paramsELi0EEENS_10unique_ptrIT_NS_14default_deleteIS9_EEEEDpOT0_, symObjAddr: 0x293C4, symBinAddr: 0x8CFBC, symSize: 0x5C }
  - { offset: 0x3B70B5, size: 0x8, addend: 0x0, symName: __ZNSt3__111make_uniqueB8ne200100I22llm_build_gemma3n_iswaJRK11llama_modelRK16llm_graph_paramsELi0EEENS_10unique_ptrIT_NS_14default_deleteIS9_EEEEDpOT0_, symObjAddr: 0x28B80, symBinAddr: 0x8C778, symSize: 0x5C }
  - { offset: 0x3B71A0, size: 0x8, addend: 0x0, symName: __ZNSt3__111make_uniqueB8ne200100I25llm_build_openai_moe_iswaJRK11llama_modelRK16llm_graph_paramsELi0EEENS_10unique_ptrIT_NS_14default_deleteIS9_EEEEDpOT0_, symObjAddr: 0x29AF4, symBinAddr: 0x8D6EC, symSize: 0x5C }
  - { offset: 0x3B728B, size: 0x8, addend: 0x0, symName: __ZNSt3__111make_uniqueB8ne200100I18llm_build_nemotronJRK11llama_modelRK16llm_graph_paramsELi0EEENS_10unique_ptrIT_NS_14default_deleteIS9_EEEEDpOT0_, symObjAddr: 0x29368, symBinAddr: 0x8CF60, symSize: 0x5C }
  - { offset: 0x3B7376, size: 0x8, addend: 0x0, symName: __ZNSt3__111make_uniqueB8ne200100I17llm_build_smollm3JRK11llama_modelRK16llm_graph_paramsELi0EEENS_10unique_ptrIT_NS_14default_deleteIS9_EEEEDpOT0_, symObjAddr: 0x29A98, symBinAddr: 0x8D690, symSize: 0x5C }
  - { offset: 0x3B7461, size: 0x8, addend: 0x0, symName: __ZNSt3__111make_uniqueB8ne200100I16llm_build_xverseJRK11llama_modelRK16llm_graph_paramsELi0EEENS_10unique_ptrIT_NS_14default_deleteIS9_EEEEDpOT0_, symObjAddr: 0x28C94, symBinAddr: 0x8C88C, symSize: 0x5C }
  - { offset: 0x3B754C, size: 0x8, addend: 0x0, symName: __ZNSt3__111make_uniqueB8ne200100I21llm_build_gemma3_iswaJRK11llama_modelRK16llm_graph_paramsELi0EEENS_10unique_ptrIT_NS_14default_deleteIS9_EEEEDpOT0_, symObjAddr: 0x28B24, symBinAddr: 0x8C71C, symSize: 0x5C }
  - { offset: 0x3B7637, size: 0x8, addend: 0x0, symName: __ZNSt3__111make_uniqueB8ne200100I16llm_build_t5_decJRK11llama_modelRK16llm_graph_paramsELi0EEENS_10unique_ptrIT_NS_14default_deleteIS9_EEEEDpOT0_, symObjAddr: 0x292B0, symBinAddr: 0x8CEA8, symSize: 0x5C }
  - { offset: 0x3B7722, size: 0x8, addend: 0x0, symName: __ZNSt3__111make_uniqueB8ne200100I17llm_build_exaone4ILb1EEJRK11llama_modelRK16llm_graph_paramsELi0EEENS_10unique_ptrIT_NS_14default_deleteISA_EEEEDpOT0_, symObjAddr: 0x29420, symBinAddr: 0x8D018, symSize: 0x5C }
  - { offset: 0x3B780D, size: 0x8, addend: 0x0, symName: __ZNSt3__111make_uniqueB8ne200100I14llm_build_jaisJRK11llama_modelRK16llm_graph_paramsELi0EEENS_10unique_ptrIT_NS_14default_deleteIS9_EEEEDpOT0_, symObjAddr: 0x2930C, symBinAddr: 0x8CF04, symSize: 0x5C }
  - { offset: 0x3B78F8, size: 0x8, addend: 0x0, symName: __ZNSt3__111make_uniqueB8ne200100I15llm_build_arceeJRK11llama_modelRK16llm_graph_paramsELi0EEENS_10unique_ptrIT_NS_14default_deleteIS9_EEEEDpOT0_, symObjAddr: 0x298CC, symBinAddr: 0x8D4C4, symSize: 0x5C }
  - { offset: 0x3B79E3, size: 0x8, addend: 0x0, symName: __ZNSt3__111make_uniqueB8ne200100I18llm_build_qwen3moeJRK11llama_modelRK16llm_graph_paramsELi0EEENS_10unique_ptrIT_NS_14default_deleteIS9_EEEEDpOT0_, symObjAddr: 0x28678, symBinAddr: 0x8C270, symSize: 0x5C }
  - { offset: 0x3B7ACE, size: 0x8, addend: 0x0, symName: __ZNSt3__111make_uniqueB8ne200100I14llm_build_glm4JRK11llama_modelRK16llm_graph_paramsELi0EEENS_10unique_ptrIT_NS_14default_deleteIS9_EEEEDpOT0_, symObjAddr: 0x29140, symBinAddr: 0x8CD38, symSize: 0x5C }
  - { offset: 0x3B7BB9, size: 0x8, addend: 0x0, symName: __ZNSt3__111make_uniqueB8ne200100I16llm_build_bitnetJRK11llama_modelRK16llm_graph_paramsELi0EEENS_10unique_ptrIT_NS_14default_deleteIS9_EEEEDpOT0_, symObjAddr: 0x291F8, symBinAddr: 0x8CDF0, symSize: 0x5C }
  - { offset: 0x3B7CA4, size: 0x8, addend: 0x0, symName: __ZNSt3__111make_uniqueB8ne200100I18llm_build_minicpm3JRK11llama_modelRK16llm_graph_paramsELi0EEENS_10unique_ptrIT_NS_14default_deleteIS9_EEEEDpOT0_, symObjAddr: 0x28A10, symBinAddr: 0x8C608, symSize: 0x5C }
  - { offset: 0x3B7D8F, size: 0x8, addend: 0x0, symName: __ZNSt3__111make_uniqueB8ne200100I15llm_build_gemmaJRK11llama_modelRK16llm_graph_paramsELi0EEENS_10unique_ptrIT_NS_14default_deleteIS9_EEEEDpOT0_, symObjAddr: 0x28A6C, symBinAddr: 0x8C664, symSize: 0x5C }
  - { offset: 0x3B7E7A, size: 0x8, addend: 0x0, symName: __ZNSt3__111make_uniqueB8ne200100I22llm_build_smallthinkerILb1EEJRK11llama_modelRK16llm_graph_paramsELi0EEENS_10unique_ptrIT_NS_14default_deleteISA_EEEEDpOT0_, symObjAddr: 0x29C08, symBinAddr: 0x8D800, symSize: 0x5C }
  - { offset: 0x3B7F65, size: 0x8, addend: 0x0, symName: __ZNSt3__111make_uniqueB8ne200100I15llm_build_lladaJRK11llama_modelRK16llm_graph_paramsELi0EEENS_10unique_ptrIT_NS_14default_deleteIS9_EEEEDpOT0_, symObjAddr: 0x28508, symBinAddr: 0x8C100, symSize: 0x5C }
  - { offset: 0x3B8050, size: 0x8, addend: 0x0, symName: __ZNSt3__111make_uniqueB8ne200100I18llm_build_qwen2moeJRK11llama_modelRK16llm_graph_paramsELi0EEENS_10unique_ptrIT_NS_14default_deleteIS9_EEEEDpOT0_, symObjAddr: 0x285C0, symBinAddr: 0x8C1B8, symSize: 0x5C }
  - { offset: 0x3B813B, size: 0x8, addend: 0x0, symName: __ZNSt3__111make_uniqueB8ne200100I18llm_build_deepseekJRK11llama_modelRK16llm_graph_paramsELi0EEENS_10unique_ptrIT_NS_14default_deleteIS9_EEEEDpOT0_, symObjAddr: 0x2902C, symBinAddr: 0x8CC24, symSize: 0x5C }
  - { offset: 0x3B8226, size: 0x8, addend: 0x0, symName: __ZNSt3__111make_uniqueB8ne200100I21llm_build_gemma2_iswaJRK11llama_modelRK16llm_graph_paramsELi0EEENS_10unique_ptrIT_NS_14default_deleteIS9_EEEEDpOT0_, symObjAddr: 0x28AC8, symBinAddr: 0x8C6C0, symSize: 0x5C }
  - { offset: 0x3B8311, size: 0x8, addend: 0x0, symName: __ZNSt3__111make_uniqueB8ne200100I15llm_build_qwen2JRK11llama_modelRK16llm_graph_paramsELi0EEENS_10unique_ptrIT_NS_14default_deleteIS9_EEEEDpOT0_, symObjAddr: 0x28450, symBinAddr: 0x8C048, symSize: 0x5C }
  - { offset: 0x3B83FC, size: 0x8, addend: 0x0, symName: __ZNSt3__111make_uniqueB8ne200100I14llm_build_gpt2JRK11llama_modelRK16llm_graph_paramsELi0EEENS_10unique_ptrIT_NS_14default_deleteIS9_EEEEDpOT0_, symObjAddr: 0x288A0, symBinAddr: 0x8C498, symSize: 0x5C }
  - { offset: 0x3B84E7, size: 0x8, addend: 0x0, symName: __ZNSt3__111make_uniqueB8ne200100I19llm_build_deepseek2JRK11llama_modelRK16llm_graph_paramsELi0EEENS_10unique_ptrIT_NS_14default_deleteIS9_EEEEDpOT0_, symObjAddr: 0x29088, symBinAddr: 0x8CC80, symSize: 0x5C }
  - { offset: 0x3B85D2, size: 0x8, addend: 0x0, symName: __ZNSt3__111make_uniqueB8ne200100I18llm_build_stablelmJRK11llama_modelRK16llm_graph_paramsELi0EEENS_10unique_ptrIT_NS_14default_deleteIS9_EEEEDpOT0_, symObjAddr: 0x28398, symBinAddr: 0x8BF90, symSize: 0x5C }
  - { offset: 0x3B86BD, size: 0x8, addend: 0x0, symName: __ZNSt3__111make_uniqueB8ne200100I17llm_build_qwen2vlJRK11llama_modelRK16llm_graph_paramsELi0EEENS_10unique_ptrIT_NS_14default_deleteIS9_EEEEDpOT0_, symObjAddr: 0x28564, symBinAddr: 0x8C15C, symSize: 0x5C }
  - { offset: 0x3B87A8, size: 0x8, addend: 0x0, symName: __ZNSt3__111make_uniqueB8ne200100I19llm_build_command_rJRK11llama_modelRK16llm_graph_paramsELi0EEENS_10unique_ptrIT_NS_14default_deleteIS9_EEEEDpOT0_, symObjAddr: 0x28CF0, symBinAddr: 0x8C8E8, symSize: 0x5C }
  - { offset: 0x3B8893, size: 0x8, addend: 0x0, symName: __ZNSt3__111make_uniqueB8ne200100I16llm_build_falconJRK11llama_modelRK16llm_graph_paramsELi0EEENS_10unique_ptrIT_NS_14default_deleteIS9_EEEEDpOT0_, symObjAddr: 0x28114, symBinAddr: 0x8BD0C, symSize: 0x5C }
  - { offset: 0x3B897E, size: 0x8, addend: 0x0, symName: __ZNSt3__111make_uniqueB8ne200100I15llm_build_bloomJRK11llama_modelRK16llm_graph_paramsELi0EEENS_10unique_ptrIT_NS_14default_deleteIS9_EEEEDpOT0_, symObjAddr: 0x282E0, symBinAddr: 0x8BED8, symSize: 0x5C }
  - { offset: 0x3B8A69, size: 0x8, addend: 0x0, symName: __ZNSt3__111make_uniqueB8ne200100I18llm_build_neo_bertJRK11llama_modelRK16llm_graph_paramsELi0EEENS_10unique_ptrIT_NS_14default_deleteIS9_EEEEDpOT0_, symObjAddr: 0x28284, symBinAddr: 0x8BE7C, symSize: 0x5C }
  - { offset: 0x3B8B54, size: 0x8, addend: 0x0, symName: __ZNSt3__111make_uniqueB8ne200100I26llm_build_wavtokenizer_decJRK11llama_modelRK16llm_graph_paramsELi0EEENS_10unique_ptrIT_NS_14default_deleteIS9_EEEEDpOT0_, symObjAddr: 0x29700, symBinAddr: 0x8D2F8, symSize: 0x5C }
  - { offset: 0x3B8C3F, size: 0x8, addend: 0x0, symName: __ZNSt3__111make_uniqueB8ne200100I17llm_build_gptneoxJRK11llama_modelRK16llm_graph_paramsELi0EEENS_10unique_ptrIT_NS_14default_deleteIS9_EEEEDpOT0_, symObjAddr: 0x28F74, symBinAddr: 0x8CB6C, symSize: 0x5C }
  - { offset: 0x3B8D2A, size: 0x8, addend: 0x0, symName: __ZNSt3__111make_uniqueB8ne200100I15llm_build_orionJRK11llama_modelRK16llm_graph_paramsELi0EEENS_10unique_ptrIT_NS_14default_deleteIS9_EEEEDpOT0_, symObjAddr: 0x28958, symBinAddr: 0x8C550, symSize: 0x5C }
  - { offset: 0x3B8E15, size: 0x8, addend: 0x0, symName: __ZNSt3__111make_uniqueB8ne200100I19llm_build_internlm2JRK11llama_modelRK16llm_graph_paramsELi0EEENS_10unique_ptrIT_NS_14default_deleteIS9_EEEEDpOT0_, symObjAddr: 0x289B4, symBinAddr: 0x8C5AC, symSize: 0x5C }
  - { offset: 0x3B8F00, size: 0x8, addend: 0x0, symName: __ZNSt3__111make_uniqueB8ne200100I18llm_build_baichuanJRK11llama_modelRK16llm_graph_paramsELi0EEENS_10unique_ptrIT_NS_14default_deleteIS9_EEEEDpOT0_, symObjAddr: 0x280B8, symBinAddr: 0x8BCB0, symSize: 0x5C }
  - { offset: 0x3B8FEB, size: 0x8, addend: 0x0, symName: __ZNSt3__111make_uniqueB8ne200100I15llm_build_jambaJRK11llama_modelRK16llm_graph_paramsELi0EEENS_10unique_ptrIT_NS_14default_deleteIS9_EEEEDpOT0_, symObjAddr: 0x28C38, symBinAddr: 0x8C830, symSize: 0x5C }
  - { offset: 0x3B90D6, size: 0x8, addend: 0x0, symName: __ZNSt3__111make_uniqueB8ne200100I20llm_build_llama_iswaJRK11llama_modelRK16llm_graph_paramsELi0EEENS_10unique_ptrIT_NS_14default_deleteIS9_EEEEDpOT0_, symObjAddr: 0x28000, symBinAddr: 0x8BBF8, symSize: 0x5C }
  - { offset: 0x3B91C1, size: 0x8, addend: 0x0, symName: __ZNSt3__111make_uniqueB8ne200100I15llm_build_llamaJRK11llama_modelRK16llm_graph_paramsELi0EEENS_10unique_ptrIT_NS_14default_deleteIS9_EEEEDpOT0_, symObjAddr: 0x27FA4, symBinAddr: 0x8BB9C, symSize: 0x5C }
  - { offset: 0x3B92AC, size: 0x8, addend: 0x0, symName: __ZNSt3__111make_uniqueB8ne200100I16llm_build_plamo2JRK11llama_modelRK16llm_graph_paramsELi0EEENS_10unique_ptrIT_NS_14default_deleteIS9_EEEEDpOT0_, symObjAddr: 0x28844, symBinAddr: 0x8C43C, symSize: 0x5C }
  - { offset: 0x3B9397, size: 0x8, addend: 0x0, symName: __ZNSt3__111make_uniqueB8ne200100I17llm_build_openelmJRK11llama_modelRK16llm_graph_paramsELi0EEENS_10unique_ptrIT_NS_14default_deleteIS9_EEEEDpOT0_, symObjAddr: 0x28F18, symBinAddr: 0x8CB10, symSize: 0x5C }
  - { offset: 0x3B9482, size: 0x8, addend: 0x0, symName: __ZNSt3__111make_uniqueB8ne200100I14llm_build_deciJRK11llama_modelRK16llm_graph_paramsELi0EEENS_10unique_ptrIT_NS_14default_deleteIS9_EEEEDpOT0_, symObjAddr: 0x2805C, symBinAddr: 0x8BC54, symSize: 0x5C }
  - { offset: 0x3B956D, size: 0x8, addend: 0x0, symName: __ZNSt3__111make_uniqueB8ne200100I19llm_build_starcoderJRK11llama_modelRK16llm_graph_paramsELi0EEENS_10unique_ptrIT_NS_14default_deleteIS9_EEEEDpOT0_, symObjAddr: 0x281CC, symBinAddr: 0x8BDC4, symSize: 0x5C }
  - { offset: 0x3B9658, size: 0x8, addend: 0x0, symName: __ZNSt3__111make_uniqueB8ne200100I16llm_build_refactJRK11llama_modelRK16llm_graph_paramsELi0EEENS_10unique_ptrIT_NS_14default_deleteIS9_EEEEDpOT0_, symObjAddr: 0x28228, symBinAddr: 0x8BE20, symSize: 0x5C }
  - { offset: 0x3B9743, size: 0x8, addend: 0x0, symName: __ZNSt3__111make_uniqueB8ne200100I13llm_build_mptJRK11llama_modelRK16llm_graph_paramsELi0EEENS_10unique_ptrIT_NS_14default_deleteIS9_EEEEDpOT0_, symObjAddr: 0x2833C, symBinAddr: 0x8BF34, symSize: 0x5C }
  - { offset: 0x3B982E, size: 0x8, addend: 0x0, symName: __ZNSt3__111make_uniqueB8ne200100I19llm_build_codeshellJRK11llama_modelRK16llm_graph_paramsELi0EEENS_10unique_ptrIT_NS_14default_deleteIS9_EEEEDpOT0_, symObjAddr: 0x288FC, symBinAddr: 0x8C4F4, symSize: 0x5C }
  - { offset: 0x3B9919, size: 0x8, addend: 0x0, symName: __ZNSt3__111make_uniqueB8ne200100I14llm_build_grokJRK11llama_modelRK16llm_graph_paramsELi0EEENS_10unique_ptrIT_NS_14default_deleteIS9_EEEEDpOT0_, symObjAddr: 0x28170, symBinAddr: 0x8BD68, symSize: 0x5C }
  - { offset: 0x3B9A04, size: 0x8, addend: 0x0, symName: __ZNSt3__111make_uniqueB8ne200100I15llm_build_olmoeJRK11llama_modelRK16llm_graph_paramsELi0EEENS_10unique_ptrIT_NS_14default_deleteIS9_EEEEDpOT0_, symObjAddr: 0x28EBC, symBinAddr: 0x8CAB4, symSize: 0x5C }
  - { offset: 0x3B9AEF, size: 0x8, addend: 0x0, symName: __ZNSt3__111make_uniqueB8ne200100I13llm_build_plmJRK11llama_modelRK16llm_graph_paramsELi0EEENS_10unique_ptrIT_NS_14default_deleteIS9_EEEEDpOT0_, symObjAddr: 0x2975C, symBinAddr: 0x8D354, symSize: 0x5C }
  - { offset: 0x3B9BDA, size: 0x8, addend: 0x0, symName: __ZNSt3__111make_uniqueB8ne200100I14llm_build_qwenJRK11llama_modelRK16llm_graph_paramsELi0EEENS_10unique_ptrIT_NS_14default_deleteIS9_EEEEDpOT0_, symObjAddr: 0x283F4, symBinAddr: 0x8BFEC, symSize: 0x5C }
  - { offset: 0x3B9CC5, size: 0x8, addend: 0x0, symName: __ZNSt3__111make_uniqueB8ne200100I15llm_build_olmo2JRK11llama_modelRK16llm_graph_paramsELi0EEENS_10unique_ptrIT_NS_14default_deleteIS9_EEEEDpOT0_, symObjAddr: 0x28E60, symBinAddr: 0x8CA58, symSize: 0x5C }
  - { offset: 0x3B9DB0, size: 0x8, addend: 0x0, symName: __ZNSt3__111make_uniqueB8ne200100I14llm_build_phi2JRK11llama_modelRK16llm_graph_paramsELi0EEENS_10unique_ptrIT_NS_14default_deleteIS9_EEEEDpOT0_, symObjAddr: 0x286D4, symBinAddr: 0x8C2CC, symSize: 0x5C }
  - { offset: 0x3B9E9B, size: 0x8, addend: 0x0, symName: __ZNSt3__111make_uniqueB8ne200100I20llm_build_bailingmoeJRK11llama_modelRK16llm_graph_paramsELi0EEENS_10unique_ptrIT_NS_14default_deleteIS9_EEEEDpOT0_, symObjAddr: 0x297B8, symBinAddr: 0x8D3B0, symSize: 0x5C }
  - { offset: 0x3B9F86, size: 0x8, addend: 0x0, symName: __ZNSt3__111make_uniqueB8ne200100I15llm_build_qwen3JRK11llama_modelRK16llm_graph_paramsELi0EEENS_10unique_ptrIT_NS_14default_deleteIS9_EEEEDpOT0_, symObjAddr: 0x2861C, symBinAddr: 0x8C214, symSize: 0x5C }
  - { offset: 0x3BA071, size: 0x8, addend: 0x0, symName: __ZNSt3__111make_uniqueB8ne200100I15llm_build_plamoJRK11llama_modelRK16llm_graph_paramsELi0EEENS_10unique_ptrIT_NS_14default_deleteIS9_EEEEDpOT0_, symObjAddr: 0x287E8, symBinAddr: 0x8C3E0, symSize: 0x5C }
  - { offset: 0x3BA15C, size: 0x8, addend: 0x0, symName: __ZNSt3__111make_uniqueB8ne200100I22llm_build_ernie4_5_moeJRK11llama_modelRK16llm_graph_paramsELi0EEENS_10unique_ptrIT_NS_14default_deleteIS9_EEEEDpOT0_, symObjAddr: 0x29984, symBinAddr: 0x8D57C, symSize: 0x5C }
  - { offset: 0x3BA247, size: 0x8, addend: 0x0, symName: __ZNSt3__111make_uniqueB8ne200100I22llm_build_cohere2_iswaJRK11llama_modelRK16llm_graph_paramsELi0EEENS_10unique_ptrIT_NS_14default_deleteIS9_EEEEDpOT0_, symObjAddr: 0x28D4C, symBinAddr: 0x8C944, symSize: 0x5C }
  - { offset: 0x3BA332, size: 0x8, addend: 0x0, symName: __ZNSt3__111make_uniqueB8ne200100I18llm_build_seed_ossJRK11llama_modelRK16llm_graph_paramsELi0EEENS_10unique_ptrIT_NS_14default_deleteIS9_EEEEDpOT0_, symObjAddr: 0x29814, symBinAddr: 0x8D40C, symSize: 0x5C }
  - { offset: 0x3BA41D, size: 0x8, addend: 0x0, symName: __ZNSt3__111make_uniqueB8ne200100I15llm_build_rwkv7JRK11llama_modelRK16llm_graph_paramsELi0EEENS_10unique_ptrIT_NS_14default_deleteIS9_EEEEDpOT0_, symObjAddr: 0x29590, symBinAddr: 0x8D188, symSize: 0x5C }
  - { offset: 0x3BA508, size: 0x8, addend: 0x0, symName: __ZNSt3__111make_uniqueB8ne200100I20llm_build_starcoder2JRK11llama_modelRK16llm_graph_paramsELi0EEENS_10unique_ptrIT_NS_14default_deleteIS9_EEEEDpOT0_, symObjAddr: 0x28BDC, symBinAddr: 0x8C7D4, symSize: 0x5C }
  - { offset: 0x3BA5F3, size: 0x8, addend: 0x0, symName: __ZNSt3__111make_uniqueB8ne200100I19llm_build_falcon_h1JRK11llama_modelRK16llm_graph_paramsELi0EEENS_10unique_ptrIT_NS_14default_deleteIS9_EEEEDpOT0_, symObjAddr: 0x29B50, symBinAddr: 0x8D748, symSize: 0x5C }
  - { offset: 0x3BA6DE, size: 0x8, addend: 0x0, symName: __ZNSt3__111make_uniqueB8ne200100I16llm_build_arcticJRK11llama_modelRK16llm_graph_paramsELi0EEENS_10unique_ptrIT_NS_14default_deleteIS9_EEEEDpOT0_, symObjAddr: 0x28FD0, symBinAddr: 0x8CBC8, symSize: 0x5C }
  - { offset: 0x3BA7C9, size: 0x8, addend: 0x0, symName: __ZNSt3__111make_uniqueB8ne200100I14llm_build_dbrxJRK11llama_modelRK16llm_graph_paramsELi0EEENS_10unique_ptrIT_NS_14default_deleteIS9_EEEEDpOT0_, symObjAddr: 0x28DA8, symBinAddr: 0x8C9A0, symSize: 0x5C }
  - { offset: 0x3BA8B4, size: 0x8, addend: 0x0, symName: __ZNSt3__111make_uniqueB8ne200100I24llm_build_granite_hybridJRK11llama_modelRK16llm_graph_paramsELi0EEENS_10unique_ptrIT_NS_14default_deleteIS9_EEEEDpOT0_, symObjAddr: 0x29648, symBinAddr: 0x8D240, symSize: 0x5C }
  - { offset: 0x3BA99F, size: 0x8, addend: 0x0, symName: __ZNSt3__111make_uniqueB8ne200100I17llm_build_chatglmJRK11llama_modelRK16llm_graph_paramsELi0EEENS_10unique_ptrIT_NS_14default_deleteIS9_EEEEDpOT0_, symObjAddr: 0x290E4, symBinAddr: 0x8CCDC, symSize: 0x5C }
  - { offset: 0x3BAA8A, size: 0x8, addend: 0x0, symName: __ZNSt3__111make_uniqueB8ne200100I15llm_build_dreamJRK11llama_modelRK16llm_graph_paramsELi0EEENS_10unique_ptrIT_NS_14default_deleteIS9_EEEEDpOT0_, symObjAddr: 0x284AC, symBinAddr: 0x8C0A4, symSize: 0x5C }
  - { offset: 0x3BAB75, size: 0x8, addend: 0x0, symName: __ZNSt3__111make_uniqueB8ne200100I14llm_build_lfm2JRK11llama_modelRK16llm_graph_paramsELi0EEENS_10unique_ptrIT_NS_14default_deleteIS9_EEEEDpOT0_, symObjAddr: 0x29BAC, symBinAddr: 0x8D7A4, symSize: 0x5C }
  - { offset: 0x3BAC60, size: 0x8, addend: 0x0, symName: __ZNSt3__111make_uniqueB8ne200100I21llm_build_hunyuan_moeJRK11llama_modelRK16llm_graph_paramsELi0EEENS_10unique_ptrIT_NS_14default_deleteIS9_EEEEDpOT0_, symObjAddr: 0x299E0, symBinAddr: 0x8D5D8, symSize: 0x5C }
  - { offset: 0x3BAD4B, size: 0x8, addend: 0x0, symName: __ZNSt3__111make_uniqueB8ne200100I18llm_build_ernie4_5JRK11llama_modelRK16llm_graph_paramsELi0EEENS_10unique_ptrIT_NS_14default_deleteIS9_EEEEDpOT0_, symObjAddr: 0x29928, symBinAddr: 0x8D520, symSize: 0x5C }
  - { offset: 0x3BAE36, size: 0x8, addend: 0x0, symName: __ZNSt3__111make_uniqueB8ne200100I14llm_build_phi3ILb0EEJRK11llama_modelRK16llm_graph_paramsELi0EEENS_10unique_ptrIT_NS_14default_deleteISA_EEEEDpOT0_, symObjAddr: 0x2878C, symBinAddr: 0x8C384, symSize: 0x5C }
  - { offset: 0x3BAF21, size: 0x8, addend: 0x0, symName: __ZNSt3__111make_uniqueB8ne200100I17llm_build_exaone4ILb0EEJRK11llama_modelRK16llm_graph_paramsELi0EEENS_10unique_ptrIT_NS_14default_deleteISA_EEEEDpOT0_, symObjAddr: 0x2947C, symBinAddr: 0x8D074, symSize: 0x5C }
  - { offset: 0x3BB00C, size: 0x8, addend: 0x0, symName: __ZNSt3__111make_uniqueB8ne200100I22llm_build_smallthinkerILb0EEJRK11llama_modelRK16llm_graph_paramsELi0EEENS_10unique_ptrIT_NS_14default_deleteISA_EEEEDpOT0_, symObjAddr: 0x29C64, symBinAddr: 0x8D85C, symSize: 0x5C }
  - { offset: 0x3BB0F7, size: 0x8, addend: 0x0, symName: __ZNSt3__111make_uniqueB8ne200100I16llm_build_t5_encJRK11llama_modelRK16llm_graph_paramsELi0EEENS_10unique_ptrIT_NS_14default_deleteIS9_EEEEDpOT0_, symObjAddr: 0x29254, symBinAddr: 0x8CE4C, symSize: 0x5C }
  - { offset: 0x3CAAA8, size: 0x8, addend: 0x0, symName: __ZNK11llama_model10print_infoEv, symObjAddr: 0x25A9C, symBinAddr: 0x89694, symSize: 0x1040 }
  - { offset: 0x3CDBB2, size: 0x8, addend: 0x0, symName: __ZNK11llama_model13create_memoryERK19llama_memory_paramsR13llama_cparams, symObjAddr: 0x27278, symBinAddr: 0x8AE70, symSize: 0x5D8 }
  - { offset: 0x3D2E39, size: 0x8, addend: 0x0, symName: __ZN16llm_build_plamo224build_plamo2_mamba_layerEP18llm_graph_input_rsP11ggml_tensorRK11llama_modelRK12llama_ubatchi, symObjAddr: 0x43090, symBinAddr: 0x9E75C, symSize: 0xC00 }
  - { offset: 0x3D459F, size: 0x8, addend: 0x0, symName: __ZNK23llm_graph_context_mamba18build_mamba2_layerEP18llm_graph_input_rsP11ggml_tensorRK11llama_modelRK12llama_ubatchi, symObjAddr: 0x492C8, symBinAddr: 0xA48A0, symSize: 0x844 }
  - { offset: 0x3D5396, size: 0x8, addend: 0x0, symName: __ZN23llm_graph_context_mamba17build_mamba_layerEP18llm_graph_input_rsP11ggml_tensorRK11llama_modelRK12llama_ubatchi, symObjAddr: 0x49B0C, symBinAddr: 0xA50E4, symSize: 0x7C4 }
  - { offset: 0x3D7D88, size: 0x8, addend: 0x0, symName: __Z13llm_type_name8llm_type, symObjAddr: 0x0, symBinAddr: 0x63C78, symSize: 0x28 }
  - { offset: 0x3D7E28, size: 0x8, addend: 0x0, symName: __ZNSt3__13mapI23llama_rope_scaling_typePKcNS_4lessIS1_EENS_9allocatorINS_4pairIKS1_S3_EEEEED1B8ne200100Ev, symObjAddr: 0x28, symBinAddr: 0x63CA0, symSize: 0x28 }
  - { offset: 0x3D7EDC, size: 0x8, addend: 0x0, symName: __ZNSt3__16__treeINS_12__value_typeI23llama_rope_scaling_typePKcEENS_19__map_value_compareIS2_S5_NS_4lessIS2_EELb1EEENS_9allocatorIS5_EEE7destroyEPNS_11__tree_nodeIS5_PvEE, symObjAddr: 0x36604, symBinAddr: 0x9226C, symSize: 0x44 }
  - { offset: 0x3D82DE, size: 0x8, addend: 0x0, symName: __Z28llama_rope_scaling_type_name23llama_rope_scaling_type, symObjAddr: 0x50, symBinAddr: 0x63CC8, symSize: 0xE0 }
  - { offset: 0x3D8607, size: 0x8, addend: 0x0, symName: __ZN11llama_modelC2ERK18llama_model_params, symObjAddr: 0x130, symBinAddr: 0x63DA8, symSize: 0x248 }
  - { offset: 0x3D8B0C, size: 0x8, addend: 0x0, symName: __ZN11llama_modelC2ERK18llama_model_params, symObjAddr: 0x130, symBinAddr: 0x63DA8, symSize: 0x248 }
  - { offset: 0x3D91AF, size: 0x8, addend: 0x0, symName: __ZNSt3__16vectorINS_4pairINS_12basic_stringIcNS_11char_traitsIcEENS_9allocatorIcEEEEP11ggml_tensorEENS5_ISA_EEED1B8ne200100Ev, symObjAddr: 0x378, symBinAddr: 0x63FF0, symSize: 0x70 }
  - { offset: 0x3D943B, size: 0x8, addend: 0x0, symName: __ZNSt3__113unordered_mapINS_12basic_stringIcNS_11char_traitsIcEENS_9allocatorIcEEEES6_NS_4hashIS6_EENS_8equal_toIS6_EENS4_INS_4pairIKS6_S6_EEEEED1B8ne200100Ev, symObjAddr: 0x3E8, symBinAddr: 0x64060, symSize: 0x84 }
  - { offset: 0x3D9FB8, size: 0x8, addend: 0x0, symName: __ZN11llama_modelC1ERK18llama_model_params, symObjAddr: 0x4DC, symBinAddr: 0x640E4, symSize: 0x4 }
  - { offset: 0x3D9FF5, size: 0x8, addend: 0x0, symName: __ZN11llama_modelC1ERK18llama_model_params, symObjAddr: 0x4DC, symBinAddr: 0x640E4, symSize: 0x4 }
  - { offset: 0x3DA0FF, size: 0x8, addend: 0x0, symName: __ZN11llama_modelD2Ev, symObjAddr: 0x4E0, symBinAddr: 0x640E8, symSize: 0x178 }
  - { offset: 0x3DAEED, size: 0x8, addend: 0x0, symName: __ZN11llama_model4implD2Ev, symObjAddr: 0x36648, symBinAddr: 0x922B0, symSize: 0x1E0 }
  - { offset: 0x3DBCD6, size: 0x8, addend: 0x0, symName: __ZN11llama_modelD1Ev, symObjAddr: 0x658, symBinAddr: 0x64260, symSize: 0x4 }
  - { offset: 0x3DBCF9, size: 0x8, addend: 0x0, symName: __ZN11llama_modelD1Ev, symObjAddr: 0x658, symBinAddr: 0x64260, symSize: 0x4 }
  - { offset: 0x3DBD27, size: 0x8, addend: 0x0, symName: __ZN11llama_model10load_statsER18llama_model_loader, symObjAddr: 0x65C, symBinAddr: 0x64264, symSize: 0x10 }
  - { offset: 0x3DBD5F, size: 0x8, addend: 0x0, symName: __ZN11llama_model10load_statsER18llama_model_loader, symObjAddr: 0x65C, symBinAddr: 0x64264, symSize: 0x10 }
  - { offset: 0x3DBDCF, size: 0x8, addend: 0x0, symName: __ZN11llama_model9load_archER18llama_model_loader, symObjAddr: 0x66C, symBinAddr: 0x64274, symSize: 0x174 }
  - { offset: 0x3DC49E, size: 0x8, addend: 0x0, symName: __ZN11llama_model12load_hparamsER18llama_model_loader, symObjAddr: 0x7E0, symBinAddr: 0x643E8, symSize: 0x3558 }
  - { offset: 0x3DE7A6, size: 0x8, addend: 0x0, symName: __ZNSt3__112__hash_tableINS_17__hash_value_typeINS_12basic_stringIcNS_11char_traitsIcEENS_9allocatorIcEEEES7_EENS_22__unordered_map_hasherIS7_S8_NS_4hashIS7_EENS_8equal_toIS7_EELb1EEENS_21__unordered_map_equalIS7_S8_SD_SB_Lb1EEENS5_IS8_EEE21__emplace_unique_implIJRPKcRKS7_EEENS_4pairINS_15__hash_iteratorIPNS_11__hash_nodeIS8_PvEEEEbEEDpOT_, symObjAddr: 0x368AC, symBinAddr: 0x924E0, symSize: 0x134 }
  - { offset: 0x3DF014, size: 0x8, addend: 0x0, symName: _llama_model_rope_type, symObjAddr: 0x3E88, symBinAddr: 0x67A90, symSize: 0x60 }
  - { offset: 0x3DF042, size: 0x8, addend: 0x0, symName: __ZN11llama_model10load_vocabER18llama_model_loader, symObjAddr: 0x3EE8, symBinAddr: 0x67AF0, symSize: 0x50 }
  - { offset: 0x3DF085, size: 0x8, addend: 0x0, symName: __ZNK11llama_model9arch_nameEv, symObjAddr: 0x3D38, symBinAddr: 0x67940, symSize: 0xA8 }
  - { offset: 0x3DF2EE, size: 0x8, addend: 0x0, symName: __ZNK11llama_model9type_nameEv, symObjAddr: 0x3DE0, symBinAddr: 0x679E8, symSize: 0xA8 }
  - { offset: 0x3DF2F9, size: 0x8, addend: 0x0, symName: __ZNK11llama_model9type_nameEv, symObjAddr: 0x3DE0, symBinAddr: 0x679E8, symSize: 0xA8 }
  - { offset: 0x3DF562, size: 0x8, addend: 0x0, symName: _llama_model_rope_type, symObjAddr: 0x3E88, symBinAddr: 0x67A90, symSize: 0x60 }
  - { offset: 0x3DF56D, size: 0x8, addend: 0x0, symName: __ZN11llama_model10load_vocabER18llama_model_loader, symObjAddr: 0x3EE8, symBinAddr: 0x67AF0, symSize: 0x50 }
  - { offset: 0x3E044E, size: 0x8, addend: 0x0, symName: __ZN11llama_model12load_tensorsER18llama_model_loader, symObjAddr: 0x3F38, symBinAddr: 0x67B40, symSize: 0x20C10 }
  - { offset: 0x40F1F9, size: 0x8, addend: 0x0, symName: __ZNSt3__16vectorINS_4pairIP19ggml_backend_deviceP24ggml_backend_buffer_typeEENS_9allocatorIS6_EEE18__insert_with_sizeB8ne200100INS_11__wrap_iterIPS6_EESD_EESD_NSB_IPKS6_EET_T0_l, symObjAddr: 0x37590, symBinAddr: 0x92CF0, symSize: 0x540 }
  - { offset: 0x40FD77, size: 0x8, addend: 0x0, symName: __ZNSt3__16vectorIN11llama_model4impl9layer_devENS_9allocatorIS3_EEE8__appendEm, symObjAddr: 0x37AE4, symBinAddr: 0x93230, symSize: 0x120 }
  - { offset: 0x410153, size: 0x8, addend: 0x0, symName: __ZNSt3__16vectorIN11llama_model4impl9layer_devENS_9allocatorIS3_EEE20__throw_length_errorB8ne200100Ev, symObjAddr: 0x37C04, symBinAddr: 0x93350, symSize: 0x14 }
  - { offset: 0x41016D, size: 0x8, addend: 0x0, symName: '__ZZN11llama_model12load_tensorsER18llama_model_loaderENK3$_1clEi', symObjAddr: 0x24B5C, symBinAddr: 0x88764, symSize: 0x1B8 }
  - { offset: 0x4104C3, size: 0x8, addend: 0x0, symName: '__ZZN11llama_model12load_tensorsER18llama_model_loaderENK3$_3clERK11LLM_TN_IMPLRKSt16initializer_listIxEi', symObjAddr: 0x24D14, symBinAddr: 0x8891C, symSize: 0xB4C }
  - { offset: 0x4104DB, size: 0x8, addend: 0x0, symName: __ZNSt3__16vectorI11llama_layerNS_9allocatorIS1_EEE8__appendEm, symObjAddr: 0x37C70, symBinAddr: 0x93378, symSize: 0x1A4 }
  - { offset: 0x4108EE, size: 0x8, addend: 0x0, symName: __ZNSt3__16vectorI11llama_layerNS_9allocatorIS1_EEE20__throw_length_errorB8ne200100Ev, symObjAddr: 0x37E14, symBinAddr: 0x9351C, symSize: 0x14 }
  - { offset: 0x410926, size: 0x8, addend: 0x0, symName: '__ZZN11llama_model12load_tensorsER18llama_model_loaderENK3$_3clERK11LLM_TN_IMPLRKSt16initializer_listIxEi', symObjAddr: 0x24D14, symBinAddr: 0x8891C, symSize: 0xB4C }
  - { offset: 0x412D1E, size: 0x8, addend: 0x0, symName: __ZNSt3__16vectorINS_4pairIP12ggml_contextNS_13unordered_mapIjP19ggml_backend_bufferNS_4hashIjEENS_8equal_toIjEENS_9allocatorINS1_IKjS6_EEEEEEEENSB_ISG_EEE7reserveEm, symObjAddr: 0x25870, symBinAddr: 0x89468, symSize: 0x104 }
  - { offset: 0x413328, size: 0x8, addend: 0x0, symName: __ZNSt3__112__hash_tableINS_17__hash_value_typeIjP19ggml_backend_bufferEENS_22__unordered_map_hasherIjS4_NS_4hashIjEENS_8equal_toIjEELb1EEENS_21__unordered_map_equalIjS4_S9_S7_Lb1EEENS_9allocatorIS4_EEE11__do_rehashILb1EEEvm, symObjAddr: 0x38068, symBinAddr: 0x93748, symSize: 0x180 }
  - { offset: 0x4136B5, size: 0x8, addend: 0x0, symName: __ZNSt3__112__hash_tableINS_17__hash_value_typeIjP19ggml_backend_bufferEENS_22__unordered_map_hasherIjS4_NS_4hashIjEENS_8equal_toIjEELb1EEENS_21__unordered_map_equalIjS4_S9_S7_Lb1EEENS_9allocatorIS4_EEE25__emplace_unique_key_argsIjJRjRS3_EEENS_4pairINS_15__hash_iteratorIPNS_11__hash_nodeIS4_PvEEEEbEERKT_DpOT0_, symObjAddr: 0x381E8, symBinAddr: 0x938C8, symSize: 0x304 }
  - { offset: 0x4136F3, size: 0x8, addend: 0x0, symName: __ZNSt3__112__hash_tableINS_17__hash_value_typeIjP19ggml_backend_bufferEENS_22__unordered_map_hasherIjS4_NS_4hashIjEENS_8equal_toIjEELb1EEENS_21__unordered_map_equalIjS4_S9_S7_Lb1EEENS_9allocatorIS4_EEE25__emplace_unique_key_argsIjJRjRS3_EEENS_4pairINS_15__hash_iteratorIPNS_11__hash_nodeIS4_PvEEEEbEERKT_DpOT0_, symObjAddr: 0x381E8, symBinAddr: 0x938C8, symSize: 0x304 }
  - { offset: 0x413EC6, size: 0x8, addend: 0x0, symName: __ZNSt3__113unordered_mapIjP19ggml_backend_bufferNS_4hashIjEENS_8equal_toIjEENS_9allocatorINS_4pairIKjS2_EEEEEC2ERKSC_, symObjAddr: 0x3866C, symBinAddr: 0x93D38, symSize: 0x140 }
  - { offset: 0x41425E, size: 0x8, addend: 0x0, symName: __ZNSt3__16vectorINS_4pairIP12ggml_contextNS_13unordered_mapIjP19ggml_backend_bufferNS_4hashIjEENS_8equal_toIjEENS_9allocatorINS1_IKjS6_EEEEEEEENSB_ISG_EEE24__emplace_back_slow_pathIJRS3_RSF_EEEPSG_DpOT_, symObjAddr: 0x38500, symBinAddr: 0x93BCC, symSize: 0x16C }
  - { offset: 0x414A71, size: 0x8, addend: 0x0, symName: __ZNSt3__16vectorINS_4pairINS_12basic_stringIcNS_11char_traitsIcEENS_9allocatorIcEEEEP11ggml_tensorEENS5_ISA_EEE20__throw_length_errorB8ne200100Ev, symObjAddr: 0x38B14, symBinAddr: 0x941E0, symSize: 0x14 }
  - { offset: 0x414A89, size: 0x8, addend: 0x0, symName: '__ZNSt3__110__function6__funcIZNK11llama_model10print_infoEvE3$_0NS_9allocatorIS3_EEFjjEED1Ev', symObjAddr: 0x38B28, symBinAddr: 0x941F4, symSize: 0x4 }
  - { offset: 0x414AB0, size: 0x8, addend: 0x0, symName: __ZNSt3__112__hash_tableINS_17__hash_value_typeIjP19ggml_backend_bufferEENS_22__unordered_map_hasherIjS4_NS_4hashIjEENS_8equal_toIjEELb1EEENS_21__unordered_map_equalIjS4_S9_S7_Lb1EEENS_9allocatorIS4_EEED1Ev, symObjAddr: 0x38020, symBinAddr: 0x93700, symSize: 0x48 }
  - { offset: 0x414ABB, size: 0x8, addend: 0x0, symName: __ZNSt3__16vectorINS_4pairIP19ggml_backend_deviceP24ggml_backend_buffer_typeEENS_9allocatorIS6_EEE20__throw_length_errorB8ne200100Ev, symObjAddr: 0x2A300, symBinAddr: 0x8DE70, symSize: 0x14 }
  - { offset: 0x414AE8, size: 0x8, addend: 0x0, symName: __ZNSt3__16vectorINS_4pairIP12ggml_contextNS_13unordered_mapIjP19ggml_backend_bufferNS_4hashIjEENS_8equal_toIjEENS_9allocatorINS1_IKjS6_EEEEEEEENSB_ISG_EEE20__throw_length_errorB8ne200100Ev, symObjAddr: 0x37E3C, symBinAddr: 0x93530, symSize: 0x14 }
  - { offset: 0x414AFD, size: 0x8, addend: 0x0, symName: __ZNSt3__16vectorINS_4pairIP12ggml_contextNS_13unordered_mapIjP19ggml_backend_bufferNS_4hashIjEENS_8equal_toIjEENS_9allocatorINS1_IKjS6_EEEEEEEENSB_ISG_EEE24__emplace_back_slow_pathIJRS3_RSF_EEEPSG_DpOT_, symObjAddr: 0x38500, symBinAddr: 0x93BCC, symSize: 0x16C }
  - { offset: 0x414B12, size: 0x8, addend: 0x0, symName: __ZNSt3__16vectorIN11llama_model4impl9layer_devENS_9allocatorIS3_EEE8__appendEm, symObjAddr: 0x37AE4, symBinAddr: 0x93230, symSize: 0x120 }
  - { offset: 0x414B1D, size: 0x8, addend: 0x0, symName: __ZNSt3__113unordered_mapIjP19ggml_backend_bufferNS_4hashIjEENS_8equal_toIjEENS_9allocatorINS_4pairIKjS2_EEEEED1B8ne200100Ev, symObjAddr: 0x25974, symBinAddr: 0x8956C, symSize: 0x48 }
  - { offset: 0x414DAB, size: 0x8, addend: 0x0, symName: __ZNSt3__114__split_bufferINS_4pairINS_12basic_stringIcNS_11char_traitsIcEENS_9allocatorIcEEEEP11ggml_tensorEERNS5_ISA_EEED1Ev, symObjAddr: 0x38AB0, symBinAddr: 0x9417C, symSize: 0x64 }
  - { offset: 0x414FDE, size: 0x8, addend: 0x0, symName: __ZNSt3__16vectorINS_4pairIP12ggml_contextNS_13unordered_mapIjP19ggml_backend_bufferNS_4hashIjEENS_8equal_toIjEENS_9allocatorINS1_IKjS6_EEEEEEEENSB_ISG_EEED1B8ne200100Ev, symObjAddr: 0x259BC, symBinAddr: 0x895B4, symSize: 0x88 }
  - { offset: 0x415422, size: 0x8, addend: 0x0, symName: __ZNK11llama_model9n_devicesEv, symObjAddr: 0x24B48, symBinAddr: 0x88750, symSize: 0x14 }
  - { offset: 0x415446, size: 0x8, addend: 0x0, symName: __ZNK11llama_model9n_devicesEv, symObjAddr: 0x24B48, symBinAddr: 0x88750, symSize: 0x14 }
  - { offset: 0x415558, size: 0x8, addend: 0x0, symName: __ZNSt3__16vectorIP19ggml_backend_deviceNS_9allocatorIS2_EEE20__throw_out_of_rangeB8ne200100Ev, symObjAddr: 0x2A3B0, symBinAddr: 0x8DE84, symSize: 0x14 }
  - { offset: 0x415570, size: 0x8, addend: 0x0, symName: __ZL18select_weight_buftRK13llama_hparamsP11ggml_tensor7ggml_opRKNSt3__16vectorINS5_4pairIP19ggml_backend_deviceP24ggml_backend_buffer_typeEENS5_9allocatorISC_EEEE, symObjAddr: 0x2A3C4, symBinAddr: 0x8DE98, symSize: 0x6CC }
  - { offset: 0x41627A, size: 0x8, addend: 0x0, symName: __ZNSt3__111basic_regexIcNS_12regex_traitsIcEEEC2B8ne200100EPKcNS_15regex_constants18syntax_option_typeE, symObjAddr: 0x2AAEC, symBinAddr: 0x8E564, symSize: 0xC8 }
  - { offset: 0x416818, size: 0x8, addend: 0x0, symName: __ZL18select_weight_buftRK13llama_hparamsP11ggml_tensor7ggml_opRKNSt3__16vectorINS5_4pairIP19ggml_backend_deviceP24ggml_backend_buffer_typeEENS5_9allocatorISC_EEEE, symObjAddr: 0x2A3C4, symBinAddr: 0x8DE98, symSize: 0x6CC }
  - { offset: 0x4173CF, size: 0x8, addend: 0x0, symName: __ZNSt3__16vectorIN11llama_model4impl9layer_devENS_9allocatorIS3_EEE20__throw_out_of_rangeB8ne200100Ev, symObjAddr: 0x37C5C, symBinAddr: 0x93364, symSize: 0x14 }
  - { offset: 0x4173E7, size: 0x8, addend: 0x0, symName: __ZNSt3__16vectorI11llama_layerNS_9allocatorIS1_EEE8__appendEm, symObjAddr: 0x37C70, symBinAddr: 0x93378, symSize: 0x1A4 }
  - { offset: 0x4175F9, size: 0x8, addend: 0x0, symName: __ZNSt3__16vectorINS_4pairIP12ggml_contextNS_13unordered_mapIjP19ggml_backend_bufferNS_4hashIjEENS_8equal_toIjEENS_9allocatorINS1_IKjS6_EEEEEEEENSB_ISG_EEE26__swap_out_circular_bufferERNS_14__split_bufferISG_RSH_EE, symObjAddr: 0x37E50, symBinAddr: 0x93544, symSize: 0x140 }
  - { offset: 0x417C17, size: 0x8, addend: 0x0, symName: __ZNSt3__16vectorINS_4pairIP12ggml_contextNS_13unordered_mapIjP19ggml_backend_bufferNS_4hashIjEENS_8equal_toIjEENS_9allocatorINS1_IKjS6_EEEEEEEENSB_ISG_EEE20__throw_length_errorB8ne200100Ev, symObjAddr: 0x37E3C, symBinAddr: 0x93530, symSize: 0x14 }
  - { offset: 0x417C2F, size: 0x8, addend: 0x0, symName: __ZNSt3__16vectorINS_4pairIP12ggml_contextNS_13unordered_mapIjP19ggml_backend_bufferNS_4hashIjEENS_8equal_toIjEENS_9allocatorINS1_IKjS6_EEEEEEEENSB_ISG_EEE26__swap_out_circular_bufferERNS_14__split_bufferISG_RSH_EE, symObjAddr: 0x37E50, symBinAddr: 0x93544, symSize: 0x140 }
  - { offset: 0x417C3A, size: 0x8, addend: 0x0, symName: __ZNSt3__114__split_bufferINS_4pairIP12ggml_contextNS_13unordered_mapIjP19ggml_backend_bufferNS_4hashIjEENS_8equal_toIjEENS_9allocatorINS1_IKjS6_EEEEEEEERNSB_ISG_EEED1Ev, symObjAddr: 0x37F90, symBinAddr: 0x93684, symSize: 0x7C }
  - { offset: 0x41809A, size: 0x8, addend: 0x0, symName: __ZNK11llama_model4descEv, symObjAddr: 0x25A44, symBinAddr: 0x8963C, symSize: 0x2C }
  - { offset: 0x4180BE, size: 0x8, addend: 0x0, symName: __ZNK11llama_model4descEv, symObjAddr: 0x25A44, symBinAddr: 0x8963C, symSize: 0x2C }
  - { offset: 0x418253, size: 0x8, addend: 0x0, symName: __ZNSt3__16vectorINS_4pairIP19ggml_backend_deviceP24ggml_backend_buffer_typeEENS_9allocatorIS6_EEE18__insert_with_sizeB8ne200100INS_11__wrap_iterIPS6_EESD_EESD_NSB_IPKS6_EET_T0_l, symObjAddr: 0x37590, symBinAddr: 0x92CF0, symSize: 0x540 }
  - { offset: 0x41825E, size: 0x8, addend: 0x0, symName: __ZNK11llama_model4sizeEv, symObjAddr: 0x25A70, symBinAddr: 0x89668, symSize: 0xC }
  - { offset: 0x418282, size: 0x8, addend: 0x0, symName: __ZNK11llama_model4sizeEv, symObjAddr: 0x25A70, symBinAddr: 0x89668, symSize: 0xC }
  - { offset: 0x4182A0, size: 0x8, addend: 0x0, symName: __ZNK11llama_model9n_tensorsEv, symObjAddr: 0x25A7C, symBinAddr: 0x89674, symSize: 0x14 }
  - { offset: 0x4182CC, size: 0x8, addend: 0x0, symName: __ZNK11llama_model9n_tensorsEv, symObjAddr: 0x25A7C, symBinAddr: 0x89674, symSize: 0x14 }
  - { offset: 0x4182EA, size: 0x8, addend: 0x0, symName: __ZNK11llama_model10n_elementsEv, symObjAddr: 0x25A90, symBinAddr: 0x89688, symSize: 0xC }
  - { offset: 0x41830E, size: 0x8, addend: 0x0, symName: __ZNK11llama_model10n_elementsEv, symObjAddr: 0x25A90, symBinAddr: 0x89688, symSize: 0xC }
  - { offset: 0x418F9E, size: 0x8, addend: 0x0, symName: '__ZZNK11llama_model10print_infoEvENK3$_6clERKNSt3__18functionIFjjEEEj', symObjAddr: 0x26ADC, symBinAddr: 0x8A6D4, symSize: 0x2E4 }
  - { offset: 0x419F40, size: 0x8, addend: 0x0, symName: __ZNK11llama_model9dev_layerEi, symObjAddr: 0x26DC0, symBinAddr: 0x8A9B8, symSize: 0x30 }
  - { offset: 0x419F7C, size: 0x8, addend: 0x0, symName: __ZNK11llama_model9dev_layerEi, symObjAddr: 0x26DC0, symBinAddr: 0x8A9B8, symSize: 0x30 }
  - { offset: 0x419FDC, size: 0x8, addend: 0x0, symName: __ZNK11llama_model10dev_outputEv, symObjAddr: 0x26DF0, symBinAddr: 0x8A9E8, symSize: 0xC }
  - { offset: 0x419FE7, size: 0x8, addend: 0x0, symName: __ZNK11llama_model10dev_outputEv, symObjAddr: 0x26DF0, symBinAddr: 0x8A9E8, symSize: 0xC }
  - { offset: 0x41A013, size: 0x8, addend: 0x0, symName: __ZNK11llama_model10dev_outputEv, symObjAddr: 0x26DF0, symBinAddr: 0x8A9E8, symSize: 0xC }
  - { offset: 0x41A0AD, size: 0x8, addend: 0x0, symName: __ZNK11llama_model11select_buftEi, symObjAddr: 0x26DFC, symBinAddr: 0x8A9F4, symSize: 0x2E0 }
  - { offset: 0x41AA67, size: 0x8, addend: 0x0, symName: __ZNK11llama_model20has_tensor_overridesEv, symObjAddr: 0x270DC, symBinAddr: 0x8ACD4, symSize: 0xC }
  - { offset: 0x41AA93, size: 0x8, addend: 0x0, symName: __ZNK11llama_model20has_tensor_overridesEv, symObjAddr: 0x270DC, symBinAddr: 0x8ACD4, symSize: 0xC }
  - { offset: 0x41AADD, size: 0x8, addend: 0x0, symName: __ZNK11llama_model10get_tensorEPKc, symObjAddr: 0x270E8, symBinAddr: 0x8ACE0, symSize: 0xC0 }
  - { offset: 0x41AD96, size: 0x8, addend: 0x0, symName: __ZNK11llama_model18get_rope_freq_baseERK13llama_cparamsi, symObjAddr: 0x271A8, symBinAddr: 0x8ADA0, symSize: 0x44 }
  - { offset: 0x41ADCA, size: 0x8, addend: 0x0, symName: __ZNK11llama_model19get_rope_freq_scaleERK13llama_cparamsi, symObjAddr: 0x271EC, symBinAddr: 0x8ADE4, symSize: 0x44 }
  - { offset: 0x41AE20, size: 0x8, addend: 0x0, symName: __ZNK11llama_model16get_rope_factorsERK13llama_cparamsi, symObjAddr: 0x27230, symBinAddr: 0x8AE28, symSize: 0x48 }
  - { offset: 0x41AE5B, size: 0x8, addend: 0x0, symName: __ZNK11llama_model16get_rope_factorsERK13llama_cparamsi, symObjAddr: 0x27230, symBinAddr: 0x8AE28, symSize: 0x48 }
  - { offset: 0x41B433, size: 0x8, addend: 0x0, symName: '__ZNSt3__18functionIFiiEEaSIZNK11llama_model13create_memoryERK19llama_memory_paramsR13llama_cparamsE3$_2vEERS2_OT_', symObjAddr: 0x27850, symBinAddr: 0x8B448, symSize: 0x9C }
  - { offset: 0x41B81C, size: 0x8, addend: 0x0, symName: __ZNSt3__110__function12__value_funcIFiiEE4swapB8ne200100ERS3_, symObjAddr: 0x392CC, symBinAddr: 0x94998, symSize: 0x1A0 }
  - { offset: 0x41BAD0, size: 0x8, addend: 0x0, symName: __ZNK11llama_model11build_graphERK16llm_graph_params, symObjAddr: 0x278EC, symBinAddr: 0x8B4E4, symSize: 0x6B8 }
  - { offset: 0x41C5DE, size: 0x8, addend: 0x0, symName: __ZN14llm_build_bertC2ERK11llama_modelRK16llm_graph_params, symObjAddr: 0x3C5B0, symBinAddr: 0x97C7C, symSize: 0x85C }
  - { offset: 0x41CC33, size: 0x8, addend: 0x0, symName: __ZN14llm_build_bertD1Ev, symObjAddr: 0x3CE0C, symBinAddr: 0x984D8, symSize: 0x4 }
  - { offset: 0x41CC46, size: 0x8, addend: 0x0, symName: __ZN17llm_build_graniteC2ERK11llama_modelRK16llm_graph_params, symObjAddr: 0x563BC, symBinAddr: 0xB1994, symSize: 0x32C }
  - { offset: 0x41CE77, size: 0x8, addend: 0x0, symName: __ZN17llm_build_granite21build_attention_layerEP11ggml_tensorS1_P23llm_graph_input_attn_kvRK11llama_modelxi, symObjAddr: 0x566E8, symBinAddr: 0xB1CC0, symSize: 0x3A8 }
  - { offset: 0x41CE8A, size: 0x8, addend: 0x0, symName: __ZN15llm_build_mambaC2ERK11llama_modelRK16llm_graph_params, symObjAddr: 0x49090, symBinAddr: 0xA4668, symSize: 0x238 }
  - { offset: 0x41D0A1, size: 0x8, addend: 0x0, symName: __ZN15llm_build_llamaC2ERK11llama_modelRK16llm_graph_params, symObjAddr: 0x3946C, symBinAddr: 0x94B38, symSize: 0x6C8 }
  - { offset: 0x41D4CA, size: 0x8, addend: 0x0, symName: __ZN15llm_build_llamaD1Ev, symObjAddr: 0x39B34, symBinAddr: 0x95200, symSize: 0x4 }
  - { offset: 0x41D574, size: 0x8, addend: 0x0, symName: __ZN20llm_build_llama_iswaC2ERK11llama_modelRK16llm_graph_params, symObjAddr: 0x39B3C, symBinAddr: 0x95208, symSize: 0x830 }
  - { offset: 0x41DA99, size: 0x8, addend: 0x0, symName: __ZN20llm_build_llama_iswaD1Ev, symObjAddr: 0x3A36C, symBinAddr: 0x95A38, symSize: 0x4 }
  - { offset: 0x41DB43, size: 0x8, addend: 0x0, symName: __ZN14llm_build_deciC2ERK11llama_modelRK16llm_graph_params, symObjAddr: 0x3A374, symBinAddr: 0x95A40, symSize: 0x704 }
  - { offset: 0x41DFB9, size: 0x8, addend: 0x0, symName: __ZN14llm_build_deciD1Ev, symObjAddr: 0x3AA78, symBinAddr: 0x96144, symSize: 0x4 }
  - { offset: 0x41E063, size: 0x8, addend: 0x0, symName: __ZN18llm_build_baichuanC2ERK11llama_modelRK16llm_graph_params, symObjAddr: 0x3AA80, symBinAddr: 0x9614C, symSize: 0x568 }
  - { offset: 0x41E3C1, size: 0x8, addend: 0x0, symName: __ZN18llm_build_baichuanD1Ev, symObjAddr: 0x3AFE8, symBinAddr: 0x966B4, symSize: 0x4 }
  - { offset: 0x41E46B, size: 0x8, addend: 0x0, symName: __ZN16llm_build_falconC2ERK11llama_modelRK16llm_graph_params, symObjAddr: 0x3AFF0, symBinAddr: 0x966BC, symSize: 0x534 }
  - { offset: 0x41E7B8, size: 0x8, addend: 0x0, symName: __ZN16llm_build_falconD1Ev, symObjAddr: 0x3B524, symBinAddr: 0x96BF0, symSize: 0x4 }
  - { offset: 0x41E862, size: 0x8, addend: 0x0, symName: __ZN14llm_build_grokC2ERK11llama_modelRK16llm_graph_params, symObjAddr: 0x3B52C, symBinAddr: 0x96BF8, symSize: 0x6A8 }
  - { offset: 0x41ECB3, size: 0x8, addend: 0x0, symName: __ZN14llm_build_grokD1Ev, symObjAddr: 0x3BBD4, symBinAddr: 0x972A0, symSize: 0x4 }
  - { offset: 0x41ED5D, size: 0x8, addend: 0x0, symName: __ZN19llm_build_starcoderC2ERK11llama_modelRK16llm_graph_params, symObjAddr: 0x3BBDC, symBinAddr: 0x972A8, symSize: 0x53C }
  - { offset: 0x41F0DD, size: 0x8, addend: 0x0, symName: __ZN19llm_build_starcoderD1Ev, symObjAddr: 0x3C118, symBinAddr: 0x977E4, symSize: 0x4 }
  - { offset: 0x41F187, size: 0x8, addend: 0x0, symName: __ZN16llm_build_refactC2ERK11llama_modelRK16llm_graph_params, symObjAddr: 0x3C120, symBinAddr: 0x977EC, symSize: 0x488 }
  - { offset: 0x41F485, size: 0x8, addend: 0x0, symName: __ZN16llm_build_refactD1Ev, symObjAddr: 0x3C5A8, symBinAddr: 0x97C74, symSize: 0x4 }
  - { offset: 0x41F52F, size: 0x8, addend: 0x0, symName: __ZN18llm_build_neo_bertC2ERK11llama_modelRK16llm_graph_params, symObjAddr: 0x3CE14, symBinAddr: 0x984E0, symSize: 0x488 }
  - { offset: 0x41F85F, size: 0x8, addend: 0x0, symName: __ZN18llm_build_neo_bertD1Ev, symObjAddr: 0x3D29C, symBinAddr: 0x98968, symSize: 0x4 }
  - { offset: 0x41F909, size: 0x8, addend: 0x0, symName: __ZN15llm_build_bloomC2ERK11llama_modelRK16llm_graph_params, symObjAddr: 0x3D2A4, symBinAddr: 0x98970, symSize: 0x510 }
  - { offset: 0x41FC3B, size: 0x8, addend: 0x0, symName: __ZN15llm_build_bloomD1Ev, symObjAddr: 0x3D7B4, symBinAddr: 0x98E80, symSize: 0x4 }
  - { offset: 0x41FCE5, size: 0x8, addend: 0x0, symName: __ZN13llm_build_mptC2ERK11llama_modelRK16llm_graph_params, symObjAddr: 0x3D7BC, symBinAddr: 0x98E88, symSize: 0x6CC }
  - { offset: 0x42011A, size: 0x8, addend: 0x0, symName: __ZN13llm_build_mptD1Ev, symObjAddr: 0x3DE88, symBinAddr: 0x99554, symSize: 0x4 }
  - { offset: 0x4201C4, size: 0x8, addend: 0x0, symName: __ZN18llm_build_stablelmC2ERK11llama_modelRK16llm_graph_params, symObjAddr: 0x3DE90, symBinAddr: 0x9955C, symSize: 0x670 }
  - { offset: 0x4205DB, size: 0x8, addend: 0x0, symName: __ZN18llm_build_stablelmD1Ev, symObjAddr: 0x3E500, symBinAddr: 0x99BCC, symSize: 0x4 }
  - { offset: 0x420685, size: 0x8, addend: 0x0, symName: __ZN14llm_build_qwenC2ERK11llama_modelRK16llm_graph_params, symObjAddr: 0x3E508, symBinAddr: 0x99BD4, symSize: 0x4F8 }
  - { offset: 0x4209D7, size: 0x8, addend: 0x0, symName: __ZN14llm_build_qwenD1Ev, symObjAddr: 0x3EA00, symBinAddr: 0x9A0CC, symSize: 0x4 }
  - { offset: 0x420A81, size: 0x8, addend: 0x0, symName: __ZN15llm_build_qwen2C2ERK11llama_modelRK16llm_graph_params, symObjAddr: 0x3EA08, symBinAddr: 0x9A0D4, symSize: 0x580 }
  - { offset: 0x420E8F, size: 0x8, addend: 0x0, symName: __ZN15llm_build_qwen2D1Ev, symObjAddr: 0x3EF88, symBinAddr: 0x9A654, symSize: 0x4 }
  - { offset: 0x420F39, size: 0x8, addend: 0x0, symName: __ZN15llm_build_dreamC2ERK11llama_modelRK16llm_graph_params, symObjAddr: 0x3EF90, symBinAddr: 0x9A65C, symSize: 0x56C }
  - { offset: 0x421339, size: 0x8, addend: 0x0, symName: __ZN15llm_build_dreamD1Ev, symObjAddr: 0x3F4FC, symBinAddr: 0x9ABC8, symSize: 0x4 }
  - { offset: 0x4213E3, size: 0x8, addend: 0x0, symName: __ZN15llm_build_lladaC2ERK11llama_modelRK16llm_graph_params, symObjAddr: 0x3F504, symBinAddr: 0x9ABD0, symSize: 0x524 }
  - { offset: 0x421744, size: 0x8, addend: 0x0, symName: __ZN15llm_build_lladaD1Ev, symObjAddr: 0x3FA28, symBinAddr: 0x9B0F4, symSize: 0x4 }
  - { offset: 0x4217EE, size: 0x8, addend: 0x0, symName: __ZN17llm_build_qwen2vlC2ERK11llama_modelRK16llm_graph_params, symObjAddr: 0x3FA30, symBinAddr: 0x9B0FC, symSize: 0x670 }
  - { offset: 0x421DF3, size: 0x8, addend: 0x0, symName: __ZN18llm_build_qwen2moeC2ERK11llama_modelRK16llm_graph_params, symObjAddr: 0x400A8, symBinAddr: 0x9B774, symSize: 0x6F8 }
  - { offset: 0x4222F6, size: 0x8, addend: 0x0, symName: __ZN18llm_build_qwen2moeD1Ev, symObjAddr: 0x407A0, symBinAddr: 0x9BE6C, symSize: 0x4 }
  - { offset: 0x4223A0, size: 0x8, addend: 0x0, symName: __ZN15llm_build_qwen3C2ERK11llama_modelRK16llm_graph_params, symObjAddr: 0x407A8, symBinAddr: 0x9BE74, symSize: 0x5A4 }
  - { offset: 0x422749, size: 0x8, addend: 0x0, symName: __ZN15llm_build_qwen3D1Ev, symObjAddr: 0x40D4C, symBinAddr: 0x9C418, symSize: 0x4 }
  - { offset: 0x4227F3, size: 0x8, addend: 0x0, symName: __ZN18llm_build_qwen3moeC2ERK11llama_modelRK16llm_graph_params, symObjAddr: 0x40D54, symBinAddr: 0x9C420, symSize: 0x5A4 }
  - { offset: 0x422BAC, size: 0x8, addend: 0x0, symName: __ZN18llm_build_qwen3moeD1Ev, symObjAddr: 0x412F8, symBinAddr: 0x9C9C4, symSize: 0x4 }
  - { offset: 0x422C56, size: 0x8, addend: 0x0, symName: __ZN14llm_build_phi2C2ERK11llama_modelRK16llm_graph_params, symObjAddr: 0x41300, symBinAddr: 0x9C9CC, symSize: 0x680 }
  - { offset: 0x42311D, size: 0x8, addend: 0x0, symName: __ZN14llm_build_phi2D1Ev, symObjAddr: 0x41980, symBinAddr: 0x9D04C, symSize: 0x4 }
  - { offset: 0x4231C7, size: 0x8, addend: 0x0, symName: __ZN14llm_build_phi3ILb1EEC2ERK11llama_modelRK16llm_graph_params, symObjAddr: 0x41988, symBinAddr: 0x9D054, symSize: 0x744 }
  - { offset: 0x4236B1, size: 0x8, addend: 0x0, symName: __ZN14llm_build_phi3ILb1EED1Ev, symObjAddr: 0x420CC, symBinAddr: 0x9D798, symSize: 0x4 }
  - { offset: 0x423767, size: 0x8, addend: 0x0, symName: __ZN14llm_build_phi3ILb0EEC2ERK11llama_modelRK16llm_graph_params, symObjAddr: 0x420D4, symBinAddr: 0x9D7A0, symSize: 0x744 }
  - { offset: 0x423C51, size: 0x8, addend: 0x0, symName: __ZN14llm_build_phi3ILb0EED1Ev, symObjAddr: 0x42818, symBinAddr: 0x9DEE4, symSize: 0x4 }
  - { offset: 0x423D07, size: 0x8, addend: 0x0, symName: __ZN15llm_build_plamoC2ERK11llama_modelRK16llm_graph_params, symObjAddr: 0x42820, symBinAddr: 0x9DEEC, symSize: 0x4E4 }
  - { offset: 0x42405D, size: 0x8, addend: 0x0, symName: __ZN15llm_build_plamoD1Ev, symObjAddr: 0x42D04, symBinAddr: 0x9E3D0, symSize: 0x4 }
  - { offset: 0x424107, size: 0x8, addend: 0x0, symName: __ZN16llm_build_plamo2C2ERK11llama_modelRK16llm_graph_params, symObjAddr: 0x42D0C, symBinAddr: 0x9E3D8, symSize: 0x384 }
  - { offset: 0x4244CA, size: 0x8, addend: 0x0, symName: __ZN14llm_build_gpt2C2ERK11llama_modelRK16llm_graph_params, symObjAddr: 0x44284, symBinAddr: 0x9F85C, symSize: 0x52C }
  - { offset: 0x424850, size: 0x8, addend: 0x0, symName: __ZN14llm_build_gpt2D1Ev, symObjAddr: 0x447B0, symBinAddr: 0x9FD88, symSize: 0x4 }
  - { offset: 0x4248FA, size: 0x8, addend: 0x0, symName: __ZN19llm_build_codeshellC2ERK11llama_modelRK16llm_graph_params, symObjAddr: 0x447B8, symBinAddr: 0x9FD90, symSize: 0x54C }
  - { offset: 0x424C70, size: 0x8, addend: 0x0, symName: __ZN19llm_build_codeshellD1Ev, symObjAddr: 0x44D04, symBinAddr: 0xA02DC, symSize: 0x4 }
  - { offset: 0x424D1A, size: 0x8, addend: 0x0, symName: __ZN15llm_build_orionC2ERK11llama_modelRK16llm_graph_params, symObjAddr: 0x44D0C, symBinAddr: 0xA02E4, symSize: 0x520 }
  - { offset: 0x42507B, size: 0x8, addend: 0x0, symName: __ZN15llm_build_orionD1Ev, symObjAddr: 0x4522C, symBinAddr: 0xA0804, symSize: 0x4 }
  - { offset: 0x425125, size: 0x8, addend: 0x0, symName: __ZN19llm_build_internlm2C2ERK11llama_modelRK16llm_graph_params, symObjAddr: 0x45234, symBinAddr: 0xA080C, symSize: 0x5D0 }
  - { offset: 0x425513, size: 0x8, addend: 0x0, symName: __ZN19llm_build_internlm2D1Ev, symObjAddr: 0x45804, symBinAddr: 0xA0DDC, symSize: 0x4 }
  - { offset: 0x4255BD, size: 0x8, addend: 0x0, symName: __ZN18llm_build_minicpm3C2ERK11llama_modelRK16llm_graph_params, symObjAddr: 0x4580C, symBinAddr: 0xA0DE4, symSize: 0x9B8 }
  - { offset: 0x425E05, size: 0x8, addend: 0x0, symName: __ZN15llm_build_gemmaC2ERK11llama_modelRK16llm_graph_params, symObjAddr: 0x461CC, symBinAddr: 0xA17A4, symSize: 0x51C }
  - { offset: 0x4261FB, size: 0x8, addend: 0x0, symName: __ZN21llm_build_gemma2_iswaC2ERK11llama_modelRK16llm_graph_params, symObjAddr: 0x466F0, symBinAddr: 0xA1CC8, symSize: 0x5AC }
  - { offset: 0x42666F, size: 0x8, addend: 0x0, symName: __ZN21llm_build_gemma3_iswaC2ERK11llama_modelRK16llm_graph_params, symObjAddr: 0x46CA4, symBinAddr: 0xA227C, symSize: 0x66C }
  - { offset: 0x426B7D, size: 0x8, addend: 0x0, symName: __ZN22llm_build_gemma3n_iswaC2ERK11llama_modelRK16llm_graph_params, symObjAddr: 0x47318, symBinAddr: 0xA28F0, symSize: 0xFB8 }
  - { offset: 0x427C7D, size: 0x8, addend: 0x0, symName: __ZN22llm_build_gemma3n_iswa24project_per_layer_inputsEP11ggml_tensorS1_, symObjAddr: 0x482D0, symBinAddr: 0xA38A8, symSize: 0x128 }
  - { offset: 0x427D27, size: 0x8, addend: 0x0, symName: __ZN20llm_build_starcoder2C2ERK11llama_modelRK16llm_graph_params, symObjAddr: 0x48AB8, symBinAddr: 0xA4090, symSize: 0x5D0 }
  - { offset: 0x428115, size: 0x8, addend: 0x0, symName: __ZN20llm_build_starcoder2D1Ev, symObjAddr: 0x49088, symBinAddr: 0xA4660, symSize: 0x4 }
  - { offset: 0x4281BF, size: 0x8, addend: 0x0, symName: __ZN15llm_build_jambaC2ERK11llama_modelRK16llm_graph_params, symObjAddr: 0x4A654, symBinAddr: 0xA5C2C, symSize: 0x4FC }
  - { offset: 0x428626, size: 0x8, addend: 0x0, symName: __ZN16llm_build_xverseC2ERK11llama_modelRK16llm_graph_params, symObjAddr: 0x4AB58, symBinAddr: 0xA6130, symSize: 0x524 }
  - { offset: 0x428987, size: 0x8, addend: 0x0, symName: __ZN16llm_build_xverseD1Ev, symObjAddr: 0x4B07C, symBinAddr: 0xA6654, symSize: 0x4 }
  - { offset: 0x428A31, size: 0x8, addend: 0x0, symName: __ZN19llm_build_command_rC2ERK11llama_modelRK16llm_graph_params, symObjAddr: 0x4B084, symBinAddr: 0xA665C, symSize: 0x620 }
  - { offset: 0x428E69, size: 0x8, addend: 0x0, symName: __ZN19llm_build_command_rD1Ev, symObjAddr: 0x4B6A4, symBinAddr: 0xA6C7C, symSize: 0x4 }
  - { offset: 0x428F13, size: 0x8, addend: 0x0, symName: __ZN22llm_build_cohere2_iswaC2ERK11llama_modelRK16llm_graph_params, symObjAddr: 0x4B6AC, symBinAddr: 0xA6C84, symSize: 0x5F4 }
  - { offset: 0x429349, size: 0x8, addend: 0x0, symName: __ZN22llm_build_cohere2_iswaD1Ev, symObjAddr: 0x4BCA0, symBinAddr: 0xA7278, symSize: 0x4 }
  - { offset: 0x4293F3, size: 0x8, addend: 0x0, symName: __ZN14llm_build_dbrxC2ERK11llama_modelRK16llm_graph_params, symObjAddr: 0x4BCA8, symBinAddr: 0xA7280, symSize: 0x568 }
  - { offset: 0x429751, size: 0x8, addend: 0x0, symName: __ZN14llm_build_dbrxD1Ev, symObjAddr: 0x4C210, symBinAddr: 0xA77E8, symSize: 0x4 }
  - { offset: 0x4297FB, size: 0x8, addend: 0x0, symName: __ZN14llm_build_olmoC2ERK11llama_modelRK16llm_graph_params, symObjAddr: 0x4C218, symBinAddr: 0xA77F0, symSize: 0x604 }
  - { offset: 0x429B4F, size: 0x8, addend: 0x0, symName: __ZN14llm_build_olmoD1Ev, symObjAddr: 0x4C81C, symBinAddr: 0xA7DF4, symSize: 0x4 }
  - { offset: 0x429BF9, size: 0x8, addend: 0x0, symName: __ZN15llm_build_olmo2C2ERK11llama_modelRK16llm_graph_params, symObjAddr: 0x4C824, symBinAddr: 0xA7DFC, symSize: 0x5C4 }
  - { offset: 0x429FA8, size: 0x8, addend: 0x0, symName: __ZN15llm_build_olmo2D1Ev, symObjAddr: 0x4CDE8, symBinAddr: 0xA83C0, symSize: 0x4 }
  - { offset: 0x42A052, size: 0x8, addend: 0x0, symName: __ZN15llm_build_olmoeC2ERK11llama_modelRK16llm_graph_params, symObjAddr: 0x4CDF0, symBinAddr: 0xA83C8, symSize: 0x5A4 }
  - { offset: 0x42A401, size: 0x8, addend: 0x0, symName: __ZN15llm_build_olmoeD1Ev, symObjAddr: 0x4D394, symBinAddr: 0xA896C, symSize: 0x4 }
  - { offset: 0x42A4AB, size: 0x8, addend: 0x0, symName: __ZN17llm_build_openelmC2ERK11llama_modelRK16llm_graph_params, symObjAddr: 0x4D39C, symBinAddr: 0xA8974, symSize: 0x5DC }
  - { offset: 0x42A869, size: 0x8, addend: 0x0, symName: __ZN17llm_build_openelmD1Ev, symObjAddr: 0x4D978, symBinAddr: 0xA8F50, symSize: 0x4 }
  - { offset: 0x42A913, size: 0x8, addend: 0x0, symName: __ZN17llm_build_gptneoxC2ERK11llama_modelRK16llm_graph_params, symObjAddr: 0x4D980, symBinAddr: 0xA8F58, symSize: 0x614 }
  - { offset: 0x42AD03, size: 0x8, addend: 0x0, symName: __ZN17llm_build_gptneoxD1Ev, symObjAddr: 0x4DF94, symBinAddr: 0xA956C, symSize: 0x4 }
  - { offset: 0x42ADAD, size: 0x8, addend: 0x0, symName: __ZN16llm_build_arcticC2ERK11llama_modelRK16llm_graph_params, symObjAddr: 0x4DF9C, symBinAddr: 0xA9574, symSize: 0x600 }
  - { offset: 0x42B17A, size: 0x8, addend: 0x0, symName: __ZN16llm_build_arcticD1Ev, symObjAddr: 0x4E59C, symBinAddr: 0xA9B74, symSize: 0x4 }
  - { offset: 0x42B224, size: 0x8, addend: 0x0, symName: __ZN18llm_build_deepseekC2ERK11llama_modelRK16llm_graph_params, symObjAddr: 0x4E5A4, symBinAddr: 0xA9B7C, symSize: 0x708 }
  - { offset: 0x42B6CC, size: 0x8, addend: 0x0, symName: __ZN18llm_build_deepseekD1Ev, symObjAddr: 0x4ECAC, symBinAddr: 0xAA284, symSize: 0x4 }
  - { offset: 0x42B776, size: 0x8, addend: 0x0, symName: __ZN19llm_build_deepseek2C2ERK11llama_modelRK16llm_graph_params, symObjAddr: 0x4ECB4, symBinAddr: 0xAA28C, symSize: 0xBA8 }
  - { offset: 0x42C14C, size: 0x8, addend: 0x0, symName: __ZN17llm_build_chatglmC2ERK11llama_modelRK16llm_graph_params, symObjAddr: 0x4F864, symBinAddr: 0xAAE3C, symSize: 0x610 }
  - { offset: 0x42C5E5, size: 0x8, addend: 0x0, symName: __ZN17llm_build_chatglmD1Ev, symObjAddr: 0x4FE74, symBinAddr: 0xAB44C, symSize: 0x4 }
  - { offset: 0x42C68F, size: 0x8, addend: 0x0, symName: __ZN14llm_build_glm4C2ERK11llama_modelRK16llm_graph_params, symObjAddr: 0x4FE7C, symBinAddr: 0xAB454, symSize: 0x690 }
  - { offset: 0x42CB76, size: 0x8, addend: 0x0, symName: __ZN14llm_build_glm4D1Ev, symObjAddr: 0x5050C, symBinAddr: 0xABAE4, symSize: 0x4 }
  - { offset: 0x42CC20, size: 0x8, addend: 0x0, symName: __ZN18llm_build_glm4_moeC2ERK11llama_modelRK16llm_graph_params, symObjAddr: 0x50514, symBinAddr: 0xABAEC, symSize: 0x6E8 }
  - { offset: 0x42D0C4, size: 0x8, addend: 0x0, symName: __ZN18llm_build_glm4_moeD1Ev, symObjAddr: 0x50BFC, symBinAddr: 0xAC1D4, symSize: 0x4 }
  - { offset: 0x42D16E, size: 0x8, addend: 0x0, symName: __ZN16llm_build_bitnetC2ERK11llama_modelRK16llm_graph_params, symObjAddr: 0x50C04, symBinAddr: 0xAC1DC, symSize: 0x738 }
  - { offset: 0x42D70C, size: 0x8, addend: 0x0, symName: __ZN16llm_build_bitnetD1Ev, symObjAddr: 0x5133C, symBinAddr: 0xAC914, symSize: 0x4 }
  - { offset: 0x42D7B6, size: 0x8, addend: 0x0, symName: __ZN16llm_build_t5_encC2ERK11llama_modelRK16llm_graph_params, symObjAddr: 0x51344, symBinAddr: 0xAC91C, symSize: 0x474 }
  - { offset: 0x42DB0B, size: 0x8, addend: 0x0, symName: __ZN16llm_build_t5_encD1Ev, symObjAddr: 0x517B8, symBinAddr: 0xACD90, symSize: 0x4 }
  - { offset: 0x42DBB5, size: 0x8, addend: 0x0, symName: __ZN16llm_build_t5_decC2ERK11llama_modelRK16llm_graph_params, symObjAddr: 0x517C0, symBinAddr: 0xACD98, symSize: 0x67C }
  - { offset: 0x42E0C0, size: 0x8, addend: 0x0, symName: __ZN16llm_build_t5_decD1Ev, symObjAddr: 0x51E3C, symBinAddr: 0xAD414, symSize: 0x4 }
  - { offset: 0x42E16A, size: 0x8, addend: 0x0, symName: __ZN14llm_build_jaisC2ERK11llama_modelRK16llm_graph_params, symObjAddr: 0x51E44, symBinAddr: 0xAD41C, symSize: 0x4B4 }
  - { offset: 0x42E4A2, size: 0x8, addend: 0x0, symName: __ZN14llm_build_jaisD1Ev, symObjAddr: 0x522F8, symBinAddr: 0xAD8D0, symSize: 0x4 }
  - { offset: 0x42E54C, size: 0x8, addend: 0x0, symName: __ZN18llm_build_nemotronC2ERK11llama_modelRK16llm_graph_params, symObjAddr: 0x52300, symBinAddr: 0xAD8D8, symSize: 0x5A8 }
  - { offset: 0x42E91F, size: 0x8, addend: 0x0, symName: __ZN18llm_build_nemotronD1Ev, symObjAddr: 0x528A8, symBinAddr: 0xADE80, symSize: 0x4 }
  - { offset: 0x42E9C9, size: 0x8, addend: 0x0, symName: __ZN16llm_build_exaoneC2ERK11llama_modelRK16llm_graph_params, symObjAddr: 0x528B0, symBinAddr: 0xADE88, symSize: 0x638 }
  - { offset: 0x42EDF1, size: 0x8, addend: 0x0, symName: __ZN16llm_build_exaoneD1Ev, symObjAddr: 0x52EE8, symBinAddr: 0xAE4C0, symSize: 0x4 }
  - { offset: 0x42EE9B, size: 0x8, addend: 0x0, symName: __ZN17llm_build_exaone4ILb1EEC2ERK11llama_modelRK16llm_graph_params, symObjAddr: 0x52EF0, symBinAddr: 0xAE4C8, symSize: 0x644 }
  - { offset: 0x42F294, size: 0x8, addend: 0x0, symName: __ZN17llm_build_exaone4ILb1EED1Ev, symObjAddr: 0x53534, symBinAddr: 0xAEB0C, symSize: 0x4 }
  - { offset: 0x42F34A, size: 0x8, addend: 0x0, symName: __ZN17llm_build_exaone4ILb0EEC2ERK11llama_modelRK16llm_graph_params, symObjAddr: 0x5353C, symBinAddr: 0xAEB14, symSize: 0x644 }
  - { offset: 0x42F743, size: 0x8, addend: 0x0, symName: __ZN17llm_build_exaone4ILb0EED1Ev, symObjAddr: 0x53B80, symBinAddr: 0xAF158, symSize: 0x4 }
  - { offset: 0x42F7F9, size: 0x8, addend: 0x0, symName: __ZN15llm_build_rwkv6C2ERK11llama_modelRK16llm_graph_params, symObjAddr: 0x53B88, symBinAddr: 0xAF160, symSize: 0x598 }
  - { offset: 0x42FD20, size: 0x8, addend: 0x0, symName: __ZNK20llm_build_rwkv6_base20build_rwkv6_time_mixEP18llm_graph_input_rsP11ggml_tensorS3_RK12llama_ubatchi, symObjAddr: 0x54120, symBinAddr: 0xAF6F8, symSize: 0xA54 }
  - { offset: 0x42FDCA, size: 0x8, addend: 0x0, symName: __ZN20llm_build_rwkv6qwen2C2ERK11llama_modelRK16llm_graph_params, symObjAddr: 0x54CA0, symBinAddr: 0xB0278, symSize: 0x454 }
  - { offset: 0x430144, size: 0x8, addend: 0x0, symName: __ZN20llm_build_rwkv6qwen2D1Ev, symObjAddr: 0x550F4, symBinAddr: 0xB06CC, symSize: 0x4 }
  - { offset: 0x4301EE, size: 0x8, addend: 0x0, symName: __ZN15llm_build_rwkv7C2ERK11llama_modelRK16llm_graph_params, symObjAddr: 0x550FC, symBinAddr: 0xB06D4, symSize: 0x5B8 }
  - { offset: 0x43077C, size: 0x8, addend: 0x0, symName: __ZNK20llm_build_rwkv7_base20build_rwkv7_time_mixEP18llm_graph_input_rsP11ggml_tensorS3_RS3_RK12llama_ubatchi, symObjAddr: 0x556B4, symBinAddr: 0xB0C8C, symSize: 0x89C }
  - { offset: 0x430826, size: 0x8, addend: 0x0, symName: __ZN16llm_build_arwkv7C2ERK11llama_modelRK16llm_graph_params, symObjAddr: 0x55F58, symBinAddr: 0xB1530, symSize: 0x45C }
  - { offset: 0x430BB7, size: 0x8, addend: 0x0, symName: __ZN16llm_build_arwkv7D1Ev, symObjAddr: 0x563B4, symBinAddr: 0xB198C, symSize: 0x4 }
  - { offset: 0x430C61, size: 0x8, addend: 0x0, symName: __ZN24llm_build_granite_hybridC2ERK11llama_modelRK16llm_graph_params, symObjAddr: 0x56D24, symBinAddr: 0xB22FC, symSize: 0x2D0 }
  - { offset: 0x430EF0, size: 0x8, addend: 0x0, symName: __ZN24llm_build_granite_hybrid21build_attention_layerEP11ggml_tensorS1_P23llm_graph_input_attn_kvRK11llama_modelxi, symObjAddr: 0x56FF4, symBinAddr: 0xB25CC, symSize: 0x3A8 }
  - { offset: 0x430F9A, size: 0x8, addend: 0x0, symName: __ZN19llm_build_chameleonC2ERK11llama_modelRK16llm_graph_params, symObjAddr: 0x57630, symBinAddr: 0xB2C08, symSize: 0x828 }
  - { offset: 0x43154E, size: 0x8, addend: 0x0, symName: __ZN19llm_build_chameleonD1Ev, symObjAddr: 0x57E58, symBinAddr: 0xB3430, symSize: 0x4 }
  - { offset: 0x4315F8, size: 0x8, addend: 0x0, symName: __ZN26llm_build_wavtokenizer_decC2ERK11llama_modelRK16llm_graph_params, symObjAddr: 0x57E60, symBinAddr: 0xB3438, symSize: 0x598 }
  - { offset: 0x431AE4, size: 0x8, addend: 0x0, symName: __ZN26llm_build_wavtokenizer_decD1Ev, symObjAddr: 0x583F8, symBinAddr: 0xB39D0, symSize: 0x4 }
  - { offset: 0x431B8E, size: 0x8, addend: 0x0, symName: __ZN13llm_build_plmC2ERK11llama_modelRK16llm_graph_params, symObjAddr: 0x58400, symBinAddr: 0xB39D8, symSize: 0x874 }
  - { offset: 0x4322CA, size: 0x8, addend: 0x0, symName: __ZN20llm_build_bailingmoeC2ERK11llama_modelRK16llm_graph_params, symObjAddr: 0x58C7C, symBinAddr: 0xB4254, symSize: 0x644 }
  - { offset: 0x4327C9, size: 0x8, addend: 0x0, symName: __ZN18llm_build_seed_ossC2ERK11llama_modelRK16llm_graph_params, symObjAddr: 0x592C8, symBinAddr: 0xB48A0, symSize: 0x614 }
  - { offset: 0x432BC8, size: 0x8, addend: 0x0, symName: __ZN18llm_build_seed_ossD1Ev, symObjAddr: 0x598DC, symBinAddr: 0xB4EB4, symSize: 0x4 }
  - { offset: 0x432C73, size: 0x8, addend: 0x0, symName: __ZN15llm_build_dots1C2ERK11llama_modelRK16llm_graph_params, symObjAddr: 0x598E4, symBinAddr: 0xB4EBC, symSize: 0x688 }
  - { offset: 0x433088, size: 0x8, addend: 0x0, symName: __ZN15llm_build_dots1D1Ev, symObjAddr: 0x59F6C, symBinAddr: 0xB5544, symSize: 0x4 }
  - { offset: 0x433132, size: 0x8, addend: 0x0, symName: __ZN15llm_build_arceeC2ERK11llama_modelRK16llm_graph_params, symObjAddr: 0x59F74, symBinAddr: 0xB554C, symSize: 0x664 }
  - { offset: 0x43356B, size: 0x8, addend: 0x0, symName: __ZN15llm_build_arceeD1Ev, symObjAddr: 0x5A5D8, symBinAddr: 0xB5BB0, symSize: 0x4 }
  - { offset: 0x433616, size: 0x8, addend: 0x0, symName: __ZN18llm_build_ernie4_5C2ERK11llama_modelRK16llm_graph_params, symObjAddr: 0x5A5E0, symBinAddr: 0xB5BB8, symSize: 0x5C4 }
  - { offset: 0x433A07, size: 0x8, addend: 0x0, symName: __ZN18llm_build_ernie4_5D1Ev, symObjAddr: 0x5ABA4, symBinAddr: 0xB617C, symSize: 0x4 }
  - { offset: 0x433AB1, size: 0x8, addend: 0x0, symName: __ZN22llm_build_ernie4_5_moeC2ERK11llama_modelRK16llm_graph_params, symObjAddr: 0x5ABAC, symBinAddr: 0xB6184, symSize: 0x77C }
  - { offset: 0x433F98, size: 0x8, addend: 0x0, symName: __ZN22llm_build_ernie4_5_moeD1Ev, symObjAddr: 0x5B328, symBinAddr: 0xB6900, symSize: 0x4 }
  - { offset: 0x434043, size: 0x8, addend: 0x0, symName: __ZN21llm_build_hunyuan_moeC2ERK11llama_modelRK16llm_graph_params, symObjAddr: 0x5B330, symBinAddr: 0xB6908, symSize: 0x748 }
  - { offset: 0x434540, size: 0x8, addend: 0x0, symName: __ZN21llm_build_hunyuan_moeD1Ev, symObjAddr: 0x5BA78, symBinAddr: 0xB7050, symSize: 0x4 }
  - { offset: 0x4345EB, size: 0x8, addend: 0x0, symName: __ZN23llm_build_hunyuan_denseC2ERK11llama_modelRK16llm_graph_params, symObjAddr: 0x5BA80, symBinAddr: 0xB7058, symSize: 0x6C4 }
  - { offset: 0x434A96, size: 0x8, addend: 0x0, symName: __ZN23llm_build_hunyuan_denseD1Ev, symObjAddr: 0x5C144, symBinAddr: 0xB771C, symSize: 0x4 }
  - { offset: 0x434B41, size: 0x8, addend: 0x0, symName: __ZN17llm_build_smollm3C2ERK11llama_modelRK16llm_graph_params, symObjAddr: 0x5C14C, symBinAddr: 0xB7724, symSize: 0x648 }
  - { offset: 0x434F43, size: 0x8, addend: 0x0, symName: __ZN17llm_build_smollm3D1Ev, symObjAddr: 0x5C794, symBinAddr: 0xB7D6C, symSize: 0x4 }
  - { offset: 0x434FEE, size: 0x8, addend: 0x0, symName: __ZN25llm_build_openai_moe_iswaC2ERK11llama_modelRK16llm_graph_params, symObjAddr: 0x5C79C, symBinAddr: 0xB7D74, symSize: 0x594 }
  - { offset: 0x43544C, size: 0x8, addend: 0x0, symName: __ZN19llm_build_falcon_h1C2ERK11llama_modelRK16llm_graph_params, symObjAddr: 0x5CD38, symBinAddr: 0xB8310, symSize: 0x590 }
  - { offset: 0x43596A, size: 0x8, addend: 0x0, symName: __ZN14llm_build_lfm2C2ERK11llama_modelRK16llm_graph_params, symObjAddr: 0x5D2D0, symBinAddr: 0xB88A8, symSize: 0x26C }
  - { offset: 0x435C4D, size: 0x8, addend: 0x0, symName: __ZN22llm_build_smallthinkerILb1EEC2ERK11llama_modelRK16llm_graph_params, symObjAddr: 0x5DF20, symBinAddr: 0xB94F8, symSize: 0x580 }
  - { offset: 0x43600A, size: 0x8, addend: 0x0, symName: __ZN22llm_build_smallthinkerILb1EED1Ev, symObjAddr: 0x5E4A0, symBinAddr: 0xB9A78, symSize: 0x4 }
  - { offset: 0x4360C1, size: 0x8, addend: 0x0, symName: __ZN22llm_build_smallthinkerILb0EEC2ERK11llama_modelRK16llm_graph_params, symObjAddr: 0x5E4A8, symBinAddr: 0xB9A80, symSize: 0x580 }
  - { offset: 0x43647E, size: 0x8, addend: 0x0, symName: __ZN22llm_build_smallthinkerILb0EED1Ev, symObjAddr: 0x5EA28, symBinAddr: 0xBA000, symSize: 0x4 }
  - { offset: 0x43649E, size: 0x8, addend: 0x0, symName: _llama_model_default_params, symObjAddr: 0x29CC0, symBinAddr: 0x8D8B8, symSize: 0x2C }
  - { offset: 0x4364CA, size: 0x8, addend: 0x0, symName: _llama_model_get_vocab, symObjAddr: 0x29CEC, symBinAddr: 0x8D8E4, symSize: 0xC }
  - { offset: 0x43652A, size: 0x8, addend: 0x0, symName: _llama_free_model, symObjAddr: 0x29CF8, symBinAddr: 0x8D8F0, symSize: 0x1C }
  - { offset: 0x436552, size: 0x8, addend: 0x0, symName: _llama_free_model, symObjAddr: 0x29CF8, symBinAddr: 0x8D8F0, symSize: 0x1C }
  - { offset: 0x436598, size: 0x8, addend: 0x0, symName: _llama_model_free, symObjAddr: 0x29D14, symBinAddr: 0x8D90C, symSize: 0x1C }
  - { offset: 0x4365DF, size: 0x8, addend: 0x0, symName: _llama_model_n_ctx_train, symObjAddr: 0x29D30, symBinAddr: 0x8D928, symSize: 0x8 }
  - { offset: 0x4365FD, size: 0x8, addend: 0x0, symName: _llama_model_n_embd, symObjAddr: 0x29D38, symBinAddr: 0x8D930, symSize: 0x8 }
  - { offset: 0x43661B, size: 0x8, addend: 0x0, symName: _llama_model_n_layer, symObjAddr: 0x29D40, symBinAddr: 0x8D938, symSize: 0x8 }
  - { offset: 0x436639, size: 0x8, addend: 0x0, symName: _llama_model_n_head, symObjAddr: 0x29D48, symBinAddr: 0x8D940, symSize: 0xC }
  - { offset: 0x436657, size: 0x8, addend: 0x0, symName: _llama_model_n_head_kv, symObjAddr: 0x29D54, symBinAddr: 0x8D94C, symSize: 0xC }
  - { offset: 0x436683, size: 0x8, addend: 0x0, symName: _llama_model_n_swa, symObjAddr: 0x29D60, symBinAddr: 0x8D958, symSize: 0x8 }
  - { offset: 0x4366AF, size: 0x8, addend: 0x0, symName: _llama_model_n_cls_out, symObjAddr: 0x29D68, symBinAddr: 0x8D960, symSize: 0x8 }
  - { offset: 0x4366FD, size: 0x8, addend: 0x0, symName: _llama_model_cls_label, symObjAddr: 0x29D70, symBinAddr: 0x8D968, symSize: 0x4C }
  - { offset: 0x43680E, size: 0x8, addend: 0x0, symName: _llama_n_ctx_train, symObjAddr: 0x29DBC, symBinAddr: 0x8D9B4, symSize: 0x8 }
  - { offset: 0x43683C, size: 0x8, addend: 0x0, symName: _llama_n_ctx_train, symObjAddr: 0x29DBC, symBinAddr: 0x8D9B4, symSize: 0x8 }
  - { offset: 0x436872, size: 0x8, addend: 0x0, symName: _llama_n_embd, symObjAddr: 0x29DC4, symBinAddr: 0x8D9BC, symSize: 0x8 }
  - { offset: 0x4368A0, size: 0x8, addend: 0x0, symName: _llama_n_embd, symObjAddr: 0x29DC4, symBinAddr: 0x8D9BC, symSize: 0x8 }
  - { offset: 0x4368D6, size: 0x8, addend: 0x0, symName: _llama_n_layer, symObjAddr: 0x29DCC, symBinAddr: 0x8D9C4, symSize: 0x8 }
  - { offset: 0x436904, size: 0x8, addend: 0x0, symName: _llama_n_layer, symObjAddr: 0x29DCC, symBinAddr: 0x8D9C4, symSize: 0x8 }
  - { offset: 0x43693A, size: 0x8, addend: 0x0, symName: _llama_n_head, symObjAddr: 0x29DD4, symBinAddr: 0x8D9CC, symSize: 0xC }
  - { offset: 0x436968, size: 0x8, addend: 0x0, symName: _llama_n_head, symObjAddr: 0x29DD4, symBinAddr: 0x8D9CC, symSize: 0xC }
  - { offset: 0x436985, size: 0x8, addend: 0x0, symName: _llama_model_rope_freq_scale_train, symObjAddr: 0x29DE0, symBinAddr: 0x8D9D8, symSize: 0x8 }
  - { offset: 0x4369D6, size: 0x8, addend: 0x0, symName: _llama_model_meta_val_str, symObjAddr: 0x29DE8, symBinAddr: 0x8D9E0, symSize: 0x140 }
  - { offset: 0x436F9F, size: 0x8, addend: 0x0, symName: __ZNKSt3__112__hash_tableINS_17__hash_value_typeINS_12basic_stringIcNS_11char_traitsIcEENS_9allocatorIcEEEES7_EENS_22__unordered_map_hasherIS7_S8_NS_4hashIS7_EENS_8equal_toIS7_EELb1EEENS_21__unordered_map_equalIS7_S8_SD_SB_Lb1EEENS5_IS8_EEE4findIS7_EENS_21__hash_const_iteratorIPNS_11__hash_nodeIS8_PvEEEERKT_, symObjAddr: 0x5EA30, symBinAddr: 0xBA008, symSize: 0x1B4 }
  - { offset: 0x4372F7, size: 0x8, addend: 0x0, symName: _llama_model_meta_count, symObjAddr: 0x29F28, symBinAddr: 0x8DB20, symSize: 0x8 }
  - { offset: 0x437325, size: 0x8, addend: 0x0, symName: _llama_model_meta_count, symObjAddr: 0x29F28, symBinAddr: 0x8DB20, symSize: 0x8 }
  - { offset: 0x437344, size: 0x8, addend: 0x0, symName: _llama_model_meta_count, symObjAddr: 0x29F28, symBinAddr: 0x8DB20, symSize: 0x8 }
  - { offset: 0x437413, size: 0x8, addend: 0x0, symName: _llama_model_meta_key_by_index, symObjAddr: 0x29F30, symBinAddr: 0x8DB28, symSize: 0x84 }
  - { offset: 0x43764D, size: 0x8, addend: 0x0, symName: _llama_model_meta_val_str_by_index, symObjAddr: 0x29FB4, symBinAddr: 0x8DBAC, symSize: 0x84 }
  - { offset: 0x437857, size: 0x8, addend: 0x0, symName: _llama_model_desc, symObjAddr: 0x2A038, symBinAddr: 0x8DC30, symSize: 0xAC }
  - { offset: 0x437B0C, size: 0x8, addend: 0x0, symName: _llama_model_size, symObjAddr: 0x2A0E4, symBinAddr: 0x8DCDC, symSize: 0xC }
  - { offset: 0x437B3A, size: 0x8, addend: 0x0, symName: _llama_model_size, symObjAddr: 0x2A0E4, symBinAddr: 0x8DCDC, symSize: 0xC }
  - { offset: 0x437B56, size: 0x8, addend: 0x0, symName: _llama_model_size, symObjAddr: 0x2A0E4, symBinAddr: 0x8DCDC, symSize: 0xC }
  - { offset: 0x437B75, size: 0x8, addend: 0x0, symName: _llama_model_chat_template, symObjAddr: 0x2A0F0, symBinAddr: 0x8DCE8, symSize: 0x134 }
  - { offset: 0x437ED1, size: 0x8, addend: 0x0, symName: _llama_model_n_params, symObjAddr: 0x2A224, symBinAddr: 0x8DE1C, symSize: 0xC }
  - { offset: 0x437EFF, size: 0x8, addend: 0x0, symName: _llama_model_n_params, symObjAddr: 0x2A224, symBinAddr: 0x8DE1C, symSize: 0xC }
  - { offset: 0x437F1B, size: 0x8, addend: 0x0, symName: _llama_model_n_params, symObjAddr: 0x2A224, symBinAddr: 0x8DE1C, symSize: 0xC }
  - { offset: 0x437F3A, size: 0x8, addend: 0x0, symName: _llama_model_has_encoder, symObjAddr: 0x2A230, symBinAddr: 0x8DE28, symSize: 0x14 }
  - { offset: 0x437F66, size: 0x8, addend: 0x0, symName: _llama_model_has_decoder, symObjAddr: 0x2A244, symBinAddr: 0x8DE3C, symSize: 0x10 }
  - { offset: 0x437F92, size: 0x8, addend: 0x0, symName: _llama_model_decoder_start_token, symObjAddr: 0x2A254, symBinAddr: 0x8DE4C, symSize: 0x8 }
  - { offset: 0x437FBE, size: 0x8, addend: 0x0, symName: _llama_model_is_recurrent, symObjAddr: 0x2A25C, symBinAddr: 0x8DE54, symSize: 0x8 }
  - { offset: 0x437FF8, size: 0x8, addend: 0x0, symName: _llama_model_is_diffusion, symObjAddr: 0x2A264, symBinAddr: 0x8DE5C, symSize: 0x8 }
  - { offset: 0x438048, size: 0x8, addend: 0x0, symName: __Z29llama_internal_get_tensor_mapPK11llama_model, symObjAddr: 0x2A26C, symBinAddr: 0x8DE64, symSize: 0xC }
  - { offset: 0x4386D1, size: 0x8, addend: 0x0, symName: __ZNSt3__111basic_regexIcNS_12regex_traitsIcEEE7__parseIPKcEET_S7_S7_, symObjAddr: 0x2AC10, symBinAddr: 0x8E62C, symSize: 0x340 }
  - { offset: 0x43960A, size: 0x8, addend: 0x0, symName: __ZNSt3__111basic_regexIcNS_12regex_traitsIcEEE13__parse_egrepIPKcEET_S7_S7_, symObjAddr: 0x2B5BC, symBinAddr: 0x8EF8C, symSize: 0x1A0 }
  - { offset: 0x439B57, size: 0x8, addend: 0x0, symName: __ZNSt3__111basic_regexIcNS_12regex_traitsIcEEE24__parse_extended_reg_expIPKcEET_S7_S7_, symObjAddr: 0x2B2C0, symBinAddr: 0x8EC90, symSize: 0x15C }
  - { offset: 0x439E77, size: 0x8, addend: 0x0, symName: __ZNSt3__111basic_regexIcNS_12regex_traitsIcEEE12__parse_grepIPKcEET_S7_S7_, symObjAddr: 0x2B41C, symBinAddr: 0x8EDEC, symSize: 0x1A0 }
  - { offset: 0x439E8B, size: 0x8, addend: 0x0, symName: __ZNSt3__111basic_regexIcNS_12regex_traitsIcEEE21__parse_basic_reg_expIPKcEET_S7_S7_, symObjAddr: 0x2B148, symBinAddr: 0x8EB18, symSize: 0x178 }
  - { offset: 0x43A1E7, size: 0x8, addend: 0x0, symName: __ZNSt3__111basic_regexIcNS_12regex_traitsIcEEE24__parse_extended_reg_expIPKcEET_S7_S7_, symObjAddr: 0x2B2C0, symBinAddr: 0x8EC90, symSize: 0x15C }
  - { offset: 0x43A1FB, size: 0x8, addend: 0x0, symName: __ZNSt3__111basic_regexIcNS_12regex_traitsIcEEE12__parse_grepIPKcEET_S7_S7_, symObjAddr: 0x2B41C, symBinAddr: 0x8EDEC, symSize: 0x1A0 }
  - { offset: 0x43A748, size: 0x8, addend: 0x0, symName: __ZNSt3__111basic_regexIcNS_12regex_traitsIcEEE19__parse_alternativeIPKcEET_S7_S7_, symObjAddr: 0x2B990, symBinAddr: 0x8F12C, symSize: 0xA0 }
  - { offset: 0x43A88D, size: 0x8, addend: 0x0, symName: __ZNSt3__111basic_regexIcNS_12regex_traitsIcEEE16__parse_ecma_expIPKcEET_S7_S7_, symObjAddr: 0x2AF9C, symBinAddr: 0x8E96C, symSize: 0x1AC }
  - { offset: 0x43AC7F, size: 0x8, addend: 0x0, symName: __ZNSt3__111basic_regexIcNS_12regex_traitsIcEEE12__parse_termIPKcEET_S7_S7_, symObjAddr: 0x2BA30, symBinAddr: 0x8F1CC, symSize: 0x94 }
  - { offset: 0x43AF11, size: 0x8, addend: 0x0, symName: __ZNSt3__111basic_regexIcNS_12regex_traitsIcEEE18__parse_nondupl_REIPKcEET_S7_S7_, symObjAddr: 0x32C58, symBinAddr: 0x91640, symSize: 0x2F8 }
  - { offset: 0x43B59D, size: 0x8, addend: 0x0, symName: __ZNSt3__111basic_regexIcNS_12regex_traitsIcEEE22__parse_RE_dupl_symbolIPKcEET_S7_S7_PNS_16__owns_one_stateIcEEjj, symObjAddr: 0x32F50, symBinAddr: 0x91938, symSize: 0x274 }
  - { offset: 0x43B5B1, size: 0x8, addend: 0x0, symName: __ZNSt3__111basic_regexIcNS_12regex_traitsIcEEE22__parse_RE_dupl_symbolIPKcEET_S7_S7_PNS_16__owns_one_stateIcEEjj, symObjAddr: 0x32F50, symBinAddr: 0x91938, symSize: 0x274 }
  - { offset: 0x43BB60, size: 0x8, addend: 0x0, symName: __ZNSt3__111basic_regexIcNS_12regex_traitsIcEEE22__parse_ERE_expressionIPKcEET_S7_S7_, symObjAddr: 0x332F4, symBinAddr: 0x91BAC, symSize: 0x1F0 }
  - { offset: 0x43BEE8, size: 0x8, addend: 0x0, symName: __ZNSt3__111basic_regexIcNS_12regex_traitsIcEEE33__parse_one_char_or_coll_elem_EREIPKcEET_S7_S7_, symObjAddr: 0x334E4, symBinAddr: 0x91D9C, symSize: 0x158 }
  - { offset: 0x43BFCD, size: 0x8, addend: 0x0, symName: __ZNSt3__111basic_regexIcNS_12regex_traitsIcEEE23__parse_ERE_dupl_symbolIPKcEET_S7_S7_PNS_16__owns_one_stateIcEEjj, symObjAddr: 0x2C078, symBinAddr: 0x8F814, symSize: 0x3E4 }
  - { offset: 0x43C56C, size: 0x8, addend: 0x0, symName: __ZNSt3__111basic_regexIcNS_12regex_traitsIcEEE17__parse_assertionIPKcEET_S7_S7_, symObjAddr: 0x2BAC4, symBinAddr: 0x8F260, symSize: 0x37C }
  - { offset: 0x43CB82, size: 0x8, addend: 0x0, symName: __ZNSt3__111basic_regexIcNS_12regex_traitsIcEEE12__parse_atomIPKcEET_S7_S7_, symObjAddr: 0x2BE40, symBinAddr: 0x8F5DC, symSize: 0x238 }
  - { offset: 0x43CEE3, size: 0x8, addend: 0x0, symName: __ZNSt3__111basic_regexIcNS_12regex_traitsIcEEE23__parse_ERE_dupl_symbolIPKcEET_S7_S7_PNS_16__owns_one_stateIcEEjj, symObjAddr: 0x2C078, symBinAddr: 0x8F814, symSize: 0x3E4 }
  - { offset: 0x43D362, size: 0x8, addend: 0x0, symName: __ZNSt3__111basic_regexIcNS_12regex_traitsIcEEE26__parse_bracket_expressionIPKcEET_S7_S7_, symObjAddr: 0x2DCEC, symBinAddr: 0x8FD78, symSize: 0x160 }
  - { offset: 0x43D536, size: 0x8, addend: 0x0, symName: __ZNSt3__111basic_regexIcNS_12regex_traitsIcEEE19__parse_atom_escapeIPKcEET_S7_S7_, symObjAddr: 0x2DB6C, symBinAddr: 0x8FBF8, symSize: 0x180 }
  - { offset: 0x43D6C2, size: 0x8, addend: 0x0, symName: __ZNSt3__111basic_regexIcNS_12regex_traitsIcEEE26__parse_bracket_expressionIPKcEET_S7_S7_, symObjAddr: 0x2DCEC, symBinAddr: 0x8FD78, symSize: 0x160 }
  - { offset: 0x43D6D6, size: 0x8, addend: 0x0, symName: __ZNSt3__111basic_regexIcNS_12regex_traitsIcEEE25__parse_pattern_characterIPKcEET_S7_S7_, symObjAddr: 0x2DE98, symBinAddr: 0x8FED8, symSize: 0x7C }
  - { offset: 0x441A3B, size: 0x8, addend: 0x0, symName: __ZNSt3__111basic_regexIcNS_12regex_traitsIcEEE30__parse_character_class_escapeIPKcEET_S7_S7_, symObjAddr: 0x2DFF0, symBinAddr: 0x8FF54, symSize: 0x25C }
  - { offset: 0x441E96, size: 0x8, addend: 0x0, symName: __ZNSt3__111basic_regexIcNS_12regex_traitsIcEEE24__parse_character_escapeIPKcEET_S7_S7_PNS_12basic_stringIcNS_11char_traitsIcEENS_9allocatorIcEEEE, symObjAddr: 0x2E24C, symBinAddr: 0x901B0, symSize: 0x40C }
  - { offset: 0x4429A8, size: 0x8, addend: 0x0, symName: __ZNSt3__111basic_regexIcNS_12regex_traitsIcEEE23__parse_expression_termIPKcEET_S7_S7_PNS_20__bracket_expressionIcS2_EE, symObjAddr: 0x30384, symBinAddr: 0x905BC, symSize: 0x54C }
  - { offset: 0x444CDD, size: 0x8, addend: 0x0, symName: __ZNSt3__111basic_regexIcNS_12regex_traitsIcEEE25__parse_equivalence_classIPKcEET_S7_S7_PNS_20__bracket_expressionIcS2_EE, symObjAddr: 0x308D0, symBinAddr: 0x90B08, symSize: 0x270 }
  - { offset: 0x445751, size: 0x8, addend: 0x0, symName: __ZNSt3__111basic_regexIcNS_12regex_traitsIcEEE18__parse_awk_escapeIPKcEET_S7_S7_PNS_12basic_stringIcNS_11char_traitsIcEENS_9allocatorIcEEEE, symObjAddr: 0x30D94, symBinAddr: 0x90FCC, symSize: 0x2E4 }
  - { offset: 0x445876, size: 0x8, addend: 0x0, symName: __ZNSt3__111basic_regexIcNS_12regex_traitsIcEEE24__parse_collating_symbolIPKcEET_S7_S7_RNS_12basic_stringIcNS_11char_traitsIcEENS_9allocatorIcEEEE, symObjAddr: 0x30B40, symBinAddr: 0x90D78, symSize: 0xD0 }
  - { offset: 0x445BEC, size: 0x8, addend: 0x0, symName: __ZNSt3__111basic_regexIcNS_12regex_traitsIcEEE20__parse_class_escapeIPKcEET_S7_S7_RNS_12basic_stringIcNS_11char_traitsIcEENS_9allocatorIcEEEEPNS_20__bracket_expressionIcS2_EE, symObjAddr: 0x30C10, symBinAddr: 0x90E48, symSize: 0x184 }
  - { offset: 0x445BF7, size: 0x8, addend: 0x0, symName: __ZNKSt3__112regex_traitsIcE20__lookup_collatenameIPKcEENS_12basic_stringIcNS_11char_traitsIcEENS_9allocatorIcEEEET_SB_c, symObjAddr: 0x3171C, symBinAddr: 0x912B0, symSize: 0x23C }
  - { offset: 0x4466F2, size: 0x8, addend: 0x0, symName: __ZNKSt3__112regex_traitsIcE18__lookup_classnameIPKcEEjT_S5_bc, symObjAddr: 0x31D0C, symBinAddr: 0x914EC, symSize: 0x154 }
  - { offset: 0x4473F1, size: 0x8, addend: 0x0, symName: __ZNSt3__111basic_regexIcNS_12regex_traitsIcEEE20__parse_class_escapeIPKcEET_S7_S7_RNS_12basic_stringIcNS_11char_traitsIcEENS_9allocatorIcEEEEPNS_20__bracket_expressionIcS2_EE, symObjAddr: 0x30C10, symBinAddr: 0x90E48, symSize: 0x184 }
  - { offset: 0x447589, size: 0x8, addend: 0x0, symName: __ZNSt3__111basic_regexIcNS_12regex_traitsIcEEE18__parse_awk_escapeIPKcEET_S7_S7_PNS_12basic_stringIcNS_11char_traitsIcEENS_9allocatorIcEEEE, symObjAddr: 0x30D94, symBinAddr: 0x90FCC, symSize: 0x2E4 }
  - { offset: 0x44A6C9, size: 0x8, addend: 0x0, symName: __ZNSt3__111basic_regexIcNS_12regex_traitsIcEEE22__parse_ERE_expressionIPKcEET_S7_S7_, symObjAddr: 0x332F4, symBinAddr: 0x91BAC, symSize: 0x1F0 }
  - { offset: 0x44A6D4, size: 0x8, addend: 0x0, symName: __ZNSt3__111basic_regexIcNS_12regex_traitsIcEEE33__parse_one_char_or_coll_elem_EREIPKcEET_S7_S7_, symObjAddr: 0x334E4, symBinAddr: 0x91D9C, symSize: 0x158 }
  - { offset: 0x44A8BD, size: 0x8, addend: 0x0, symName: __ZNSt3__111basic_regexIcNS_12regex_traitsIcEEE23__parse_QUOTED_CHAR_EREIPKcEET_S7_S7_, symObjAddr: 0x3363C, symBinAddr: 0x91EF4, symSize: 0xD8 }
  - { offset: 0x450A75, size: 0x8, addend: 0x0, symName: __ZNSt3__13mapI23llama_rope_scaling_typePKcNS_4lessIS1_EENS_9allocatorINS_4pairIKS1_S3_EEEEEC2B8ne200100ESt16initializer_listIS9_ERKS5_, symObjAddr: 0x36364, symBinAddr: 0x91FCC, symSize: 0xF0 }
  - { offset: 0x450DED, size: 0x8, addend: 0x0, symName: __ZNSt3__16__treeINS_12__value_typeI23llama_rope_scaling_typePKcEENS_19__map_value_compareIS2_S5_NS_4lessIS2_EELb1EEENS_9allocatorIS5_EEE12__find_equalIS2_EERPNS_16__tree_node_baseIPvEENS_21__tree_const_iteratorIS5_PNS_11__tree_nodeIS5_SF_EElEERPNS_15__tree_end_nodeISH_EESI_RKT_, symObjAddr: 0x36454, symBinAddr: 0x920BC, symSize: 0x1B0 }
  - { offset: 0x450E50, size: 0x8, addend: 0x0, symName: __ZNSt3__16__treeINS_12__value_typeI23llama_rope_scaling_typePKcEENS_19__map_value_compareIS2_S5_NS_4lessIS2_EELb1EEENS_9allocatorIS5_EEE12__find_equalIS2_EERPNS_16__tree_node_baseIPvEENS_21__tree_const_iteratorIS5_PNS_11__tree_nodeIS5_SF_EElEERPNS_15__tree_end_nodeISH_EESI_RKT_, symObjAddr: 0x36454, symBinAddr: 0x920BC, symSize: 0x1B0 }
  - { offset: 0x450E6C, size: 0x8, addend: 0x0, symName: __ZNSt3__16__treeINS_12__value_typeI23llama_rope_scaling_typePKcEENS_19__map_value_compareIS2_S5_NS_4lessIS2_EELb1EEENS_9allocatorIS5_EEE12__find_equalIS2_EERPNS_16__tree_node_baseIPvEENS_21__tree_const_iteratorIS5_PNS_11__tree_nodeIS5_SF_EElEERPNS_15__tree_end_nodeISH_EESI_RKT_, symObjAddr: 0x36454, symBinAddr: 0x920BC, symSize: 0x1B0 }
  - { offset: 0x451893, size: 0x8, addend: 0x0, symName: __ZNSt3__16__treeINS_12__value_typeIP19ggml_backend_deviceNS_6vectorINS_4pairIS3_P24ggml_backend_buffer_typeEENS_9allocatorIS8_EEEEEENS_19__map_value_compareIS3_SC_NS_4lessIS3_EELb1EEENS9_ISC_EEE7destroyEPNS_11__tree_nodeISC_PvEE, symObjAddr: 0x36828, symBinAddr: 0x92490, symSize: 0x50 }
  - { offset: 0x451FA8, size: 0x8, addend: 0x0, symName: __ZNSt3__14pairIKNS_12basic_stringIcNS_11char_traitsIcEENS_9allocatorIcEEEES6_EC2B8ne200100IRPKcRS7_Li0EEEOT_OT0_, symObjAddr: 0x36B90, symBinAddr: 0x927C4, symSize: 0x108 }
  - { offset: 0x452A21, size: 0x8, addend: 0x0, symName: __ZNSt3__112__hash_tableINS_17__hash_value_typeINS_12basic_stringIcNS_11char_traitsIcEENS_9allocatorIcEEEES7_EENS_22__unordered_map_hasherIS7_S8_NS_4hashIS7_EENS_8equal_toIS7_EELb1EEENS_21__unordered_map_equalIS7_S8_SD_SB_Lb1EEENS5_IS8_EEE20__node_insert_uniqueEPNS_11__hash_nodeIS8_PvEE, symObjAddr: 0x369E0, symBinAddr: 0x92614, symSize: 0x144 }
  - { offset: 0x452C94, size: 0x8, addend: 0x0, symName: __ZNSt3__110unique_ptrINS_11__hash_nodeINS_17__hash_value_typeINS_12basic_stringIcNS_11char_traitsIcEENS_9allocatorIcEEEES8_EEPvEENS_22__hash_node_destructorINS6_ISB_EEEEED1B8ne200100Ev, symObjAddr: 0x36B24, symBinAddr: 0x92758, symSize: 0x6C }
  - { offset: 0x4530B0, size: 0x8, addend: 0x0, symName: __ZNSt3__112__hash_tableINS_17__hash_value_typeINS_12basic_stringIcNS_11char_traitsIcEENS_9allocatorIcEEEES7_EENS_22__unordered_map_hasherIS7_S8_NS_4hashIS7_EENS_8equal_toIS7_EELb1EEENS_21__unordered_map_equalIS7_S8_SD_SB_Lb1EEENS5_IS8_EEE28__node_insert_unique_prepareB8ne200100EmRS8_, symObjAddr: 0x370E4, symBinAddr: 0x928CC, symSize: 0x2A4 }
  - { offset: 0x45371C, size: 0x8, addend: 0x0, symName: __ZNSt3__112__hash_tableINS_17__hash_value_typeINS_12basic_stringIcNS_11char_traitsIcEENS_9allocatorIcEEEES7_EENS_22__unordered_map_hasherIS7_S8_NS_4hashIS7_EENS_8equal_toIS7_EELb1EEENS_21__unordered_map_equalIS7_S8_SD_SB_Lb1EEENS5_IS8_EEE11__do_rehashILb1EEEvm, symObjAddr: 0x37388, symBinAddr: 0x92B70, symSize: 0x180 }
  - { offset: 0x45422F, size: 0x8, addend: 0x0, symName: __ZNSt3__16vectorIN11llama_model4impl9layer_devENS_9allocatorIS3_EEE20__throw_length_errorB8ne200100Ev, symObjAddr: 0x37C04, symBinAddr: 0x93350, symSize: 0x14 }
  - { offset: 0x454599, size: 0x8, addend: 0x0, symName: __ZNSt3__16vectorI11llama_layerNS_9allocatorIS1_EEE20__throw_length_errorB8ne200100Ev, symObjAddr: 0x37E14, symBinAddr: 0x9351C, symSize: 0x14 }
  - { offset: 0x4547FB, size: 0x8, addend: 0x0, symName: __ZNSt3__112__hash_tableINS_17__hash_value_typeIjP19ggml_backend_bufferEENS_22__unordered_map_hasherIjS4_NS_4hashIjEENS_8equal_toIjEELb1EEENS_21__unordered_map_equalIjS4_S9_S7_Lb1EEENS_9allocatorIS4_EEED1Ev, symObjAddr: 0x38020, symBinAddr: 0x93700, symSize: 0x48 }
  - { offset: 0x45509B, size: 0x8, addend: 0x0, symName: __ZNSt3__112__hash_tableINS_17__hash_value_typeIjP19ggml_backend_bufferEENS_22__unordered_map_hasherIjS4_NS_4hashIjEENS_8equal_toIjEELb1EEENS_21__unordered_map_equalIjS4_S9_S7_Lb1EEENS_9allocatorIS4_EEE25__emplace_unique_key_argsIjJRKNS_4pairIKjS3_EEEEENSH_INS_15__hash_iteratorIPNS_11__hash_nodeIS4_PvEEEEbEERKT_DpOT0_, symObjAddr: 0x387AC, symBinAddr: 0x93E78, symSize: 0x304 }
  - { offset: 0x45588A, size: 0x8, addend: 0x0, symName: '__ZNSt3__110__function6__funcIZNK11llama_model10print_infoEvE3$_0NS_9allocatorIS3_EEFjjEED1Ev', symObjAddr: 0x38B28, symBinAddr: 0x941F4, symSize: 0x4 }
  - { offset: 0x4558B6, size: 0x8, addend: 0x0, symName: '__ZNSt3__110__function6__funcIZNK11llama_model10print_infoEvE3$_0NS_9allocatorIS3_EEFjjEED0Ev', symObjAddr: 0x38B2C, symBinAddr: 0x941F8, symSize: 0x4 }
  - { offset: 0x45596C, size: 0x8, addend: 0x0, symName: '__ZNKSt3__110__function6__funcIZNK11llama_model10print_infoEvE3$_0NS_9allocatorIS3_EEFjjEE7__cloneEv', symObjAddr: 0x38B30, symBinAddr: 0x941FC, symSize: 0x34 }
  - { offset: 0x455ABE, size: 0x8, addend: 0x0, symName: '__ZNKSt3__110__function6__funcIZNK11llama_model10print_infoEvE3$_0NS_9allocatorIS3_EEFjjEE7__cloneEPNS0_6__baseIS6_EE', symObjAddr: 0x38B64, symBinAddr: 0x94230, symSize: 0x14 }
  - { offset: 0x455B2B, size: 0x8, addend: 0x0, symName: '__ZNSt3__110__function6__funcIZNK11llama_model10print_infoEvE3$_0NS_9allocatorIS3_EEFjjEE7destroyEv', symObjAddr: 0x38B78, symBinAddr: 0x94244, symSize: 0x4 }
  - { offset: 0x455B7F, size: 0x8, addend: 0x0, symName: '__ZNSt3__110__function6__funcIZNK11llama_model10print_infoEvE3$_0NS_9allocatorIS3_EEFjjEE18destroy_deallocateEv', symObjAddr: 0x38B7C, symBinAddr: 0x94248, symSize: 0x4 }
  - { offset: 0x455BB4, size: 0x8, addend: 0x0, symName: '__ZNSt3__110__function6__funcIZNK11llama_model10print_infoEvE3$_0NS_9allocatorIS3_EEFjjEE18destroy_deallocateEv', symObjAddr: 0x38B7C, symBinAddr: 0x94248, symSize: 0x4 }
  - { offset: 0x455BD7, size: 0x8, addend: 0x0, symName: '__ZNSt3__110__function6__funcIZNK11llama_model10print_infoEvE3$_0NS_9allocatorIS3_EEFjjEE18destroy_deallocateEv', symObjAddr: 0x38B7C, symBinAddr: 0x94248, symSize: 0x4 }
  - { offset: 0x455C0A, size: 0x8, addend: 0x0, symName: '__ZNSt3__110__function6__funcIZNK11llama_model10print_infoEvE3$_0NS_9allocatorIS3_EEFjjEE18destroy_deallocateEv', symObjAddr: 0x38B7C, symBinAddr: 0x94248, symSize: 0x4 }
  - { offset: 0x455CAC, size: 0x8, addend: 0x0, symName: '__ZNSt3__110__function6__funcIZNK11llama_model10print_infoEvE3$_0NS_9allocatorIS3_EEFjjEEclEOj', symObjAddr: 0x38B80, symBinAddr: 0x9424C, symSize: 0x10 }
  - { offset: 0x455D55, size: 0x8, addend: 0x0, symName: '__ZNKSt3__110__function6__funcIZNK11llama_model10print_infoEvE3$_0NS_9allocatorIS3_EEFjjEE6targetERKSt9type_info', symObjAddr: 0x38B90, symBinAddr: 0x9425C, symSize: 0x64 }
  - { offset: 0x455E09, size: 0x8, addend: 0x0, symName: '__ZNKSt3__110__function6__funcIZNK11llama_model10print_infoEvE3$_0NS_9allocatorIS3_EEFjjEE11target_typeEv', symObjAddr: 0x38BF4, symBinAddr: 0x942C0, symSize: 0xC }
  - { offset: 0x455E2C, size: 0x8, addend: 0x0, symName: '__ZNSt3__110__function6__funcIZNK11llama_model10print_infoEvE3$_1NS_9allocatorIS3_EEFjjEED1Ev', symObjAddr: 0x38C00, symBinAddr: 0x942CC, symSize: 0x4 }
  - { offset: 0x455E58, size: 0x8, addend: 0x0, symName: '__ZNSt3__110__function6__funcIZNK11llama_model10print_infoEvE3$_1NS_9allocatorIS3_EEFjjEED0Ev', symObjAddr: 0x38C04, symBinAddr: 0x942D0, symSize: 0x4 }
  - { offset: 0x455F0E, size: 0x8, addend: 0x0, symName: '__ZNKSt3__110__function6__funcIZNK11llama_model10print_infoEvE3$_1NS_9allocatorIS3_EEFjjEE7__cloneEv', symObjAddr: 0x38C08, symBinAddr: 0x942D4, symSize: 0x34 }
  - { offset: 0x456060, size: 0x8, addend: 0x0, symName: '__ZNKSt3__110__function6__funcIZNK11llama_model10print_infoEvE3$_1NS_9allocatorIS3_EEFjjEE7__cloneEPNS0_6__baseIS6_EE', symObjAddr: 0x38C3C, symBinAddr: 0x94308, symSize: 0x14 }
  - { offset: 0x4560CD, size: 0x8, addend: 0x0, symName: '__ZNSt3__110__function6__funcIZNK11llama_model10print_infoEvE3$_1NS_9allocatorIS3_EEFjjEE7destroyEv', symObjAddr: 0x38C50, symBinAddr: 0x9431C, symSize: 0x4 }
  - { offset: 0x456121, size: 0x8, addend: 0x0, symName: '__ZNSt3__110__function6__funcIZNK11llama_model10print_infoEvE3$_1NS_9allocatorIS3_EEFjjEE18destroy_deallocateEv', symObjAddr: 0x38C54, symBinAddr: 0x94320, symSize: 0x4 }
  - { offset: 0x456156, size: 0x8, addend: 0x0, symName: '__ZNSt3__110__function6__funcIZNK11llama_model10print_infoEvE3$_1NS_9allocatorIS3_EEFjjEE18destroy_deallocateEv', symObjAddr: 0x38C54, symBinAddr: 0x94320, symSize: 0x4 }
  - { offset: 0x456179, size: 0x8, addend: 0x0, symName: '__ZNSt3__110__function6__funcIZNK11llama_model10print_infoEvE3$_1NS_9allocatorIS3_EEFjjEE18destroy_deallocateEv', symObjAddr: 0x38C54, symBinAddr: 0x94320, symSize: 0x4 }
  - { offset: 0x4561AC, size: 0x8, addend: 0x0, symName: '__ZNSt3__110__function6__funcIZNK11llama_model10print_infoEvE3$_1NS_9allocatorIS3_EEFjjEE18destroy_deallocateEv', symObjAddr: 0x38C54, symBinAddr: 0x94320, symSize: 0x4 }
  - { offset: 0x45624E, size: 0x8, addend: 0x0, symName: '__ZNSt3__110__function6__funcIZNK11llama_model10print_infoEvE3$_1NS_9allocatorIS3_EEFjjEEclEOj', symObjAddr: 0x38C58, symBinAddr: 0x94324, symSize: 0x10 }
  - { offset: 0x4562F7, size: 0x8, addend: 0x0, symName: '__ZNKSt3__110__function6__funcIZNK11llama_model10print_infoEvE3$_1NS_9allocatorIS3_EEFjjEE6targetERKSt9type_info', symObjAddr: 0x38C68, symBinAddr: 0x94334, symSize: 0x64 }
  - { offset: 0x4563AB, size: 0x8, addend: 0x0, symName: '__ZNKSt3__110__function6__funcIZNK11llama_model10print_infoEvE3$_1NS_9allocatorIS3_EEFjjEE11target_typeEv', symObjAddr: 0x38CCC, symBinAddr: 0x94398, symSize: 0xC }
  - { offset: 0x4563CE, size: 0x8, addend: 0x0, symName: '__ZNSt3__110__function6__funcIZNK11llama_model10print_infoEvE3$_2NS_9allocatorIS3_EEFjjEED1Ev', symObjAddr: 0x38CD8, symBinAddr: 0x943A4, symSize: 0x4 }
  - { offset: 0x4563FA, size: 0x8, addend: 0x0, symName: '__ZNSt3__110__function6__funcIZNK11llama_model10print_infoEvE3$_2NS_9allocatorIS3_EEFjjEED0Ev', symObjAddr: 0x38CDC, symBinAddr: 0x943A8, symSize: 0x4 }
  - { offset: 0x4564B0, size: 0x8, addend: 0x0, symName: '__ZNKSt3__110__function6__funcIZNK11llama_model10print_infoEvE3$_2NS_9allocatorIS3_EEFjjEE7__cloneEv', symObjAddr: 0x38CE0, symBinAddr: 0x943AC, symSize: 0x34 }
  - { offset: 0x456602, size: 0x8, addend: 0x0, symName: '__ZNKSt3__110__function6__funcIZNK11llama_model10print_infoEvE3$_2NS_9allocatorIS3_EEFjjEE7__cloneEPNS0_6__baseIS6_EE', symObjAddr: 0x38D14, symBinAddr: 0x943E0, symSize: 0x14 }
  - { offset: 0x45666F, size: 0x8, addend: 0x0, symName: '__ZNSt3__110__function6__funcIZNK11llama_model10print_infoEvE3$_2NS_9allocatorIS3_EEFjjEE7destroyEv', symObjAddr: 0x38D28, symBinAddr: 0x943F4, symSize: 0x4 }
  - { offset: 0x4566C3, size: 0x8, addend: 0x0, symName: '__ZNSt3__110__function6__funcIZNK11llama_model10print_infoEvE3$_2NS_9allocatorIS3_EEFjjEE18destroy_deallocateEv', symObjAddr: 0x38D2C, symBinAddr: 0x943F8, symSize: 0x4 }
  - { offset: 0x4566F8, size: 0x8, addend: 0x0, symName: '__ZNSt3__110__function6__funcIZNK11llama_model10print_infoEvE3$_2NS_9allocatorIS3_EEFjjEE18destroy_deallocateEv', symObjAddr: 0x38D2C, symBinAddr: 0x943F8, symSize: 0x4 }
  - { offset: 0x45671B, size: 0x8, addend: 0x0, symName: '__ZNSt3__110__function6__funcIZNK11llama_model10print_infoEvE3$_2NS_9allocatorIS3_EEFjjEE18destroy_deallocateEv', symObjAddr: 0x38D2C, symBinAddr: 0x943F8, symSize: 0x4 }
  - { offset: 0x45674E, size: 0x8, addend: 0x0, symName: '__ZNSt3__110__function6__funcIZNK11llama_model10print_infoEvE3$_2NS_9allocatorIS3_EEFjjEE18destroy_deallocateEv', symObjAddr: 0x38D2C, symBinAddr: 0x943F8, symSize: 0x4 }
  - { offset: 0x4567F0, size: 0x8, addend: 0x0, symName: '__ZNSt3__110__function6__funcIZNK11llama_model10print_infoEvE3$_2NS_9allocatorIS3_EEFjjEEclEOj', symObjAddr: 0x38D30, symBinAddr: 0x943FC, symSize: 0x10 }
  - { offset: 0x456899, size: 0x8, addend: 0x0, symName: '__ZNKSt3__110__function6__funcIZNK11llama_model10print_infoEvE3$_2NS_9allocatorIS3_EEFjjEE6targetERKSt9type_info', symObjAddr: 0x38D40, symBinAddr: 0x9440C, symSize: 0x64 }
  - { offset: 0x45694D, size: 0x8, addend: 0x0, symName: '__ZNKSt3__110__function6__funcIZNK11llama_model10print_infoEvE3$_2NS_9allocatorIS3_EEFjjEE11target_typeEv', symObjAddr: 0x38DA4, symBinAddr: 0x94470, symSize: 0xC }
  - { offset: 0x456970, size: 0x8, addend: 0x0, symName: '__ZNSt3__110__function6__funcIZNK11llama_model10print_infoEvE3$_3NS_9allocatorIS3_EEFjjEED1Ev', symObjAddr: 0x38DB0, symBinAddr: 0x9447C, symSize: 0x4 }
  - { offset: 0x45699C, size: 0x8, addend: 0x0, symName: '__ZNSt3__110__function6__funcIZNK11llama_model10print_infoEvE3$_3NS_9allocatorIS3_EEFjjEED0Ev', symObjAddr: 0x38DB4, symBinAddr: 0x94480, symSize: 0x4 }
  - { offset: 0x456A52, size: 0x8, addend: 0x0, symName: '__ZNKSt3__110__function6__funcIZNK11llama_model10print_infoEvE3$_3NS_9allocatorIS3_EEFjjEE7__cloneEv', symObjAddr: 0x38DB8, symBinAddr: 0x94484, symSize: 0x34 }
  - { offset: 0x456BA4, size: 0x8, addend: 0x0, symName: '__ZNKSt3__110__function6__funcIZNK11llama_model10print_infoEvE3$_3NS_9allocatorIS3_EEFjjEE7__cloneEPNS0_6__baseIS6_EE', symObjAddr: 0x38DEC, symBinAddr: 0x944B8, symSize: 0x14 }
  - { offset: 0x456C11, size: 0x8, addend: 0x0, symName: '__ZNSt3__110__function6__funcIZNK11llama_model10print_infoEvE3$_3NS_9allocatorIS3_EEFjjEE7destroyEv', symObjAddr: 0x38E00, symBinAddr: 0x944CC, symSize: 0x4 }
  - { offset: 0x456C65, size: 0x8, addend: 0x0, symName: '__ZNSt3__110__function6__funcIZNK11llama_model10print_infoEvE3$_3NS_9allocatorIS3_EEFjjEE18destroy_deallocateEv', symObjAddr: 0x38E04, symBinAddr: 0x944D0, symSize: 0x4 }
  - { offset: 0x456C9A, size: 0x8, addend: 0x0, symName: '__ZNSt3__110__function6__funcIZNK11llama_model10print_infoEvE3$_3NS_9allocatorIS3_EEFjjEE18destroy_deallocateEv', symObjAddr: 0x38E04, symBinAddr: 0x944D0, symSize: 0x4 }
  - { offset: 0x456CBD, size: 0x8, addend: 0x0, symName: '__ZNSt3__110__function6__funcIZNK11llama_model10print_infoEvE3$_3NS_9allocatorIS3_EEFjjEE18destroy_deallocateEv', symObjAddr: 0x38E04, symBinAddr: 0x944D0, symSize: 0x4 }
  - { offset: 0x456CF0, size: 0x8, addend: 0x0, symName: '__ZNSt3__110__function6__funcIZNK11llama_model10print_infoEvE3$_3NS_9allocatorIS3_EEFjjEE18destroy_deallocateEv', symObjAddr: 0x38E04, symBinAddr: 0x944D0, symSize: 0x4 }
  - { offset: 0x456D92, size: 0x8, addend: 0x0, symName: '__ZNSt3__110__function6__funcIZNK11llama_model10print_infoEvE3$_3NS_9allocatorIS3_EEFjjEEclEOj', symObjAddr: 0x38E08, symBinAddr: 0x944D4, symSize: 0x10 }
  - { offset: 0x456E3B, size: 0x8, addend: 0x0, symName: '__ZNKSt3__110__function6__funcIZNK11llama_model10print_infoEvE3$_3NS_9allocatorIS3_EEFjjEE6targetERKSt9type_info', symObjAddr: 0x38E18, symBinAddr: 0x944E4, symSize: 0x64 }
  - { offset: 0x456EEF, size: 0x8, addend: 0x0, symName: '__ZNKSt3__110__function6__funcIZNK11llama_model10print_infoEvE3$_3NS_9allocatorIS3_EEFjjEE11target_typeEv', symObjAddr: 0x38E7C, symBinAddr: 0x94548, symSize: 0xC }
  - { offset: 0x456F12, size: 0x8, addend: 0x0, symName: '__ZNSt3__110__function6__funcIZNK11llama_model10print_infoEvE3$_4NS_9allocatorIS3_EEFjjEED1Ev', symObjAddr: 0x38E88, symBinAddr: 0x94554, symSize: 0x4 }
  - { offset: 0x456F3E, size: 0x8, addend: 0x0, symName: '__ZNSt3__110__function6__funcIZNK11llama_model10print_infoEvE3$_4NS_9allocatorIS3_EEFjjEED0Ev', symObjAddr: 0x38E8C, symBinAddr: 0x94558, symSize: 0x4 }
  - { offset: 0x456FF4, size: 0x8, addend: 0x0, symName: '__ZNKSt3__110__function6__funcIZNK11llama_model10print_infoEvE3$_4NS_9allocatorIS3_EEFjjEE7__cloneEv', symObjAddr: 0x38E90, symBinAddr: 0x9455C, symSize: 0x34 }
  - { offset: 0x457146, size: 0x8, addend: 0x0, symName: '__ZNKSt3__110__function6__funcIZNK11llama_model10print_infoEvE3$_4NS_9allocatorIS3_EEFjjEE7__cloneEPNS0_6__baseIS6_EE', symObjAddr: 0x38EC4, symBinAddr: 0x94590, symSize: 0x14 }
  - { offset: 0x4571B3, size: 0x8, addend: 0x0, symName: '__ZNSt3__110__function6__funcIZNK11llama_model10print_infoEvE3$_4NS_9allocatorIS3_EEFjjEE7destroyEv', symObjAddr: 0x38ED8, symBinAddr: 0x945A4, symSize: 0x4 }
  - { offset: 0x457207, size: 0x8, addend: 0x0, symName: '__ZNSt3__110__function6__funcIZNK11llama_model10print_infoEvE3$_4NS_9allocatorIS3_EEFjjEE18destroy_deallocateEv', symObjAddr: 0x38EDC, symBinAddr: 0x945A8, symSize: 0x4 }
  - { offset: 0x45723C, size: 0x8, addend: 0x0, symName: '__ZNSt3__110__function6__funcIZNK11llama_model10print_infoEvE3$_4NS_9allocatorIS3_EEFjjEE18destroy_deallocateEv', symObjAddr: 0x38EDC, symBinAddr: 0x945A8, symSize: 0x4 }
  - { offset: 0x45725F, size: 0x8, addend: 0x0, symName: '__ZNSt3__110__function6__funcIZNK11llama_model10print_infoEvE3$_4NS_9allocatorIS3_EEFjjEE18destroy_deallocateEv', symObjAddr: 0x38EDC, symBinAddr: 0x945A8, symSize: 0x4 }
  - { offset: 0x457292, size: 0x8, addend: 0x0, symName: '__ZNSt3__110__function6__funcIZNK11llama_model10print_infoEvE3$_4NS_9allocatorIS3_EEFjjEE18destroy_deallocateEv', symObjAddr: 0x38EDC, symBinAddr: 0x945A8, symSize: 0x4 }
  - { offset: 0x457334, size: 0x8, addend: 0x0, symName: '__ZNSt3__110__function6__funcIZNK11llama_model10print_infoEvE3$_4NS_9allocatorIS3_EEFjjEEclEOj', symObjAddr: 0x38EE0, symBinAddr: 0x945AC, symSize: 0x10 }
  - { offset: 0x4573DD, size: 0x8, addend: 0x0, symName: '__ZNKSt3__110__function6__funcIZNK11llama_model10print_infoEvE3$_4NS_9allocatorIS3_EEFjjEE6targetERKSt9type_info', symObjAddr: 0x38EF0, symBinAddr: 0x945BC, symSize: 0x64 }
  - { offset: 0x457491, size: 0x8, addend: 0x0, symName: '__ZNKSt3__110__function6__funcIZNK11llama_model10print_infoEvE3$_4NS_9allocatorIS3_EEFjjEE11target_typeEv', symObjAddr: 0x38F54, symBinAddr: 0x94620, symSize: 0xC }
  - { offset: 0x4574B4, size: 0x8, addend: 0x0, symName: '__ZNSt3__110__function6__funcIZNK11llama_model10print_infoEvE3$_5NS_9allocatorIS3_EEFjjEED1Ev', symObjAddr: 0x38F60, symBinAddr: 0x9462C, symSize: 0x4 }
  - { offset: 0x4574E0, size: 0x8, addend: 0x0, symName: '__ZNSt3__110__function6__funcIZNK11llama_model10print_infoEvE3$_5NS_9allocatorIS3_EEFjjEED0Ev', symObjAddr: 0x38F64, symBinAddr: 0x94630, symSize: 0x4 }
  - { offset: 0x457596, size: 0x8, addend: 0x0, symName: '__ZNKSt3__110__function6__funcIZNK11llama_model10print_infoEvE3$_5NS_9allocatorIS3_EEFjjEE7__cloneEv', symObjAddr: 0x38F68, symBinAddr: 0x94634, symSize: 0x34 }
  - { offset: 0x4576E8, size: 0x8, addend: 0x0, symName: '__ZNKSt3__110__function6__funcIZNK11llama_model10print_infoEvE3$_5NS_9allocatorIS3_EEFjjEE7__cloneEPNS0_6__baseIS6_EE', symObjAddr: 0x38F9C, symBinAddr: 0x94668, symSize: 0x14 }
  - { offset: 0x457755, size: 0x8, addend: 0x0, symName: '__ZNSt3__110__function6__funcIZNK11llama_model10print_infoEvE3$_5NS_9allocatorIS3_EEFjjEE7destroyEv', symObjAddr: 0x38FB0, symBinAddr: 0x9467C, symSize: 0x4 }
  - { offset: 0x4577A9, size: 0x8, addend: 0x0, symName: '__ZNSt3__110__function6__funcIZNK11llama_model10print_infoEvE3$_5NS_9allocatorIS3_EEFjjEE18destroy_deallocateEv', symObjAddr: 0x38FB4, symBinAddr: 0x94680, symSize: 0x4 }
  - { offset: 0x4577DE, size: 0x8, addend: 0x0, symName: '__ZNSt3__110__function6__funcIZNK11llama_model10print_infoEvE3$_5NS_9allocatorIS3_EEFjjEE18destroy_deallocateEv', symObjAddr: 0x38FB4, symBinAddr: 0x94680, symSize: 0x4 }
  - { offset: 0x457801, size: 0x8, addend: 0x0, symName: '__ZNSt3__110__function6__funcIZNK11llama_model10print_infoEvE3$_5NS_9allocatorIS3_EEFjjEE18destroy_deallocateEv', symObjAddr: 0x38FB4, symBinAddr: 0x94680, symSize: 0x4 }
  - { offset: 0x457834, size: 0x8, addend: 0x0, symName: '__ZNSt3__110__function6__funcIZNK11llama_model10print_infoEvE3$_5NS_9allocatorIS3_EEFjjEE18destroy_deallocateEv', symObjAddr: 0x38FB4, symBinAddr: 0x94680, symSize: 0x4 }
  - { offset: 0x4578D6, size: 0x8, addend: 0x0, symName: '__ZNSt3__110__function6__funcIZNK11llama_model10print_infoEvE3$_5NS_9allocatorIS3_EEFjjEEclEOj', symObjAddr: 0x38FB8, symBinAddr: 0x94684, symSize: 0x10 }
  - { offset: 0x45797F, size: 0x8, addend: 0x0, symName: '__ZNKSt3__110__function6__funcIZNK11llama_model10print_infoEvE3$_5NS_9allocatorIS3_EEFjjEE6targetERKSt9type_info', symObjAddr: 0x38FC8, symBinAddr: 0x94694, symSize: 0x64 }
  - { offset: 0x457A33, size: 0x8, addend: 0x0, symName: '__ZNKSt3__110__function6__funcIZNK11llama_model10print_infoEvE3$_5NS_9allocatorIS3_EEFjjEE11target_typeEv', symObjAddr: 0x3902C, symBinAddr: 0x946F8, symSize: 0xC }
  - { offset: 0x457A56, size: 0x8, addend: 0x0, symName: '__ZNSt3__110__function6__funcIZNK11llama_model13create_memoryERK19llama_memory_paramsR13llama_cparamsE3$_0NS_9allocatorIS8_EEFbiEED1Ev', symObjAddr: 0x39038, symBinAddr: 0x94704, symSize: 0x4 }
  - { offset: 0x457A82, size: 0x8, addend: 0x0, symName: '__ZNSt3__110__function6__funcIZNK11llama_model13create_memoryERK19llama_memory_paramsR13llama_cparamsE3$_0NS_9allocatorIS8_EEFbiEED0Ev', symObjAddr: 0x3903C, symBinAddr: 0x94708, symSize: 0x4 }
  - { offset: 0x457B38, size: 0x8, addend: 0x0, symName: '__ZNKSt3__110__function6__funcIZNK11llama_model13create_memoryERK19llama_memory_paramsR13llama_cparamsE3$_0NS_9allocatorIS8_EEFbiEE7__cloneEv', symObjAddr: 0x39040, symBinAddr: 0x9470C, symSize: 0x24 }
  - { offset: 0x457C86, size: 0x8, addend: 0x0, symName: '__ZNKSt3__110__function6__funcIZNK11llama_model13create_memoryERK19llama_memory_paramsR13llama_cparamsE3$_0NS_9allocatorIS8_EEFbiEE7__cloneEPNS0_6__baseISB_EE', symObjAddr: 0x39064, symBinAddr: 0x94730, symSize: 0x10 }
  - { offset: 0x457CB9, size: 0x8, addend: 0x0, symName: '__ZNKSt3__110__function6__funcIZNK11llama_model13create_memoryERK19llama_memory_paramsR13llama_cparamsE3$_0NS_9allocatorIS8_EEFbiEE7__cloneEPNS0_6__baseISB_EE', symObjAddr: 0x39064, symBinAddr: 0x94730, symSize: 0x10 }
  - { offset: 0x457CD5, size: 0x8, addend: 0x0, symName: '__ZNKSt3__110__function6__funcIZNK11llama_model13create_memoryERK19llama_memory_paramsR13llama_cparamsE3$_0NS_9allocatorIS8_EEFbiEE7__cloneEPNS0_6__baseISB_EE', symObjAddr: 0x39064, symBinAddr: 0x94730, symSize: 0x10 }
  - { offset: 0x457CF1, size: 0x8, addend: 0x0, symName: '__ZNSt3__110__function6__funcIZNK11llama_model13create_memoryERK19llama_memory_paramsR13llama_cparamsE3$_0NS_9allocatorIS8_EEFbiEE7destroyEv', symObjAddr: 0x39074, symBinAddr: 0x94740, symSize: 0x4 }
  - { offset: 0x457D45, size: 0x8, addend: 0x0, symName: '__ZNSt3__110__function6__funcIZNK11llama_model13create_memoryERK19llama_memory_paramsR13llama_cparamsE3$_0NS_9allocatorIS8_EEFbiEE18destroy_deallocateEv', symObjAddr: 0x39078, symBinAddr: 0x94744, symSize: 0x4 }
  - { offset: 0x457D7A, size: 0x8, addend: 0x0, symName: '__ZNSt3__110__function6__funcIZNK11llama_model13create_memoryERK19llama_memory_paramsR13llama_cparamsE3$_0NS_9allocatorIS8_EEFbiEE18destroy_deallocateEv', symObjAddr: 0x39078, symBinAddr: 0x94744, symSize: 0x4 }
  - { offset: 0x457D9D, size: 0x8, addend: 0x0, symName: '__ZNSt3__110__function6__funcIZNK11llama_model13create_memoryERK19llama_memory_paramsR13llama_cparamsE3$_0NS_9allocatorIS8_EEFbiEE18destroy_deallocateEv', symObjAddr: 0x39078, symBinAddr: 0x94744, symSize: 0x4 }
  - { offset: 0x457DD0, size: 0x8, addend: 0x0, symName: '__ZNSt3__110__function6__funcIZNK11llama_model13create_memoryERK19llama_memory_paramsR13llama_cparamsE3$_0NS_9allocatorIS8_EEFbiEE18destroy_deallocateEv', symObjAddr: 0x39078, symBinAddr: 0x94744, symSize: 0x4 }
  - { offset: 0x457DF8, size: 0x8, addend: 0x0, symName: '__ZNSt3__110__function6__funcIZNK11llama_model13create_memoryERK19llama_memory_paramsR13llama_cparamsE3$_0NS_9allocatorIS8_EEFbiEEclEOi', symObjAddr: 0x3907C, symBinAddr: 0x94748, symSize: 0x8 }
  - { offset: 0x457E27, size: 0x8, addend: 0x0, symName: '__ZNKSt3__110__function6__funcIZNK11llama_model13create_memoryERK19llama_memory_paramsR13llama_cparamsE3$_0NS_9allocatorIS8_EEFbiEE6targetERKSt9type_info', symObjAddr: 0x39084, symBinAddr: 0x94750, symSize: 0x64 }
  - { offset: 0x457EDB, size: 0x8, addend: 0x0, symName: '__ZNKSt3__110__function6__funcIZNK11llama_model13create_memoryERK19llama_memory_paramsR13llama_cparamsE3$_0NS_9allocatorIS8_EEFbiEE11target_typeEv', symObjAddr: 0x390E8, symBinAddr: 0x947B4, symSize: 0xC }
  - { offset: 0x457EFE, size: 0x8, addend: 0x0, symName: '__ZNSt3__110__function6__funcIZNK11llama_model13create_memoryERK19llama_memory_paramsR13llama_cparamsE3$_1NS_9allocatorIS8_EEFbiEED1Ev', symObjAddr: 0x390F4, symBinAddr: 0x947C0, symSize: 0x4 }
  - { offset: 0x457F2A, size: 0x8, addend: 0x0, symName: '__ZNSt3__110__function6__funcIZNK11llama_model13create_memoryERK19llama_memory_paramsR13llama_cparamsE3$_1NS_9allocatorIS8_EEFbiEED0Ev', symObjAddr: 0x390F8, symBinAddr: 0x947C4, symSize: 0x4 }
  - { offset: 0x457FE0, size: 0x8, addend: 0x0, symName: '__ZNKSt3__110__function6__funcIZNK11llama_model13create_memoryERK19llama_memory_paramsR13llama_cparamsE3$_1NS_9allocatorIS8_EEFbiEE7__cloneEv', symObjAddr: 0x390FC, symBinAddr: 0x947C8, symSize: 0x24 }
  - { offset: 0x45812E, size: 0x8, addend: 0x0, symName: '__ZNKSt3__110__function6__funcIZNK11llama_model13create_memoryERK19llama_memory_paramsR13llama_cparamsE3$_1NS_9allocatorIS8_EEFbiEE7__cloneEPNS0_6__baseISB_EE', symObjAddr: 0x39120, symBinAddr: 0x947EC, symSize: 0x10 }
  - { offset: 0x458161, size: 0x8, addend: 0x0, symName: '__ZNKSt3__110__function6__funcIZNK11llama_model13create_memoryERK19llama_memory_paramsR13llama_cparamsE3$_1NS_9allocatorIS8_EEFbiEE7__cloneEPNS0_6__baseISB_EE', symObjAddr: 0x39120, symBinAddr: 0x947EC, symSize: 0x10 }
  - { offset: 0x45817D, size: 0x8, addend: 0x0, symName: '__ZNKSt3__110__function6__funcIZNK11llama_model13create_memoryERK19llama_memory_paramsR13llama_cparamsE3$_1NS_9allocatorIS8_EEFbiEE7__cloneEPNS0_6__baseISB_EE', symObjAddr: 0x39120, symBinAddr: 0x947EC, symSize: 0x10 }
  - { offset: 0x458199, size: 0x8, addend: 0x0, symName: '__ZNSt3__110__function6__funcIZNK11llama_model13create_memoryERK19llama_memory_paramsR13llama_cparamsE3$_1NS_9allocatorIS8_EEFbiEE7destroyEv', symObjAddr: 0x39130, symBinAddr: 0x947FC, symSize: 0x4 }
  - { offset: 0x4581ED, size: 0x8, addend: 0x0, symName: '__ZNSt3__110__function6__funcIZNK11llama_model13create_memoryERK19llama_memory_paramsR13llama_cparamsE3$_1NS_9allocatorIS8_EEFbiEE18destroy_deallocateEv', symObjAddr: 0x39134, symBinAddr: 0x94800, symSize: 0x4 }
  - { offset: 0x458222, size: 0x8, addend: 0x0, symName: '__ZNSt3__110__function6__funcIZNK11llama_model13create_memoryERK19llama_memory_paramsR13llama_cparamsE3$_1NS_9allocatorIS8_EEFbiEE18destroy_deallocateEv', symObjAddr: 0x39134, symBinAddr: 0x94800, symSize: 0x4 }
  - { offset: 0x458245, size: 0x8, addend: 0x0, symName: '__ZNSt3__110__function6__funcIZNK11llama_model13create_memoryERK19llama_memory_paramsR13llama_cparamsE3$_1NS_9allocatorIS8_EEFbiEE18destroy_deallocateEv', symObjAddr: 0x39134, symBinAddr: 0x94800, symSize: 0x4 }
  - { offset: 0x458278, size: 0x8, addend: 0x0, symName: '__ZNSt3__110__function6__funcIZNK11llama_model13create_memoryERK19llama_memory_paramsR13llama_cparamsE3$_1NS_9allocatorIS8_EEFbiEE18destroy_deallocateEv', symObjAddr: 0x39134, symBinAddr: 0x94800, symSize: 0x4 }
  - { offset: 0x4582A0, size: 0x8, addend: 0x0, symName: '__ZNSt3__110__function6__funcIZNK11llama_model13create_memoryERK19llama_memory_paramsR13llama_cparamsE3$_1NS_9allocatorIS8_EEFbiEEclEOi', symObjAddr: 0x39138, symBinAddr: 0x94804, symSize: 0x8 }
  - { offset: 0x4582CF, size: 0x8, addend: 0x0, symName: '__ZNKSt3__110__function6__funcIZNK11llama_model13create_memoryERK19llama_memory_paramsR13llama_cparamsE3$_1NS_9allocatorIS8_EEFbiEE6targetERKSt9type_info', symObjAddr: 0x39140, symBinAddr: 0x9480C, symSize: 0x64 }
  - { offset: 0x458383, size: 0x8, addend: 0x0, symName: '__ZNKSt3__110__function6__funcIZNK11llama_model13create_memoryERK19llama_memory_paramsR13llama_cparamsE3$_1NS_9allocatorIS8_EEFbiEE11target_typeEv', symObjAddr: 0x391A4, symBinAddr: 0x94870, symSize: 0xC }
  - { offset: 0x4583A6, size: 0x8, addend: 0x0, symName: '__ZNSt3__110__function6__funcIZNK11llama_model13create_memoryERK19llama_memory_paramsR13llama_cparamsE3$_2NS_9allocatorIS8_EEFiiEED1Ev', symObjAddr: 0x391B0, symBinAddr: 0x9487C, symSize: 0x4 }
  - { offset: 0x4583D2, size: 0x8, addend: 0x0, symName: '__ZNSt3__110__function6__funcIZNK11llama_model13create_memoryERK19llama_memory_paramsR13llama_cparamsE3$_2NS_9allocatorIS8_EEFiiEED0Ev', symObjAddr: 0x391B4, symBinAddr: 0x94880, symSize: 0x4 }
  - { offset: 0x458488, size: 0x8, addend: 0x0, symName: '__ZNKSt3__110__function6__funcIZNK11llama_model13create_memoryERK19llama_memory_paramsR13llama_cparamsE3$_2NS_9allocatorIS8_EEFiiEE7__cloneEv', symObjAddr: 0x391B8, symBinAddr: 0x94884, symSize: 0x34 }
  - { offset: 0x4585DA, size: 0x8, addend: 0x0, symName: '__ZNKSt3__110__function6__funcIZNK11llama_model13create_memoryERK19llama_memory_paramsR13llama_cparamsE3$_2NS_9allocatorIS8_EEFiiEE7__cloneEPNS0_6__baseISB_EE', symObjAddr: 0x391EC, symBinAddr: 0x948B8, symSize: 0x14 }
  - { offset: 0x458647, size: 0x8, addend: 0x0, symName: '__ZNSt3__110__function6__funcIZNK11llama_model13create_memoryERK19llama_memory_paramsR13llama_cparamsE3$_2NS_9allocatorIS8_EEFiiEE7destroyEv', symObjAddr: 0x39200, symBinAddr: 0x948CC, symSize: 0x4 }
  - { offset: 0x45869B, size: 0x8, addend: 0x0, symName: '__ZNSt3__110__function6__funcIZNK11llama_model13create_memoryERK19llama_memory_paramsR13llama_cparamsE3$_2NS_9allocatorIS8_EEFiiEE18destroy_deallocateEv', symObjAddr: 0x39204, symBinAddr: 0x948D0, symSize: 0x4 }
  - { offset: 0x4586D0, size: 0x8, addend: 0x0, symName: '__ZNSt3__110__function6__funcIZNK11llama_model13create_memoryERK19llama_memory_paramsR13llama_cparamsE3$_2NS_9allocatorIS8_EEFiiEE18destroy_deallocateEv', symObjAddr: 0x39204, symBinAddr: 0x948D0, symSize: 0x4 }
  - { offset: 0x4586F3, size: 0x8, addend: 0x0, symName: '__ZNSt3__110__function6__funcIZNK11llama_model13create_memoryERK19llama_memory_paramsR13llama_cparamsE3$_2NS_9allocatorIS8_EEFiiEE18destroy_deallocateEv', symObjAddr: 0x39204, symBinAddr: 0x948D0, symSize: 0x4 }
  - { offset: 0x458726, size: 0x8, addend: 0x0, symName: '__ZNSt3__110__function6__funcIZNK11llama_model13create_memoryERK19llama_memory_paramsR13llama_cparamsE3$_2NS_9allocatorIS8_EEFiiEE18destroy_deallocateEv', symObjAddr: 0x39204, symBinAddr: 0x948D0, symSize: 0x4 }
  - { offset: 0x4587C8, size: 0x8, addend: 0x0, symName: '__ZNSt3__110__function6__funcIZNK11llama_model13create_memoryERK19llama_memory_paramsR13llama_cparamsE3$_2NS_9allocatorIS8_EEFiiEEclEOi', symObjAddr: 0x39208, symBinAddr: 0x948D4, symSize: 0x54 }
  - { offset: 0x45884B, size: 0x8, addend: 0x0, symName: '__ZNKSt3__110__function6__funcIZNK11llama_model13create_memoryERK19llama_memory_paramsR13llama_cparamsE3$_2NS_9allocatorIS8_EEFiiEE6targetERKSt9type_info', symObjAddr: 0x3925C, symBinAddr: 0x94928, symSize: 0x64 }
  - { offset: 0x4588FF, size: 0x8, addend: 0x0, symName: '__ZNKSt3__110__function6__funcIZNK11llama_model13create_memoryERK19llama_memory_paramsR13llama_cparamsE3$_2NS_9allocatorIS8_EEFiiEE11target_typeEv', symObjAddr: 0x392C0, symBinAddr: 0x9498C, symSize: 0xC }
  - { offset: 0x45899E, size: 0x8, addend: 0x0, symName: __ZN15llm_build_llamaD1Ev, symObjAddr: 0x39B34, symBinAddr: 0x95200, symSize: 0x4 }
  - { offset: 0x4589CA, size: 0x8, addend: 0x0, symName: __ZN15llm_build_llamaD0Ev, symObjAddr: 0x39B38, symBinAddr: 0x95204, symSize: 0x4 }
  - { offset: 0x458A13, size: 0x8, addend: 0x0, symName: __ZN20llm_build_llama_iswaD1Ev, symObjAddr: 0x3A36C, symBinAddr: 0x95A38, symSize: 0x4 }
  - { offset: 0x458A3F, size: 0x8, addend: 0x0, symName: __ZN20llm_build_llama_iswaD0Ev, symObjAddr: 0x3A370, symBinAddr: 0x95A3C, symSize: 0x4 }
  - { offset: 0x458A6B, size: 0x8, addend: 0x0, symName: __ZN14llm_build_deciD1Ev, symObjAddr: 0x3AA78, symBinAddr: 0x96144, symSize: 0x4 }
  - { offset: 0x458A97, size: 0x8, addend: 0x0, symName: __ZN14llm_build_deciD0Ev, symObjAddr: 0x3AA7C, symBinAddr: 0x96148, symSize: 0x4 }
  - { offset: 0x458AC3, size: 0x8, addend: 0x0, symName: __ZN18llm_build_baichuanD1Ev, symObjAddr: 0x3AFE8, symBinAddr: 0x966B4, symSize: 0x4 }
  - { offset: 0x458AEF, size: 0x8, addend: 0x0, symName: __ZN18llm_build_baichuanD0Ev, symObjAddr: 0x3AFEC, symBinAddr: 0x966B8, symSize: 0x4 }
  - { offset: 0x458BA4, size: 0x8, addend: 0x0, symName: __ZN16llm_build_falconD1Ev, symObjAddr: 0x3B524, symBinAddr: 0x96BF0, symSize: 0x4 }
  - { offset: 0x458BD0, size: 0x8, addend: 0x0, symName: __ZN16llm_build_falconD0Ev, symObjAddr: 0x3B528, symBinAddr: 0x96BF4, symSize: 0x4 }
  - { offset: 0x458BFC, size: 0x8, addend: 0x0, symName: __ZN14llm_build_grokD1Ev, symObjAddr: 0x3BBD4, symBinAddr: 0x972A0, symSize: 0x4 }
  - { offset: 0x458C28, size: 0x8, addend: 0x0, symName: __ZN14llm_build_grokD0Ev, symObjAddr: 0x3BBD8, symBinAddr: 0x972A4, symSize: 0x4 }
  - { offset: 0x458C54, size: 0x8, addend: 0x0, symName: __ZN19llm_build_starcoderD1Ev, symObjAddr: 0x3C118, symBinAddr: 0x977E4, symSize: 0x4 }
  - { offset: 0x458C80, size: 0x8, addend: 0x0, symName: __ZN19llm_build_starcoderD0Ev, symObjAddr: 0x3C11C, symBinAddr: 0x977E8, symSize: 0x4 }
  - { offset: 0x458CAC, size: 0x8, addend: 0x0, symName: __ZN16llm_build_refactD1Ev, symObjAddr: 0x3C5A8, symBinAddr: 0x97C74, symSize: 0x4 }
  - { offset: 0x458CD8, size: 0x8, addend: 0x0, symName: __ZN16llm_build_refactD0Ev, symObjAddr: 0x3C5AC, symBinAddr: 0x97C78, symSize: 0x4 }
  - { offset: 0x458D26, size: 0x8, addend: 0x0, symName: __ZN14llm_build_bertD1Ev, symObjAddr: 0x3CE0C, symBinAddr: 0x984D8, symSize: 0x4 }
  - { offset: 0x458D52, size: 0x8, addend: 0x0, symName: __ZN14llm_build_bertD0Ev, symObjAddr: 0x3CE10, symBinAddr: 0x984DC, symSize: 0x4 }
  - { offset: 0x458D7E, size: 0x8, addend: 0x0, symName: __ZN18llm_build_neo_bertD1Ev, symObjAddr: 0x3D29C, symBinAddr: 0x98968, symSize: 0x4 }
  - { offset: 0x458DAA, size: 0x8, addend: 0x0, symName: __ZN18llm_build_neo_bertD0Ev, symObjAddr: 0x3D2A0, symBinAddr: 0x9896C, symSize: 0x4 }
  - { offset: 0x458DD6, size: 0x8, addend: 0x0, symName: __ZN15llm_build_bloomD1Ev, symObjAddr: 0x3D7B4, symBinAddr: 0x98E80, symSize: 0x4 }
  - { offset: 0x458E02, size: 0x8, addend: 0x0, symName: __ZN15llm_build_bloomD0Ev, symObjAddr: 0x3D7B8, symBinAddr: 0x98E84, symSize: 0x4 }
  - { offset: 0x458E50, size: 0x8, addend: 0x0, symName: __ZN13llm_build_mptD1Ev, symObjAddr: 0x3DE88, symBinAddr: 0x99554, symSize: 0x4 }
  - { offset: 0x458E7C, size: 0x8, addend: 0x0, symName: __ZN13llm_build_mptD0Ev, symObjAddr: 0x3DE8C, symBinAddr: 0x99558, symSize: 0x4 }
  - { offset: 0x458EA8, size: 0x8, addend: 0x0, symName: __ZN18llm_build_stablelmD1Ev, symObjAddr: 0x3E500, symBinAddr: 0x99BCC, symSize: 0x4 }
  - { offset: 0x458ED4, size: 0x8, addend: 0x0, symName: __ZN18llm_build_stablelmD0Ev, symObjAddr: 0x3E504, symBinAddr: 0x99BD0, symSize: 0x4 }
  - { offset: 0x458F00, size: 0x8, addend: 0x0, symName: __ZN14llm_build_qwenD1Ev, symObjAddr: 0x3EA00, symBinAddr: 0x9A0CC, symSize: 0x4 }
  - { offset: 0x458F2C, size: 0x8, addend: 0x0, symName: __ZN14llm_build_qwenD0Ev, symObjAddr: 0x3EA04, symBinAddr: 0x9A0D0, symSize: 0x4 }
  - { offset: 0x458F58, size: 0x8, addend: 0x0, symName: __ZN15llm_build_qwen2D1Ev, symObjAddr: 0x3EF88, symBinAddr: 0x9A654, symSize: 0x4 }
  - { offset: 0x458F84, size: 0x8, addend: 0x0, symName: __ZN15llm_build_qwen2D0Ev, symObjAddr: 0x3EF8C, symBinAddr: 0x9A658, symSize: 0x4 }
  - { offset: 0x458FB0, size: 0x8, addend: 0x0, symName: __ZN15llm_build_dreamD1Ev, symObjAddr: 0x3F4FC, symBinAddr: 0x9ABC8, symSize: 0x4 }
  - { offset: 0x458FDC, size: 0x8, addend: 0x0, symName: __ZN15llm_build_dreamD0Ev, symObjAddr: 0x3F500, symBinAddr: 0x9ABCC, symSize: 0x4 }
  - { offset: 0x459008, size: 0x8, addend: 0x0, symName: __ZN15llm_build_lladaD1Ev, symObjAddr: 0x3FA28, symBinAddr: 0x9B0F4, symSize: 0x4 }
  - { offset: 0x459034, size: 0x8, addend: 0x0, symName: __ZN15llm_build_lladaD0Ev, symObjAddr: 0x3FA2C, symBinAddr: 0x9B0F8, symSize: 0x4 }
  - { offset: 0x459103, size: 0x8, addend: 0x0, symName: __ZN17llm_build_qwen2vlD1Ev, symObjAddr: 0x400A0, symBinAddr: 0x9B76C, symSize: 0x4 }
  - { offset: 0x45912F, size: 0x8, addend: 0x0, symName: __ZN17llm_build_qwen2vlD0Ev, symObjAddr: 0x400A4, symBinAddr: 0x9B770, symSize: 0x4 }
  - { offset: 0x459173, size: 0x8, addend: 0x0, symName: __ZN18llm_build_qwen2moeD1Ev, symObjAddr: 0x407A0, symBinAddr: 0x9BE6C, symSize: 0x4 }
  - { offset: 0x45919F, size: 0x8, addend: 0x0, symName: __ZN18llm_build_qwen2moeD0Ev, symObjAddr: 0x407A4, symBinAddr: 0x9BE70, symSize: 0x4 }
  - { offset: 0x4591CB, size: 0x8, addend: 0x0, symName: __ZN15llm_build_qwen3D1Ev, symObjAddr: 0x40D4C, symBinAddr: 0x9C418, symSize: 0x4 }
  - { offset: 0x4591F7, size: 0x8, addend: 0x0, symName: __ZN15llm_build_qwen3D0Ev, symObjAddr: 0x40D50, symBinAddr: 0x9C41C, symSize: 0x4 }
  - { offset: 0x459223, size: 0x8, addend: 0x0, symName: __ZN18llm_build_qwen3moeD1Ev, symObjAddr: 0x412F8, symBinAddr: 0x9C9C4, symSize: 0x4 }
  - { offset: 0x45924F, size: 0x8, addend: 0x0, symName: __ZN18llm_build_qwen3moeD0Ev, symObjAddr: 0x412FC, symBinAddr: 0x9C9C8, symSize: 0x4 }
  - { offset: 0x45927B, size: 0x8, addend: 0x0, symName: __ZN14llm_build_phi2D1Ev, symObjAddr: 0x41980, symBinAddr: 0x9D04C, symSize: 0x4 }
  - { offset: 0x4592A7, size: 0x8, addend: 0x0, symName: __ZN14llm_build_phi2D0Ev, symObjAddr: 0x41984, symBinAddr: 0x9D050, symSize: 0x4 }
  - { offset: 0x4592D3, size: 0x8, addend: 0x0, symName: __ZN14llm_build_phi3ILb1EED1Ev, symObjAddr: 0x420CC, symBinAddr: 0x9D798, symSize: 0x4 }
  - { offset: 0x4592FF, size: 0x8, addend: 0x0, symName: __ZN14llm_build_phi3ILb1EED0Ev, symObjAddr: 0x420D0, symBinAddr: 0x9D79C, symSize: 0x4 }
  - { offset: 0x45932B, size: 0x8, addend: 0x0, symName: __ZN14llm_build_phi3ILb0EED1Ev, symObjAddr: 0x42818, symBinAddr: 0x9DEE4, symSize: 0x4 }
  - { offset: 0x459357, size: 0x8, addend: 0x0, symName: __ZN14llm_build_phi3ILb0EED0Ev, symObjAddr: 0x4281C, symBinAddr: 0x9DEE8, symSize: 0x4 }
  - { offset: 0x459383, size: 0x8, addend: 0x0, symName: __ZN15llm_build_plamoD1Ev, symObjAddr: 0x42D04, symBinAddr: 0x9E3D0, symSize: 0x4 }
  - { offset: 0x4593AF, size: 0x8, addend: 0x0, symName: __ZN15llm_build_plamoD0Ev, symObjAddr: 0x42D08, symBinAddr: 0x9E3D4, symSize: 0x4 }
  - { offset: 0x45946D, size: 0x8, addend: 0x0, symName: __ZN16llm_build_plamo223build_plamo2_attn_layerEP23llm_graph_input_attn_kvP11ggml_tensorS3_RK11llama_modeli, symObjAddr: 0x43C90, symBinAddr: 0x9F35C, symSize: 0x32C }
  - { offset: 0x459DDA, size: 0x8, addend: 0x0, symName: __ZN16llm_build_plamo2D1Ev, symObjAddr: 0x43FBC, symBinAddr: 0x9F688, symSize: 0x4 }
  - { offset: 0x459E06, size: 0x8, addend: 0x0, symName: __ZN16llm_build_plamo2D0Ev, symObjAddr: 0x43FC0, symBinAddr: 0x9F68C, symSize: 0x4 }
  - { offset: 0x459E32, size: 0x8, addend: 0x0, symName: __ZNSt3__110__function6__funcIZN16llm_build_plamo224build_plamo2_mamba_layerEP18llm_graph_input_rsP11ggml_tensorRK11llama_modelRK12llama_ubatchiEUlP12ggml_contextS6_S6_E_NS_9allocatorISF_EEFS6_SE_S6_S6_EED1Ev, symObjAddr: 0x440B8, symBinAddr: 0x9F690, symSize: 0x4 }
  - { offset: 0x459E5E, size: 0x8, addend: 0x0, symName: __ZNSt3__110__function6__funcIZN16llm_build_plamo224build_plamo2_mamba_layerEP18llm_graph_input_rsP11ggml_tensorRK11llama_modelRK12llama_ubatchiEUlP12ggml_contextS6_S6_E_NS_9allocatorISF_EEFS6_SE_S6_S6_EED0Ev, symObjAddr: 0x440BC, symBinAddr: 0x9F694, symSize: 0x4 }
  - { offset: 0x459F4E, size: 0x8, addend: 0x0, symName: __ZNKSt3__110__function6__funcIZN16llm_build_plamo224build_plamo2_mamba_layerEP18llm_graph_input_rsP11ggml_tensorRK11llama_modelRK12llama_ubatchiEUlP12ggml_contextS6_S6_E_NS_9allocatorISF_EEFS6_SE_S6_S6_EE7__cloneEv, symObjAddr: 0x440C0, symBinAddr: 0x9F698, symSize: 0x5C }
  - { offset: 0x45A161, size: 0x8, addend: 0x0, symName: __ZNKSt3__110__function6__funcIZN16llm_build_plamo224build_plamo2_mamba_layerEP18llm_graph_input_rsP11ggml_tensorRK11llama_modelRK12llama_ubatchiEUlP12ggml_contextS6_S6_E_NS_9allocatorISF_EEFS6_SE_S6_S6_EE7__cloneEPNS0_6__baseISI_EE, symObjAddr: 0x4411C, symBinAddr: 0x9F6F4, symSize: 0x3C }
  - { offset: 0x45A196, size: 0x8, addend: 0x0, symName: __ZNKSt3__110__function6__funcIZN16llm_build_plamo224build_plamo2_mamba_layerEP18llm_graph_input_rsP11ggml_tensorRK11llama_modelRK12llama_ubatchiEUlP12ggml_contextS6_S6_E_NS_9allocatorISF_EEFS6_SE_S6_S6_EE7__cloneEPNS0_6__baseISI_EE, symObjAddr: 0x4411C, symBinAddr: 0x9F6F4, symSize: 0x3C }
  - { offset: 0x45A1C4, size: 0x8, addend: 0x0, symName: __ZNKSt3__110__function6__funcIZN16llm_build_plamo224build_plamo2_mamba_layerEP18llm_graph_input_rsP11ggml_tensorRK11llama_modelRK12llama_ubatchiEUlP12ggml_contextS6_S6_E_NS_9allocatorISF_EEFS6_SE_S6_S6_EE7__cloneEPNS0_6__baseISI_EE, symObjAddr: 0x4411C, symBinAddr: 0x9F6F4, symSize: 0x3C }
  - { offset: 0x45A253, size: 0x8, addend: 0x0, symName: __ZNSt3__110__function6__funcIZN16llm_build_plamo224build_plamo2_mamba_layerEP18llm_graph_input_rsP11ggml_tensorRK11llama_modelRK12llama_ubatchiEUlP12ggml_contextS6_S6_E_NS_9allocatorISF_EEFS6_SE_S6_S6_EE7destroyEv, symObjAddr: 0x44158, symBinAddr: 0x9F730, symSize: 0x4 }
  - { offset: 0x45A2A9, size: 0x8, addend: 0x0, symName: __ZNSt3__110__function6__funcIZN16llm_build_plamo224build_plamo2_mamba_layerEP18llm_graph_input_rsP11ggml_tensorRK11llama_modelRK12llama_ubatchiEUlP12ggml_contextS6_S6_E_NS_9allocatorISF_EEFS6_SE_S6_S6_EE18destroy_deallocateEv, symObjAddr: 0x4415C, symBinAddr: 0x9F734, symSize: 0x4 }
  - { offset: 0x45A2DE, size: 0x8, addend: 0x0, symName: __ZNSt3__110__function6__funcIZN16llm_build_plamo224build_plamo2_mamba_layerEP18llm_graph_input_rsP11ggml_tensorRK11llama_modelRK12llama_ubatchiEUlP12ggml_contextS6_S6_E_NS_9allocatorISF_EEFS6_SE_S6_S6_EE18destroy_deallocateEv, symObjAddr: 0x4415C, symBinAddr: 0x9F734, symSize: 0x4 }
  - { offset: 0x45A301, size: 0x8, addend: 0x0, symName: __ZNSt3__110__function6__funcIZN16llm_build_plamo224build_plamo2_mamba_layerEP18llm_graph_input_rsP11ggml_tensorRK11llama_modelRK12llama_ubatchiEUlP12ggml_contextS6_S6_E_NS_9allocatorISF_EEFS6_SE_S6_S6_EE18destroy_deallocateEv, symObjAddr: 0x4415C, symBinAddr: 0x9F734, symSize: 0x4 }
  - { offset: 0x45A335, size: 0x8, addend: 0x0, symName: __ZNSt3__110__function6__funcIZN16llm_build_plamo224build_plamo2_mamba_layerEP18llm_graph_input_rsP11ggml_tensorRK11llama_modelRK12llama_ubatchiEUlP12ggml_contextS6_S6_E_NS_9allocatorISF_EEFS6_SE_S6_S6_EE18destroy_deallocateEv, symObjAddr: 0x4415C, symBinAddr: 0x9F734, symSize: 0x4 }
  - { offset: 0x45A431, size: 0x8, addend: 0x0, symName: __ZNSt3__110__function6__funcIZN16llm_build_plamo224build_plamo2_mamba_layerEP18llm_graph_input_rsP11ggml_tensorRK11llama_modelRK12llama_ubatchiEUlP12ggml_contextS6_S6_E_NS_9allocatorISF_EEFS6_SE_S6_S6_EEclEOSE_OS6_SL_, symObjAddr: 0x44160, symBinAddr: 0x9F738, symSize: 0xA4 }
  - { offset: 0x45A616, size: 0x8, addend: 0x0, symName: __ZNKSt3__110__function6__funcIZN16llm_build_plamo224build_plamo2_mamba_layerEP18llm_graph_input_rsP11ggml_tensorRK11llama_modelRK12llama_ubatchiEUlP12ggml_contextS6_S6_E_NS_9allocatorISF_EEFS6_SE_S6_S6_EE6targetERKSt9type_info, symObjAddr: 0x44204, symBinAddr: 0x9F7DC, symSize: 0x74 }
  - { offset: 0x45A6C4, size: 0x8, addend: 0x0, symName: __ZNKSt3__110__function6__funcIZN16llm_build_plamo224build_plamo2_mamba_layerEP18llm_graph_input_rsP11ggml_tensorRK11llama_modelRK12llama_ubatchiEUlP12ggml_contextS6_S6_E_NS_9allocatorISF_EEFS6_SE_S6_S6_EE11target_typeEv, symObjAddr: 0x44278, symBinAddr: 0x9F850, symSize: 0xC }
  - { offset: 0x45A6EB, size: 0x8, addend: 0x0, symName: __ZN14llm_build_gpt2D1Ev, symObjAddr: 0x447B0, symBinAddr: 0x9FD88, symSize: 0x4 }
  - { offset: 0x45A717, size: 0x8, addend: 0x0, symName: __ZN14llm_build_gpt2D0Ev, symObjAddr: 0x447B4, symBinAddr: 0x9FD8C, symSize: 0x4 }
  - { offset: 0x45A743, size: 0x8, addend: 0x0, symName: __ZN19llm_build_codeshellD1Ev, symObjAddr: 0x44D04, symBinAddr: 0xA02DC, symSize: 0x4 }
  - { offset: 0x45A76F, size: 0x8, addend: 0x0, symName: __ZN19llm_build_codeshellD0Ev, symObjAddr: 0x44D08, symBinAddr: 0xA02E0, symSize: 0x4 }
  - { offset: 0x45A79B, size: 0x8, addend: 0x0, symName: __ZN15llm_build_orionD1Ev, symObjAddr: 0x4522C, symBinAddr: 0xA0804, symSize: 0x4 }
  - { offset: 0x45A7C7, size: 0x8, addend: 0x0, symName: __ZN15llm_build_orionD0Ev, symObjAddr: 0x45230, symBinAddr: 0xA0808, symSize: 0x4 }
  - { offset: 0x45A7F3, size: 0x8, addend: 0x0, symName: __ZN19llm_build_internlm2D1Ev, symObjAddr: 0x45804, symBinAddr: 0xA0DDC, symSize: 0x4 }
  - { offset: 0x45A81F, size: 0x8, addend: 0x0, symName: __ZN19llm_build_internlm2D0Ev, symObjAddr: 0x45808, symBinAddr: 0xA0DE0, symSize: 0x4 }
  - { offset: 0x45A880, size: 0x8, addend: 0x0, symName: __ZN18llm_build_minicpm3D1Ev, symObjAddr: 0x461C4, symBinAddr: 0xA179C, symSize: 0x4 }
  - { offset: 0x45A8AC, size: 0x8, addend: 0x0, symName: __ZN18llm_build_minicpm3D0Ev, symObjAddr: 0x461C8, symBinAddr: 0xA17A0, symSize: 0x4 }
  - { offset: 0x45A8D8, size: 0x8, addend: 0x0, symName: __ZN15llm_build_gemmaD1Ev, symObjAddr: 0x466E8, symBinAddr: 0xA1CC0, symSize: 0x4 }
  - { offset: 0x45A904, size: 0x8, addend: 0x0, symName: __ZN15llm_build_gemmaD0Ev, symObjAddr: 0x466EC, symBinAddr: 0xA1CC4, symSize: 0x4 }
  - { offset: 0x45A948, size: 0x8, addend: 0x0, symName: __ZN21llm_build_gemma2_iswaD1Ev, symObjAddr: 0x46C9C, symBinAddr: 0xA2274, symSize: 0x4 }
  - { offset: 0x45A974, size: 0x8, addend: 0x0, symName: __ZN21llm_build_gemma2_iswaD0Ev, symObjAddr: 0x46CA0, symBinAddr: 0xA2278, symSize: 0x4 }
  - { offset: 0x45AA02, size: 0x8, addend: 0x0, symName: __ZN21llm_build_gemma3_iswaD1Ev, symObjAddr: 0x47310, symBinAddr: 0xA28E8, symSize: 0x4 }
  - { offset: 0x45AA2E, size: 0x8, addend: 0x0, symName: __ZN21llm_build_gemma3_iswaD0Ev, symObjAddr: 0x47314, symBinAddr: 0xA28EC, symSize: 0x4 }
  - { offset: 0x45AAE4, size: 0x8, addend: 0x0, symName: __ZN22llm_build_gemma3n_iswa20get_per_layer_inputsEv, symObjAddr: 0x483F8, symBinAddr: 0xA39D0, symSize: 0x15C }
  - { offset: 0x45ADC2, size: 0x8, addend: 0x0, symName: __ZN22llm_build_gemma3n_iswa24project_per_layer_inputsEP11ggml_tensorS1_, symObjAddr: 0x482D0, symBinAddr: 0xA38A8, symSize: 0x128 }
  - { offset: 0x45AF42, size: 0x8, addend: 0x0, symName: __ZN22llm_build_gemma3n_iswa13altup_predictEP11ggml_tensori, symObjAddr: 0x48554, symBinAddr: 0xA3B2C, symSize: 0x23C }
  - { offset: 0x45B1DB, size: 0x8, addend: 0x0, symName: __ZN22llm_build_gemma3n_iswa13gaussian_topkEP11ggml_tensor, symObjAddr: 0x48790, symBinAddr: 0xA3D68, symSize: 0xCC }
  - { offset: 0x45B1EE, size: 0x8, addend: 0x0, symName: __ZN22llm_build_gemma3n_iswa13gaussian_topkEP11ggml_tensor, symObjAddr: 0x48790, symBinAddr: 0xA3D68, symSize: 0xCC }
  - { offset: 0x45B348, size: 0x8, addend: 0x0, symName: __ZN22llm_build_gemma3n_iswa13altup_correctEP11ggml_tensorS1_i, symObjAddr: 0x4885C, symBinAddr: 0xA3E34, symSize: 0x254 }
  - { offset: 0x45B5BE, size: 0x8, addend: 0x0, symName: __ZN22llm_build_gemma3n_iswaD1Ev, symObjAddr: 0x48AB0, symBinAddr: 0xA4088, symSize: 0x4 }
  - { offset: 0x45B84F, size: 0x8, addend: 0x0, symName: __ZN22llm_build_gemma3n_iswaD1Ev, symObjAddr: 0x48AB0, symBinAddr: 0xA4088, symSize: 0x4 }
  - { offset: 0x45B87B, size: 0x8, addend: 0x0, symName: __ZN22llm_build_gemma3n_iswaD0Ev, symObjAddr: 0x48AB4, symBinAddr: 0xA408C, symSize: 0x4 }
  - { offset: 0x45B8A7, size: 0x8, addend: 0x0, symName: __ZN20llm_build_starcoder2D1Ev, symObjAddr: 0x49088, symBinAddr: 0xA4660, symSize: 0x4 }
  - { offset: 0x45B8D3, size: 0x8, addend: 0x0, symName: __ZN20llm_build_starcoder2D0Ev, symObjAddr: 0x4908C, symBinAddr: 0xA4664, symSize: 0x4 }
  - { offset: 0x45BE30, size: 0x8, addend: 0x0, symName: __ZN15llm_build_mambaD1Ev, symObjAddr: 0x4A2D0, symBinAddr: 0xA58A8, symSize: 0x4 }
  - { offset: 0x45BE5C, size: 0x8, addend: 0x0, symName: __ZN15llm_build_mambaD0Ev, symObjAddr: 0x4A2D4, symBinAddr: 0xA58AC, symSize: 0x4 }
  - { offset: 0x45BE88, size: 0x8, addend: 0x0, symName: __ZNSt3__110__function6__funcIZNK23llm_graph_context_mamba18build_mamba2_layerEP18llm_graph_input_rsP11ggml_tensorRK11llama_modelRK12llama_ubatchiEUlP12ggml_contextS6_S6_E_NS_9allocatorISF_EEFS6_SE_S6_S6_EED1Ev, symObjAddr: 0x4A2D8, symBinAddr: 0xA58B0, symSize: 0x4 }
  - { offset: 0x45BEB4, size: 0x8, addend: 0x0, symName: __ZNSt3__110__function6__funcIZNK23llm_graph_context_mamba18build_mamba2_layerEP18llm_graph_input_rsP11ggml_tensorRK11llama_modelRK12llama_ubatchiEUlP12ggml_contextS6_S6_E_NS_9allocatorISF_EEFS6_SE_S6_S6_EED0Ev, symObjAddr: 0x4A2DC, symBinAddr: 0xA58B4, symSize: 0x4 }
  - { offset: 0x45BFA4, size: 0x8, addend: 0x0, symName: __ZNKSt3__110__function6__funcIZNK23llm_graph_context_mamba18build_mamba2_layerEP18llm_graph_input_rsP11ggml_tensorRK11llama_modelRK12llama_ubatchiEUlP12ggml_contextS6_S6_E_NS_9allocatorISF_EEFS6_SE_S6_S6_EE7__cloneEv, symObjAddr: 0x4A2E0, symBinAddr: 0xA58B8, symSize: 0x5C }
  - { offset: 0x45C1B7, size: 0x8, addend: 0x0, symName: __ZNKSt3__110__function6__funcIZNK23llm_graph_context_mamba18build_mamba2_layerEP18llm_graph_input_rsP11ggml_tensorRK11llama_modelRK12llama_ubatchiEUlP12ggml_contextS6_S6_E_NS_9allocatorISF_EEFS6_SE_S6_S6_EE7__cloneEPNS0_6__baseISI_EE, symObjAddr: 0x4A33C, symBinAddr: 0xA5914, symSize: 0x3C }
  - { offset: 0x45C1EC, size: 0x8, addend: 0x0, symName: __ZNKSt3__110__function6__funcIZNK23llm_graph_context_mamba18build_mamba2_layerEP18llm_graph_input_rsP11ggml_tensorRK11llama_modelRK12llama_ubatchiEUlP12ggml_contextS6_S6_E_NS_9allocatorISF_EEFS6_SE_S6_S6_EE7__cloneEPNS0_6__baseISI_EE, symObjAddr: 0x4A33C, symBinAddr: 0xA5914, symSize: 0x3C }
  - { offset: 0x45C21A, size: 0x8, addend: 0x0, symName: __ZNKSt3__110__function6__funcIZNK23llm_graph_context_mamba18build_mamba2_layerEP18llm_graph_input_rsP11ggml_tensorRK11llama_modelRK12llama_ubatchiEUlP12ggml_contextS6_S6_E_NS_9allocatorISF_EEFS6_SE_S6_S6_EE7__cloneEPNS0_6__baseISI_EE, symObjAddr: 0x4A33C, symBinAddr: 0xA5914, symSize: 0x3C }
  - { offset: 0x45C2A9, size: 0x8, addend: 0x0, symName: __ZNSt3__110__function6__funcIZNK23llm_graph_context_mamba18build_mamba2_layerEP18llm_graph_input_rsP11ggml_tensorRK11llama_modelRK12llama_ubatchiEUlP12ggml_contextS6_S6_E_NS_9allocatorISF_EEFS6_SE_S6_S6_EE7destroyEv, symObjAddr: 0x4A378, symBinAddr: 0xA5950, symSize: 0x4 }
  - { offset: 0x45C2FF, size: 0x8, addend: 0x0, symName: __ZNSt3__110__function6__funcIZNK23llm_graph_context_mamba18build_mamba2_layerEP18llm_graph_input_rsP11ggml_tensorRK11llama_modelRK12llama_ubatchiEUlP12ggml_contextS6_S6_E_NS_9allocatorISF_EEFS6_SE_S6_S6_EE18destroy_deallocateEv, symObjAddr: 0x4A37C, symBinAddr: 0xA5954, symSize: 0x4 }
  - { offset: 0x45C334, size: 0x8, addend: 0x0, symName: __ZNSt3__110__function6__funcIZNK23llm_graph_context_mamba18build_mamba2_layerEP18llm_graph_input_rsP11ggml_tensorRK11llama_modelRK12llama_ubatchiEUlP12ggml_contextS6_S6_E_NS_9allocatorISF_EEFS6_SE_S6_S6_EE18destroy_deallocateEv, symObjAddr: 0x4A37C, symBinAddr: 0xA5954, symSize: 0x4 }
  - { offset: 0x45C357, size: 0x8, addend: 0x0, symName: __ZNSt3__110__function6__funcIZNK23llm_graph_context_mamba18build_mamba2_layerEP18llm_graph_input_rsP11ggml_tensorRK11llama_modelRK12llama_ubatchiEUlP12ggml_contextS6_S6_E_NS_9allocatorISF_EEFS6_SE_S6_S6_EE18destroy_deallocateEv, symObjAddr: 0x4A37C, symBinAddr: 0xA5954, symSize: 0x4 }
  - { offset: 0x45C38B, size: 0x8, addend: 0x0, symName: __ZNSt3__110__function6__funcIZNK23llm_graph_context_mamba18build_mamba2_layerEP18llm_graph_input_rsP11ggml_tensorRK11llama_modelRK12llama_ubatchiEUlP12ggml_contextS6_S6_E_NS_9allocatorISF_EEFS6_SE_S6_S6_EE18destroy_deallocateEv, symObjAddr: 0x4A37C, symBinAddr: 0xA5954, symSize: 0x4 }
  - { offset: 0x45C487, size: 0x8, addend: 0x0, symName: __ZNSt3__110__function6__funcIZNK23llm_graph_context_mamba18build_mamba2_layerEP18llm_graph_input_rsP11ggml_tensorRK11llama_modelRK12llama_ubatchiEUlP12ggml_contextS6_S6_E_NS_9allocatorISF_EEFS6_SE_S6_S6_EEclEOSE_OS6_SL_, symObjAddr: 0x4A380, symBinAddr: 0xA5958, symSize: 0xA4 }
  - { offset: 0x45C640, size: 0x8, addend: 0x0, symName: __ZNKSt3__110__function6__funcIZNK23llm_graph_context_mamba18build_mamba2_layerEP18llm_graph_input_rsP11ggml_tensorRK11llama_modelRK12llama_ubatchiEUlP12ggml_contextS6_S6_E_NS_9allocatorISF_EEFS6_SE_S6_S6_EE6targetERKSt9type_info, symObjAddr: 0x4A424, symBinAddr: 0xA59FC, symSize: 0x74 }
  - { offset: 0x45C6EE, size: 0x8, addend: 0x0, symName: __ZNKSt3__110__function6__funcIZNK23llm_graph_context_mamba18build_mamba2_layerEP18llm_graph_input_rsP11ggml_tensorRK11llama_modelRK12llama_ubatchiEUlP12ggml_contextS6_S6_E_NS_9allocatorISF_EEFS6_SE_S6_S6_EE11target_typeEv, symObjAddr: 0x4A498, symBinAddr: 0xA5A70, symSize: 0xC }
  - { offset: 0x45C715, size: 0x8, addend: 0x0, symName: __ZNSt3__110__function6__funcIZN23llm_graph_context_mamba17build_mamba_layerEP18llm_graph_input_rsP11ggml_tensorRK11llama_modelRK12llama_ubatchiEUlP12ggml_contextS6_S6_E_NS_9allocatorISF_EEFS6_SE_S6_S6_EED1Ev, symObjAddr: 0x4A4A4, symBinAddr: 0xA5A7C, symSize: 0x4 }
  - { offset: 0x45C741, size: 0x8, addend: 0x0, symName: __ZNSt3__110__function6__funcIZN23llm_graph_context_mamba17build_mamba_layerEP18llm_graph_input_rsP11ggml_tensorRK11llama_modelRK12llama_ubatchiEUlP12ggml_contextS6_S6_E_NS_9allocatorISF_EEFS6_SE_S6_S6_EED0Ev, symObjAddr: 0x4A4A8, symBinAddr: 0xA5A80, symSize: 0x4 }
  - { offset: 0x45C831, size: 0x8, addend: 0x0, symName: __ZNKSt3__110__function6__funcIZN23llm_graph_context_mamba17build_mamba_layerEP18llm_graph_input_rsP11ggml_tensorRK11llama_modelRK12llama_ubatchiEUlP12ggml_contextS6_S6_E_NS_9allocatorISF_EEFS6_SE_S6_S6_EE7__cloneEv, symObjAddr: 0x4A4AC, symBinAddr: 0xA5A84, symSize: 0x54 }
  - { offset: 0x45CA44, size: 0x8, addend: 0x0, symName: __ZNKSt3__110__function6__funcIZN23llm_graph_context_mamba17build_mamba_layerEP18llm_graph_input_rsP11ggml_tensorRK11llama_modelRK12llama_ubatchiEUlP12ggml_contextS6_S6_E_NS_9allocatorISF_EEFS6_SE_S6_S6_EE7__cloneEPNS0_6__baseISI_EE, symObjAddr: 0x4A500, symBinAddr: 0xA5AD8, symSize: 0x34 }
  - { offset: 0x45CA79, size: 0x8, addend: 0x0, symName: __ZNKSt3__110__function6__funcIZN23llm_graph_context_mamba17build_mamba_layerEP18llm_graph_input_rsP11ggml_tensorRK11llama_modelRK12llama_ubatchiEUlP12ggml_contextS6_S6_E_NS_9allocatorISF_EEFS6_SE_S6_S6_EE7__cloneEPNS0_6__baseISI_EE, symObjAddr: 0x4A500, symBinAddr: 0xA5AD8, symSize: 0x34 }
  - { offset: 0x45CAA7, size: 0x8, addend: 0x0, symName: __ZNKSt3__110__function6__funcIZN23llm_graph_context_mamba17build_mamba_layerEP18llm_graph_input_rsP11ggml_tensorRK11llama_modelRK12llama_ubatchiEUlP12ggml_contextS6_S6_E_NS_9allocatorISF_EEFS6_SE_S6_S6_EE7__cloneEPNS0_6__baseISI_EE, symObjAddr: 0x4A500, symBinAddr: 0xA5AD8, symSize: 0x34 }
  - { offset: 0x45CB36, size: 0x8, addend: 0x0, symName: __ZNSt3__110__function6__funcIZN23llm_graph_context_mamba17build_mamba_layerEP18llm_graph_input_rsP11ggml_tensorRK11llama_modelRK12llama_ubatchiEUlP12ggml_contextS6_S6_E_NS_9allocatorISF_EEFS6_SE_S6_S6_EE7destroyEv, symObjAddr: 0x4A534, symBinAddr: 0xA5B0C, symSize: 0x4 }
  - { offset: 0x45CB8C, size: 0x8, addend: 0x0, symName: __ZNSt3__110__function6__funcIZN23llm_graph_context_mamba17build_mamba_layerEP18llm_graph_input_rsP11ggml_tensorRK11llama_modelRK12llama_ubatchiEUlP12ggml_contextS6_S6_E_NS_9allocatorISF_EEFS6_SE_S6_S6_EE18destroy_deallocateEv, symObjAddr: 0x4A538, symBinAddr: 0xA5B10, symSize: 0x4 }
  - { offset: 0x45CBC1, size: 0x8, addend: 0x0, symName: __ZNSt3__110__function6__funcIZN23llm_graph_context_mamba17build_mamba_layerEP18llm_graph_input_rsP11ggml_tensorRK11llama_modelRK12llama_ubatchiEUlP12ggml_contextS6_S6_E_NS_9allocatorISF_EEFS6_SE_S6_S6_EE18destroy_deallocateEv, symObjAddr: 0x4A538, symBinAddr: 0xA5B10, symSize: 0x4 }
  - { offset: 0x45CBE4, size: 0x8, addend: 0x0, symName: __ZNSt3__110__function6__funcIZN23llm_graph_context_mamba17build_mamba_layerEP18llm_graph_input_rsP11ggml_tensorRK11llama_modelRK12llama_ubatchiEUlP12ggml_contextS6_S6_E_NS_9allocatorISF_EEFS6_SE_S6_S6_EE18destroy_deallocateEv, symObjAddr: 0x4A538, symBinAddr: 0xA5B10, symSize: 0x4 }
  - { offset: 0x45CC18, size: 0x8, addend: 0x0, symName: __ZNSt3__110__function6__funcIZN23llm_graph_context_mamba17build_mamba_layerEP18llm_graph_input_rsP11ggml_tensorRK11llama_modelRK12llama_ubatchiEUlP12ggml_contextS6_S6_E_NS_9allocatorISF_EEFS6_SE_S6_S6_EE18destroy_deallocateEv, symObjAddr: 0x4A538, symBinAddr: 0xA5B10, symSize: 0x4 }
  - { offset: 0x45CD14, size: 0x8, addend: 0x0, symName: __ZNSt3__110__function6__funcIZN23llm_graph_context_mamba17build_mamba_layerEP18llm_graph_input_rsP11ggml_tensorRK11llama_modelRK12llama_ubatchiEUlP12ggml_contextS6_S6_E_NS_9allocatorISF_EEFS6_SE_S6_S6_EEclEOSE_OS6_SL_, symObjAddr: 0x4A53C, symBinAddr: 0xA5B14, symSize: 0x98 }
  - { offset: 0x45CECC, size: 0x8, addend: 0x0, symName: __ZNKSt3__110__function6__funcIZN23llm_graph_context_mamba17build_mamba_layerEP18llm_graph_input_rsP11ggml_tensorRK11llama_modelRK12llama_ubatchiEUlP12ggml_contextS6_S6_E_NS_9allocatorISF_EEFS6_SE_S6_S6_EE6targetERKSt9type_info, symObjAddr: 0x4A5D4, symBinAddr: 0xA5BAC, symSize: 0x74 }
  - { offset: 0x45CF7A, size: 0x8, addend: 0x0, symName: __ZNKSt3__110__function6__funcIZN23llm_graph_context_mamba17build_mamba_layerEP18llm_graph_input_rsP11ggml_tensorRK11llama_modelRK12llama_ubatchiEUlP12ggml_contextS6_S6_E_NS_9allocatorISF_EEFS6_SE_S6_S6_EE11target_typeEv, symObjAddr: 0x4A648, symBinAddr: 0xA5C20, symSize: 0xC }
  - { offset: 0x45CFA1, size: 0x8, addend: 0x0, symName: __ZN15llm_build_jambaD1Ev, symObjAddr: 0x4AB50, symBinAddr: 0xA6128, symSize: 0x4 }
  - { offset: 0x45CFCD, size: 0x8, addend: 0x0, symName: __ZN15llm_build_jambaD0Ev, symObjAddr: 0x4AB54, symBinAddr: 0xA612C, symSize: 0x4 }
  - { offset: 0x45CFF9, size: 0x8, addend: 0x0, symName: __ZN16llm_build_xverseD1Ev, symObjAddr: 0x4B07C, symBinAddr: 0xA6654, symSize: 0x4 }
  - { offset: 0x45D025, size: 0x8, addend: 0x0, symName: __ZN16llm_build_xverseD0Ev, symObjAddr: 0x4B080, symBinAddr: 0xA6658, symSize: 0x4 }
  - { offset: 0x45D051, size: 0x8, addend: 0x0, symName: __ZN19llm_build_command_rD1Ev, symObjAddr: 0x4B6A4, symBinAddr: 0xA6C7C, symSize: 0x4 }
  - { offset: 0x45D07D, size: 0x8, addend: 0x0, symName: __ZN19llm_build_command_rD0Ev, symObjAddr: 0x4B6A8, symBinAddr: 0xA6C80, symSize: 0x4 }
  - { offset: 0x45D0A9, size: 0x8, addend: 0x0, symName: __ZN22llm_build_cohere2_iswaD1Ev, symObjAddr: 0x4BCA0, symBinAddr: 0xA7278, symSize: 0x4 }
  - { offset: 0x45D0D5, size: 0x8, addend: 0x0, symName: __ZN22llm_build_cohere2_iswaD0Ev, symObjAddr: 0x4BCA4, symBinAddr: 0xA727C, symSize: 0x4 }
  - { offset: 0x45D101, size: 0x8, addend: 0x0, symName: __ZN14llm_build_dbrxD1Ev, symObjAddr: 0x4C210, symBinAddr: 0xA77E8, symSize: 0x4 }
  - { offset: 0x45D12D, size: 0x8, addend: 0x0, symName: __ZN14llm_build_dbrxD0Ev, symObjAddr: 0x4C214, symBinAddr: 0xA77EC, symSize: 0x4 }
  - { offset: 0x45D159, size: 0x8, addend: 0x0, symName: __ZN14llm_build_olmoD1Ev, symObjAddr: 0x4C81C, symBinAddr: 0xA7DF4, symSize: 0x4 }
  - { offset: 0x45D185, size: 0x8, addend: 0x0, symName: __ZN14llm_build_olmoD0Ev, symObjAddr: 0x4C820, symBinAddr: 0xA7DF8, symSize: 0x4 }
  - { offset: 0x45D1B1, size: 0x8, addend: 0x0, symName: __ZN15llm_build_olmo2D1Ev, symObjAddr: 0x4CDE8, symBinAddr: 0xA83C0, symSize: 0x4 }
  - { offset: 0x45D1DD, size: 0x8, addend: 0x0, symName: __ZN15llm_build_olmo2D0Ev, symObjAddr: 0x4CDEC, symBinAddr: 0xA83C4, symSize: 0x4 }
  - { offset: 0x45D209, size: 0x8, addend: 0x0, symName: __ZN15llm_build_olmoeD1Ev, symObjAddr: 0x4D394, symBinAddr: 0xA896C, symSize: 0x4 }
  - { offset: 0x45D235, size: 0x8, addend: 0x0, symName: __ZN15llm_build_olmoeD0Ev, symObjAddr: 0x4D398, symBinAddr: 0xA8970, symSize: 0x4 }
  - { offset: 0x45D261, size: 0x8, addend: 0x0, symName: __ZN17llm_build_openelmD1Ev, symObjAddr: 0x4D978, symBinAddr: 0xA8F50, symSize: 0x4 }
  - { offset: 0x45D28D, size: 0x8, addend: 0x0, symName: __ZN17llm_build_openelmD0Ev, symObjAddr: 0x4D97C, symBinAddr: 0xA8F54, symSize: 0x4 }
  - { offset: 0x45D2B9, size: 0x8, addend: 0x0, symName: __ZN17llm_build_gptneoxD1Ev, symObjAddr: 0x4DF94, symBinAddr: 0xA956C, symSize: 0x4 }
  - { offset: 0x45D2E5, size: 0x8, addend: 0x0, symName: __ZN17llm_build_gptneoxD0Ev, symObjAddr: 0x4DF98, symBinAddr: 0xA9570, symSize: 0x4 }
  - { offset: 0x45D311, size: 0x8, addend: 0x0, symName: __ZN16llm_build_arcticD1Ev, symObjAddr: 0x4E59C, symBinAddr: 0xA9B74, symSize: 0x4 }
  - { offset: 0x45D33D, size: 0x8, addend: 0x0, symName: __ZN16llm_build_arcticD0Ev, symObjAddr: 0x4E5A0, symBinAddr: 0xA9B78, symSize: 0x4 }
  - { offset: 0x45D369, size: 0x8, addend: 0x0, symName: __ZN18llm_build_deepseekD1Ev, symObjAddr: 0x4ECAC, symBinAddr: 0xAA284, symSize: 0x4 }
  - { offset: 0x45D395, size: 0x8, addend: 0x0, symName: __ZN18llm_build_deepseekD0Ev, symObjAddr: 0x4ECB0, symBinAddr: 0xAA288, symSize: 0x4 }
  - { offset: 0x45D3C1, size: 0x8, addend: 0x0, symName: __ZN19llm_build_deepseek2D1Ev, symObjAddr: 0x4F85C, symBinAddr: 0xAAE34, symSize: 0x4 }
  - { offset: 0x45D3ED, size: 0x8, addend: 0x0, symName: __ZN19llm_build_deepseek2D0Ev, symObjAddr: 0x4F860, symBinAddr: 0xAAE38, symSize: 0x4 }
  - { offset: 0x45D419, size: 0x8, addend: 0x0, symName: __ZN17llm_build_chatglmD1Ev, symObjAddr: 0x4FE74, symBinAddr: 0xAB44C, symSize: 0x4 }
  - { offset: 0x45D445, size: 0x8, addend: 0x0, symName: __ZN17llm_build_chatglmD0Ev, symObjAddr: 0x4FE78, symBinAddr: 0xAB450, symSize: 0x4 }
  - { offset: 0x45D471, size: 0x8, addend: 0x0, symName: __ZN14llm_build_glm4D1Ev, symObjAddr: 0x5050C, symBinAddr: 0xABAE4, symSize: 0x4 }
  - { offset: 0x45D49D, size: 0x8, addend: 0x0, symName: __ZN14llm_build_glm4D0Ev, symObjAddr: 0x50510, symBinAddr: 0xABAE8, symSize: 0x4 }
  - { offset: 0x45D4C9, size: 0x8, addend: 0x0, symName: __ZN18llm_build_glm4_moeD1Ev, symObjAddr: 0x50BFC, symBinAddr: 0xAC1D4, symSize: 0x4 }
  - { offset: 0x45D4F5, size: 0x8, addend: 0x0, symName: __ZN18llm_build_glm4_moeD0Ev, symObjAddr: 0x50C00, symBinAddr: 0xAC1D8, symSize: 0x4 }
  - { offset: 0x45D521, size: 0x8, addend: 0x0, symName: __ZN16llm_build_bitnetD1Ev, symObjAddr: 0x5133C, symBinAddr: 0xAC914, symSize: 0x4 }
  - { offset: 0x45D54D, size: 0x8, addend: 0x0, symName: __ZN16llm_build_bitnetD0Ev, symObjAddr: 0x51340, symBinAddr: 0xAC918, symSize: 0x4 }
  - { offset: 0x45D579, size: 0x8, addend: 0x0, symName: __ZN16llm_build_t5_encD1Ev, symObjAddr: 0x517B8, symBinAddr: 0xACD90, symSize: 0x4 }
  - { offset: 0x45D5A5, size: 0x8, addend: 0x0, symName: __ZN16llm_build_t5_encD0Ev, symObjAddr: 0x517BC, symBinAddr: 0xACD94, symSize: 0x4 }
  - { offset: 0x45D5D1, size: 0x8, addend: 0x0, symName: __ZN16llm_build_t5_decD1Ev, symObjAddr: 0x51E3C, symBinAddr: 0xAD414, symSize: 0x4 }
  - { offset: 0x45D5FD, size: 0x8, addend: 0x0, symName: __ZN16llm_build_t5_decD0Ev, symObjAddr: 0x51E40, symBinAddr: 0xAD418, symSize: 0x4 }
  - { offset: 0x45D629, size: 0x8, addend: 0x0, symName: __ZN14llm_build_jaisD1Ev, symObjAddr: 0x522F8, symBinAddr: 0xAD8D0, symSize: 0x4 }
  - { offset: 0x45D655, size: 0x8, addend: 0x0, symName: __ZN14llm_build_jaisD0Ev, symObjAddr: 0x522FC, symBinAddr: 0xAD8D4, symSize: 0x4 }
  - { offset: 0x45D681, size: 0x8, addend: 0x0, symName: __ZN18llm_build_nemotronD1Ev, symObjAddr: 0x528A8, symBinAddr: 0xADE80, symSize: 0x4 }
  - { offset: 0x45D6AD, size: 0x8, addend: 0x0, symName: __ZN18llm_build_nemotronD0Ev, symObjAddr: 0x528AC, symBinAddr: 0xADE84, symSize: 0x4 }
  - { offset: 0x45D6D9, size: 0x8, addend: 0x0, symName: __ZN16llm_build_exaoneD1Ev, symObjAddr: 0x52EE8, symBinAddr: 0xAE4C0, symSize: 0x4 }
  - { offset: 0x45D705, size: 0x8, addend: 0x0, symName: __ZN16llm_build_exaoneD0Ev, symObjAddr: 0x52EEC, symBinAddr: 0xAE4C4, symSize: 0x4 }
  - { offset: 0x45D731, size: 0x8, addend: 0x0, symName: __ZN17llm_build_exaone4ILb1EED1Ev, symObjAddr: 0x53534, symBinAddr: 0xAEB0C, symSize: 0x4 }
  - { offset: 0x45D75D, size: 0x8, addend: 0x0, symName: __ZN17llm_build_exaone4ILb1EED0Ev, symObjAddr: 0x53538, symBinAddr: 0xAEB10, symSize: 0x4 }
  - { offset: 0x45D789, size: 0x8, addend: 0x0, symName: __ZN17llm_build_exaone4ILb0EED1Ev, symObjAddr: 0x53B80, symBinAddr: 0xAF158, symSize: 0x4 }
  - { offset: 0x45D7B5, size: 0x8, addend: 0x0, symName: __ZN17llm_build_exaone4ILb0EED0Ev, symObjAddr: 0x53B84, symBinAddr: 0xAF15C, symSize: 0x4 }
  - { offset: 0x45D818, size: 0x8, addend: 0x0, symName: __ZNK20llm_build_rwkv6_base20build_rwkv6_time_mixEP18llm_graph_input_rsP11ggml_tensorS3_RK12llama_ubatchi, symObjAddr: 0x54120, symBinAddr: 0xAF6F8, symSize: 0xA54 }
  - { offset: 0x45E5D2, size: 0x8, addend: 0x0, symName: __ZNK20llm_build_rwkv6_base23build_rwkv6_channel_mixEPK11llama_layerP11ggml_tensorS4_8llm_arch, symObjAddr: 0x54B74, symBinAddr: 0xB014C, symSize: 0x124 }
  - { offset: 0x45E768, size: 0x8, addend: 0x0, symName: __ZN15llm_build_rwkv6D1Ev, symObjAddr: 0x54C98, symBinAddr: 0xB0270, symSize: 0x4 }
  - { offset: 0x45E811, size: 0x8, addend: 0x0, symName: __ZN15llm_build_rwkv6D1Ev, symObjAddr: 0x54C98, symBinAddr: 0xB0270, symSize: 0x4 }
  - { offset: 0x45E83D, size: 0x8, addend: 0x0, symName: __ZN15llm_build_rwkv6D0Ev, symObjAddr: 0x54C9C, symBinAddr: 0xB0274, symSize: 0x4 }
  - { offset: 0x45E869, size: 0x8, addend: 0x0, symName: __ZN20llm_build_rwkv6qwen2D1Ev, symObjAddr: 0x550F4, symBinAddr: 0xB06CC, symSize: 0x4 }
  - { offset: 0x45E895, size: 0x8, addend: 0x0, symName: __ZN20llm_build_rwkv6qwen2D0Ev, symObjAddr: 0x550F8, symBinAddr: 0xB06D0, symSize: 0x4 }
  - { offset: 0x45E969, size: 0x8, addend: 0x0, symName: __ZNK20llm_build_rwkv7_base20build_rwkv7_time_mixEP18llm_graph_input_rsP11ggml_tensorS3_RS3_RK12llama_ubatchi, symObjAddr: 0x556B4, symBinAddr: 0xB0C8C, symSize: 0x89C }
  - { offset: 0x45F5B7, size: 0x8, addend: 0x0, symName: __ZN15llm_build_rwkv7D1Ev, symObjAddr: 0x55F50, symBinAddr: 0xB1528, symSize: 0x4 }
  - { offset: 0x45F5E3, size: 0x8, addend: 0x0, symName: __ZN15llm_build_rwkv7D0Ev, symObjAddr: 0x55F54, symBinAddr: 0xB152C, symSize: 0x4 }
  - { offset: 0x45F60F, size: 0x8, addend: 0x0, symName: __ZN16llm_build_arwkv7D1Ev, symObjAddr: 0x563B4, symBinAddr: 0xB198C, symSize: 0x4 }
  - { offset: 0x45F63B, size: 0x8, addend: 0x0, symName: __ZN16llm_build_arwkv7D0Ev, symObjAddr: 0x563B8, symBinAddr: 0xB1990, symSize: 0x4 }
  - { offset: 0x45F667, size: 0x8, addend: 0x0, symName: __ZN17llm_build_granite15build_layer_ffnEP11ggml_tensorS1_RK11llama_modeli, symObjAddr: 0x56A90, symBinAddr: 0xB2068, symSize: 0x28C }
  - { offset: 0x45F7D4, size: 0x8, addend: 0x0, symName: __ZN17llm_build_granite21build_attention_layerEP11ggml_tensorS1_P23llm_graph_input_attn_kvRK11llama_modelxi, symObjAddr: 0x566E8, symBinAddr: 0xB1CC0, symSize: 0x3A8 }
  - { offset: 0x45FAE8, size: 0x8, addend: 0x0, symName: __ZN17llm_build_graniteD1Ev, symObjAddr: 0x56D1C, symBinAddr: 0xB22F4, symSize: 0x4 }
  - { offset: 0x45FB14, size: 0x8, addend: 0x0, symName: __ZN17llm_build_graniteD0Ev, symObjAddr: 0x56D20, symBinAddr: 0xB22F8, symSize: 0x4 }
  - { offset: 0x45FB40, size: 0x8, addend: 0x0, symName: __ZN24llm_build_granite_hybrid15build_layer_ffnEP11ggml_tensorS1_RK11llama_modeli, symObjAddr: 0x5739C, symBinAddr: 0xB2974, symSize: 0x28C }
  - { offset: 0x45FCAD, size: 0x8, addend: 0x0, symName: __ZN24llm_build_granite_hybrid21build_attention_layerEP11ggml_tensorS1_P23llm_graph_input_attn_kvRK11llama_modelxi, symObjAddr: 0x56FF4, symBinAddr: 0xB25CC, symSize: 0x3A8 }
  - { offset: 0x45FFC1, size: 0x8, addend: 0x0, symName: __ZN24llm_build_granite_hybridD1Ev, symObjAddr: 0x57628, symBinAddr: 0xB2C00, symSize: 0x4 }
  - { offset: 0x45FFED, size: 0x8, addend: 0x0, symName: __ZN24llm_build_granite_hybridD0Ev, symObjAddr: 0x5762C, symBinAddr: 0xB2C04, symSize: 0x4 }
  - { offset: 0x46003B, size: 0x8, addend: 0x0, symName: __ZN19llm_build_chameleonD1Ev, symObjAddr: 0x57E58, symBinAddr: 0xB3430, symSize: 0x4 }
  - { offset: 0x460067, size: 0x8, addend: 0x0, symName: __ZN19llm_build_chameleonD0Ev, symObjAddr: 0x57E5C, symBinAddr: 0xB3434, symSize: 0x4 }
  - { offset: 0x460108, size: 0x8, addend: 0x0, symName: __ZN26llm_build_wavtokenizer_decD1Ev, symObjAddr: 0x583F8, symBinAddr: 0xB39D0, symSize: 0x4 }
  - { offset: 0x460134, size: 0x8, addend: 0x0, symName: __ZN26llm_build_wavtokenizer_decD0Ev, symObjAddr: 0x583FC, symBinAddr: 0xB39D4, symSize: 0x4 }
  - { offset: 0x460160, size: 0x8, addend: 0x0, symName: __ZN13llm_build_plmD1Ev, symObjAddr: 0x58C74, symBinAddr: 0xB424C, symSize: 0x4 }
  - { offset: 0x46018C, size: 0x8, addend: 0x0, symName: __ZN13llm_build_plmD0Ev, symObjAddr: 0x58C78, symBinAddr: 0xB4250, symSize: 0x4 }
  - { offset: 0x4601B8, size: 0x8, addend: 0x0, symName: __ZN20llm_build_bailingmoeD1Ev, symObjAddr: 0x592C0, symBinAddr: 0xB4898, symSize: 0x4 }
  - { offset: 0x4601E4, size: 0x8, addend: 0x0, symName: __ZN20llm_build_bailingmoeD0Ev, symObjAddr: 0x592C4, symBinAddr: 0xB489C, symSize: 0x4 }
  - { offset: 0x460210, size: 0x8, addend: 0x0, symName: __ZN18llm_build_seed_ossD1Ev, symObjAddr: 0x598DC, symBinAddr: 0xB4EB4, symSize: 0x4 }
  - { offset: 0x46023C, size: 0x8, addend: 0x0, symName: __ZN18llm_build_seed_ossD0Ev, symObjAddr: 0x598E0, symBinAddr: 0xB4EB8, symSize: 0x4 }
  - { offset: 0x460268, size: 0x8, addend: 0x0, symName: __ZN15llm_build_dots1D1Ev, symObjAddr: 0x59F6C, symBinAddr: 0xB5544, symSize: 0x4 }
  - { offset: 0x460294, size: 0x8, addend: 0x0, symName: __ZN15llm_build_dots1D0Ev, symObjAddr: 0x59F70, symBinAddr: 0xB5548, symSize: 0x4 }
  - { offset: 0x4602C0, size: 0x8, addend: 0x0, symName: __ZN15llm_build_arceeD1Ev, symObjAddr: 0x5A5D8, symBinAddr: 0xB5BB0, symSize: 0x4 }
  - { offset: 0x4602EC, size: 0x8, addend: 0x0, symName: __ZN15llm_build_arceeD0Ev, symObjAddr: 0x5A5DC, symBinAddr: 0xB5BB4, symSize: 0x4 }
  - { offset: 0x460318, size: 0x8, addend: 0x0, symName: __ZN18llm_build_ernie4_5D1Ev, symObjAddr: 0x5ABA4, symBinAddr: 0xB617C, symSize: 0x4 }
  - { offset: 0x460344, size: 0x8, addend: 0x0, symName: __ZN18llm_build_ernie4_5D0Ev, symObjAddr: 0x5ABA8, symBinAddr: 0xB6180, symSize: 0x4 }
  - { offset: 0x460370, size: 0x8, addend: 0x0, symName: __ZN22llm_build_ernie4_5_moeD1Ev, symObjAddr: 0x5B328, symBinAddr: 0xB6900, symSize: 0x4 }
  - { offset: 0x46039C, size: 0x8, addend: 0x0, symName: __ZN22llm_build_ernie4_5_moeD0Ev, symObjAddr: 0x5B32C, symBinAddr: 0xB6904, symSize: 0x4 }
  - { offset: 0x4603C8, size: 0x8, addend: 0x0, symName: __ZN21llm_build_hunyuan_moeD1Ev, symObjAddr: 0x5BA78, symBinAddr: 0xB7050, symSize: 0x4 }
  - { offset: 0x4603F4, size: 0x8, addend: 0x0, symName: __ZN21llm_build_hunyuan_moeD0Ev, symObjAddr: 0x5BA7C, symBinAddr: 0xB7054, symSize: 0x4 }
  - { offset: 0x460420, size: 0x8, addend: 0x0, symName: __ZN23llm_build_hunyuan_denseD1Ev, symObjAddr: 0x5C144, symBinAddr: 0xB771C, symSize: 0x4 }
  - { offset: 0x46044C, size: 0x8, addend: 0x0, symName: __ZN23llm_build_hunyuan_denseD0Ev, symObjAddr: 0x5C148, symBinAddr: 0xB7720, symSize: 0x4 }
  - { offset: 0x460478, size: 0x8, addend: 0x0, symName: __ZN17llm_build_smollm3D1Ev, symObjAddr: 0x5C794, symBinAddr: 0xB7D6C, symSize: 0x4 }
  - { offset: 0x4604A4, size: 0x8, addend: 0x0, symName: __ZN17llm_build_smollm3D0Ev, symObjAddr: 0x5C798, symBinAddr: 0xB7D70, symSize: 0x4 }
  - { offset: 0x4604D0, size: 0x8, addend: 0x0, symName: __ZN25llm_build_openai_moe_iswaD1Ev, symObjAddr: 0x5CD30, symBinAddr: 0xB8308, symSize: 0x4 }
  - { offset: 0x4604FC, size: 0x8, addend: 0x0, symName: __ZN25llm_build_openai_moe_iswaD0Ev, symObjAddr: 0x5CD34, symBinAddr: 0xB830C, symSize: 0x4 }
  - { offset: 0x460528, size: 0x8, addend: 0x0, symName: __ZN19llm_build_falcon_h1D1Ev, symObjAddr: 0x5D2C8, symBinAddr: 0xB88A0, symSize: 0x4 }
  - { offset: 0x460554, size: 0x8, addend: 0x0, symName: __ZN19llm_build_falcon_h1D0Ev, symObjAddr: 0x5D2CC, symBinAddr: 0xB88A4, symSize: 0x4 }
  - { offset: 0x460580, size: 0x8, addend: 0x0, symName: __ZNK14llm_build_lfm218build_feed_forwardEP11ggml_tensori, symObjAddr: 0x5DDC0, symBinAddr: 0xB9398, symSize: 0x158 }
  - { offset: 0x460634, size: 0x8, addend: 0x0, symName: __ZN14llm_build_lfm2D1Ev, symObjAddr: 0x5DF18, symBinAddr: 0xB94F0, symSize: 0x4 }
  - { offset: 0x460648, size: 0x8, addend: 0x0, symName: __ZN14llm_build_lfm221build_shortconv_blockEP11ggml_tensorP18llm_graph_input_rsi, symObjAddr: 0x5D53C, symBinAddr: 0xB8B14, symSize: 0x584 }
  - { offset: 0x460DDD, size: 0x8, addend: 0x0, symName: __ZNK14llm_build_lfm216build_attn_blockEP11ggml_tensorS1_P23llm_graph_input_attn_kvi, symObjAddr: 0x5DAC0, symBinAddr: 0xB9098, symSize: 0x300 }
  - { offset: 0x460FEE, size: 0x8, addend: 0x0, symName: __ZNK14llm_build_lfm218build_feed_forwardEP11ggml_tensori, symObjAddr: 0x5DDC0, symBinAddr: 0xB9398, symSize: 0x158 }
  - { offset: 0x46101A, size: 0x8, addend: 0x0, symName: __ZN14llm_build_lfm2D1Ev, symObjAddr: 0x5DF18, symBinAddr: 0xB94F0, symSize: 0x4 }
  - { offset: 0x461046, size: 0x8, addend: 0x0, symName: __ZN14llm_build_lfm2D0Ev, symObjAddr: 0x5DF1C, symBinAddr: 0xB94F4, symSize: 0x4 }
  - { offset: 0x461072, size: 0x8, addend: 0x0, symName: __ZN22llm_build_smallthinkerILb1EED1Ev, symObjAddr: 0x5E4A0, symBinAddr: 0xB9A78, symSize: 0x4 }
  - { offset: 0x46109E, size: 0x8, addend: 0x0, symName: __ZN22llm_build_smallthinkerILb1EED0Ev, symObjAddr: 0x5E4A4, symBinAddr: 0xB9A7C, symSize: 0x4 }
  - { offset: 0x4610CA, size: 0x8, addend: 0x0, symName: __ZN22llm_build_smallthinkerILb0EED1Ev, symObjAddr: 0x5EA28, symBinAddr: 0xBA000, symSize: 0x4 }
  - { offset: 0x4610F6, size: 0x8, addend: 0x0, symName: __ZN22llm_build_smallthinkerILb0EED0Ev, symObjAddr: 0x5EA2C, symBinAddr: 0xBA004, symSize: 0x4 }
  - { offset: 0x4611AB, size: 0x8, addend: 0x0, symName: __GLOBAL__sub_I_llama_model.cpp, symObjAddr: 0x67264, symBinAddr: 0xBA1BC, symSize: 0x98 }
  - { offset: 0x4633B9, size: 0x8, addend: 0x0, symName: __ZL25llama_model_quantize_implRKNSt3__112basic_stringIcNS_11char_traitsIcEENS_9allocatorIcEEEES7_PK27llama_model_quantize_params, symObjAddr: 0x254, symBinAddr: 0xBA4A8, symSize: 0x622C }
  - { offset: 0x499A2B, size: 0x8, addend: 0x0, symName: '__ZNSt3__111__introsortINS_17_ClassicAlgPolicyERZL25llama_model_quantize_implRKNS_12basic_stringIcNS_11char_traitsIcEENS_9allocatorIcEEEES9_PK27llama_model_quantize_paramsE3$_0PPKN18llama_model_loader19llama_tensor_weightELb0EEEvT1_SK_T0_NS_15iterator_traitsISK_E15difference_typeEb', symObjAddr: 0x125F4, symBinAddr: 0xC0ED4, symSize: 0xEA8 }
  - { offset: 0x49B7A0, size: 0x8, addend: 0x0, symName: '__ZNSt3__127__insertion_sort_incompleteB8ne200100INS_17_ClassicAlgPolicyERZL25llama_model_quantize_implRKNS_12basic_stringIcNS_11char_traitsIcEENS_9allocatorIcEEEES9_PK27llama_model_quantize_paramsE3$_0PPKN18llama_model_loader19llama_tensor_weightEEEbT1_SK_T0_', symObjAddr: 0x13610, symBinAddr: 0xC1EF0, symSize: 0x41C }
  - { offset: 0x4B2663, size: 0x8, addend: 0x0, symName: '__ZNSt3__17__sort4B8ne200100INS_17_ClassicAlgPolicyERZL25llama_model_quantize_implRKNS_12basic_stringIcNS_11char_traitsIcEENS_9allocatorIcEEEES9_PK27llama_model_quantize_paramsE3$_0PPKN18llama_model_loader19llama_tensor_weightELi0EEEvT1_SK_SK_SK_T0_', symObjAddr: 0x1349C, symBinAddr: 0xC1D7C, symSize: 0x174 }
  - { offset: 0x4B30C5, size: 0x8, addend: 0x0, symName: '__ZNSt3__114__thread_proxyB8ne200100INS_5tupleIJNS_10unique_ptrINS_15__thread_structENS_14default_deleteIS3_EEEEZL28llama_tensor_dequantize_implP11ggml_tensorRNS_6vectorI7no_initIfENS_9allocatorISB_EEEERNS9_INS_6threadENSC_ISG_EEEEmiE3$_09ggml_typePhPfmEEEEEPvSP_', symObjAddr: 0x17BB4, symBinAddr: 0xC283C, symSize: 0xB4 }
  - { offset: 0x4B34B1, size: 0x8, addend: 0x0, symName: '__ZNSt3__114__thread_proxyB8ne200100INS_5tupleIJNS_10unique_ptrINS_15__thread_structENS_14default_deleteIS3_EEEEZL26llama_tensor_quantize_impl9ggml_typePKfPvxxxS9_RNS_6vectorINS_6threadENS_9allocatorISC_EEEEiE3$_0EEEEESA_SA_', symObjAddr: 0x17E14, symBinAddr: 0xC2A60, symSize: 0x78 }
  - { offset: 0x4B7B37, size: 0x8, addend: 0x0, symName: _llama_model_quantize_default_params, symObjAddr: 0x0, symBinAddr: 0xBA254, symSize: 0x30 }
  - { offset: 0x4B7DDC, size: 0x8, addend: 0x0, symName: _llama_model_quantize, symObjAddr: 0x30, symBinAddr: 0xBA284, symSize: 0x224 }
  - { offset: 0x4BF76F, size: 0x8, addend: 0x0, symName: __ZNSt3__16vectorIiNS_9allocatorIiEEE18__assign_with_sizeB8ne200100IPiS5_EEvT_T0_l, symObjAddr: 0x6D20, symBinAddr: 0xC0D78, symSize: 0x148 }
  - { offset: 0x4C0AAB, size: 0x8, addend: 0x0, symName: '__ZZL25llama_model_quantize_implRKNSt3__112basic_stringIcNS_11char_traitsIcEENS_9allocatorIcEEEES7_PK27llama_model_quantize_paramsENK3$_2clEi', symObjAddr: 0x657C, symBinAddr: 0xC06D4, symSize: 0x394 }
  - { offset: 0x4C171F, size: 0x8, addend: 0x0, symName: '__ZZL25llama_model_quantize_implRKNSt3__112basic_stringIcNS_11char_traitsIcEENS_9allocatorIcEEEES7_PK27llama_model_quantize_paramsENK3$_1clEv', symObjAddr: 0x6910, symBinAddr: 0xC0A68, symSize: 0x1F0 }
  - { offset: 0x4C1D34, size: 0x8, addend: 0x0, symName: __ZNKSt3__112__hash_tableINS_17__hash_value_typeINS_12basic_stringIcNS_11char_traitsIcEENS_9allocatorIcEEEENS_6vectorIfNS5_IfEEEEEENS_22__unordered_map_hasherIS7_SB_NS_4hashIS7_EENS_8equal_toIS7_EELb1EEENS_21__unordered_map_equalIS7_SB_SG_SE_Lb1EEENS5_ISB_EEE4findIS7_EENS_21__hash_const_iteratorIPNS_11__hash_nodeISB_PvEEEERKT_, symObjAddr: 0x175A0, symBinAddr: 0xC2674, symSize: 0x1B4 }
  - { offset: 0x4C2335, size: 0x8, addend: 0x0, symName: '__ZZL21llama_tensor_get_typeR19quantize_state_impl9ggml_typePK11ggml_tensor11llama_ftypeENK3$_1clEiiPKc', symObjAddr: 0x13C58, symBinAddr: 0xC2510, symSize: 0x164 }
  - { offset: 0x4C265C, size: 0x8, addend: 0x0, symName: __ZNSt3__16__treeINS_12__value_typeIiNS_12basic_stringIcNS_11char_traitsIcEENS_9allocatorIcEEEEEENS_19__map_value_compareIiS8_NS_4lessIiEELb1EEENS5_IS8_EEE7destroyEPNS_11__tree_nodeIS8_PvEE, symObjAddr: 0x17ED4, symBinAddr: 0xC2B20, symSize: 0x60 }
  - { offset: 0x4C289E, size: 0x8, addend: 0x0, symName: __ZN18llama_model_loaderD2Ev, symObjAddr: 0x17F34, symBinAddr: 0xC2B80, symSize: 0x1AC }
  - { offset: 0x4C35BA, size: 0x8, addend: 0x0, symName: __ZNSt3__16vectorINS_6threadENS_9allocatorIS1_EEE20__throw_length_errorB8ne200100Ev, symObjAddr: 0x13A2C, symBinAddr: 0xC230C, symSize: 0x14 }
  - { offset: 0x4C35D2, size: 0x8, addend: 0x0, symName: __ZNSt3__114__split_bufferINS_6threadERNS_9allocatorIS1_EEED1Ev, symObjAddr: 0x13A40, symBinAddr: 0xC2320, symSize: 0x50 }
  - { offset: 0x4C360D, size: 0x8, addend: 0x0, symName: __ZNSt3__16vectorIPKN18llama_model_loader19llama_tensor_weightENS_9allocatorIS4_EEE20__throw_length_errorB8ne200100Ev, symObjAddr: 0x6F18, symBinAddr: 0xC0EC0, symSize: 0x14 }
  - { offset: 0x4C363A, size: 0x8, addend: 0x0, symName: '__ZZL21llama_tensor_get_typeR19quantize_state_impl9ggml_typePK11ggml_tensor11llama_ftypeENK3$_1clEiiPKc', symObjAddr: 0x13C58, symBinAddr: 0xC2510, symSize: 0x164 }
  - { offset: 0x4C3645, size: 0x8, addend: 0x0, symName: __ZNSt3__16vectorI7no_initIfENS_9allocatorIS2_EEE20__throw_length_errorB8ne200100Ev, symObjAddr: 0x17BA0, symBinAddr: 0xC2828, symSize: 0x14 }
  - { offset: 0x4C365D, size: 0x8, addend: 0x0, symName: '__ZNSt3__114__thread_proxyB8ne200100INS_5tupleIJNS_10unique_ptrINS_15__thread_structENS_14default_deleteIS3_EEEEZL28llama_tensor_dequantize_implP11ggml_tensorRNS_6vectorI7no_initIfENS_9allocatorISB_EEEERNS9_INS_6threadENSC_ISG_EEEEmiE3$_09ggml_typePhPfmEEEEEPvSP_', symObjAddr: 0x17BB4, symBinAddr: 0xC283C, symSize: 0xB4 }
  - { offset: 0x4C3668, size: 0x8, addend: 0x0, symName: __ZNSt3__128__exception_guard_exceptionsINS_6vectorINS_10unique_ptrI12gguf_context20gguf_context_deleterEENS_9allocatorIS5_EEE16__destroy_vectorEED1B8ne200100Ev, symObjAddr: 0x13A90, symBinAddr: 0xC2370, symSize: 0x80 }
  - { offset: 0x4C3866, size: 0x8, addend: 0x0, symName: '__ZNSt3__110unique_ptrINS_5tupleIJNS0_INS_15__thread_structENS_14default_deleteIS2_EEEEZL28llama_tensor_dequantize_implP11ggml_tensorRNS_6vectorI7no_initIfENS_9allocatorISA_EEEERNS8_INS_6threadENSB_ISF_EEEEmiE3$_09ggml_typePhPfmEEENS3_ISN_EEED1B8ne200100Ev', symObjAddr: 0x17C68, symBinAddr: 0xC28F0, symSize: 0x48 }
  - { offset: 0x4C3A65, size: 0x8, addend: 0x0, symName: __ZNSt3__114__split_bufferINS_6threadERNS_9allocatorIS1_EEED1Ev, symObjAddr: 0x13A40, symBinAddr: 0xC2320, symSize: 0x50 }
  - { offset: 0x4C3C63, size: 0x8, addend: 0x0, symName: __ZNSt3__16vectorINS_10unique_ptrI12gguf_context20gguf_context_deleterEENS_9allocatorIS4_EEED1B8ne200100Ev, symObjAddr: 0x6BB4, symBinAddr: 0xC0CB0, symSize: 0x70 }
  - { offset: 0x4C3E51, size: 0x8, addend: 0x0, symName: __ZNSt3__114basic_ofstreamIcNS_11char_traitsIcEEED1Ev, symObjAddr: 0x6B5C, symBinAddr: 0xC0C58, symSize: 0x58 }
  - { offset: 0x4C3E99, size: 0x8, addend: 0x0, symName: '__ZNSt3__110unique_ptrINS_5tupleIJNS0_INS_15__thread_structENS_14default_deleteIS2_EEEEZL26llama_tensor_quantize_impl9ggml_typePKfPvxxxS8_RNS_6vectorINS_6threadENS_9allocatorISB_EEEEiE3$_0EEENS3_ISH_EEED1B8ne200100Ev', symObjAddr: 0x17E8C, symBinAddr: 0xC2AD8, symSize: 0x48 }
  - { offset: 0x4C4041, size: 0x8, addend: 0x0, symName: __ZNSt3__16vectorINS_6threadENS_9allocatorIS1_EEED1B8ne200100Ev, symObjAddr: 0x6C24, symBinAddr: 0xC0D20, symSize: 0x58 }
  - { offset: 0x4C46BD, size: 0x8, addend: 0x0, symName: __ZNSt3__114basic_ofstreamIcNS_11char_traitsIcEEEC1ERKNS_12basic_stringIcS2_NS_9allocatorIcEEEEj, symObjAddr: 0x13B10, symBinAddr: 0xC23F0, symSize: 0x120 }
  - { offset: 0x4E0AB9, size: 0x8, addend: 0x0, symName: '__ZZL26llama_tensor_quantize_impl9ggml_typePKfPvxxxS1_RNSt3__16vectorINS3_6threadENS3_9allocatorIS5_EEEEiENK3$_0clEv', symObjAddr: 0x17CEC, symBinAddr: 0xC2938, symSize: 0x128 }
  - { offset: 0x4E37D5, size: 0x8, addend: 0x0, symName: __MergedGlobals, symObjAddr: 0x1C598, symBinAddr: 0x2746B8, symSize: 0x0 }
  - { offset: 0x4E3915, size: 0x8, addend: 0x0, symName: __ZL22llama_sampler_greedy_i, symObjAddr: 0x1C2C8, symBinAddr: 0x2743E8, symSize: 0x0 }
  - { offset: 0x4E3923, size: 0x8, addend: 0x0, symName: __ZL12get_rng_seedj, symObjAddr: 0x68C, symBinAddr: 0xC33B8, symSize: 0x160 }
  - { offset: 0x4E394F, size: 0x8, addend: 0x0, symName: __MergedGlobals.136, symObjAddr: 0x1E1C40, symBinAddr: 0x2E9428, symSize: 0x0 }
  - { offset: 0x4E3CEA, size: 0x8, addend: 0x0, symName: __MergedGlobals, symObjAddr: 0x1C598, symBinAddr: 0x2746B8, symSize: 0x0 }
  - { offset: 0x4E3D07, size: 0x8, addend: 0x0, symName: __ZL23llama_sampler_softmax_i, symObjAddr: 0x1C2F8, symBinAddr: 0x274418, symSize: 0x0 }
  - { offset: 0x4E3D22, size: 0x8, addend: 0x0, symName: __ZL21llama_sampler_top_k_i, symObjAddr: 0x1C328, symBinAddr: 0x274448, symSize: 0x0 }
  - { offset: 0x4E3D3D, size: 0x8, addend: 0x0, symName: __ZL21llama_sampler_top_p_i, symObjAddr: 0x1C358, symBinAddr: 0x274478, symSize: 0x0 }
  - { offset: 0x4E3D58, size: 0x8, addend: 0x0, symName: __ZL21llama_sampler_min_p_i, symObjAddr: 0x1C388, symBinAddr: 0x2744A8, symSize: 0x0 }
  - { offset: 0x4E3D73, size: 0x8, addend: 0x0, symName: __ZL23llama_sampler_typical_i, symObjAddr: 0x1C3B8, symBinAddr: 0x2744D8, symSize: 0x0 }
  - { offset: 0x4F5AFD, size: 0x8, addend: 0x0, symName: '__ZNSt3__111__introsortINS_17_ClassicAlgPolicyERZL26llama_sampler_softmax_implP22llama_token_data_arrayE3$_0P16llama_token_dataLb0EEEvT1_S8_T0_NS_15iterator_traitsIS8_E15difference_typeEb', symObjAddr: 0x3128, symBinAddr: 0xC5DFC, symSize: 0xFC4 }
  - { offset: 0x4F7171, size: 0x8, addend: 0x0, symName: '__ZNSt3__127__insertion_sort_incompleteB8ne200100INS_17_ClassicAlgPolicyERZL26llama_sampler_softmax_implP22llama_token_data_arrayE3$_0P16llama_token_dataEEbT1_S8_T0_', symObjAddr: 0x432C, symBinAddr: 0xC7000, symSize: 0x4B4 }
  - { offset: 0x4FB64A, size: 0x8, addend: 0x0, symName: '__ZNSt3__111__introsortINS_17_ClassicAlgPolicyERZL24llama_sampler_top_k_implP22llama_token_data_arrayiE3$_0P16llama_token_dataLb0EEEvT1_S8_T0_NS_15iterator_traitsIS8_E15difference_typeEb', symObjAddr: 0x58CC, symBinAddr: 0xC84F0, symSize: 0xDA4 }
  - { offset: 0x4FCAA2, size: 0x8, addend: 0x0, symName: '__ZNSt3__127__insertion_sort_incompleteB8ne200100INS_17_ClassicAlgPolicyERZL24llama_sampler_top_k_implP22llama_token_data_arrayiE3$_0P16llama_token_dataEEbT1_S8_T0_', symObjAddr: 0x68B0, symBinAddr: 0xC94D4, symSize: 0x4B4 }
  - { offset: 0x4FD27F, size: 0x8, addend: 0x0, symName: '__ZNSt3__111__introsortINS_17_ClassicAlgPolicyERZL25llama_sampler_min_p_applyP13llama_samplerP22llama_token_data_arrayE3$_0P16llama_token_dataLb0EEEvT1_SA_T0_NS_15iterator_traitsISA_E15difference_typeEb', symObjAddr: 0x73E4, symBinAddr: 0xCA008, symSize: 0xFC4 }
  - { offset: 0x4FE8AF, size: 0x8, addend: 0x0, symName: '__ZNSt3__127__insertion_sort_incompleteB8ne200100INS_17_ClassicAlgPolicyERZL25llama_sampler_min_p_applyP13llama_samplerP22llama_token_data_arrayE3$_0P16llama_token_dataEEbT1_SA_T0_', symObjAddr: 0x85E8, symBinAddr: 0xCB20C, symSize: 0x4B4 }
  - { offset: 0x500E4E, size: 0x8, addend: 0x0, symName: '__ZNSt3__111__introsortINS_17_ClassicAlgPolicyERZL27llama_sampler_typical_applyP13llama_samplerP22llama_token_data_arrayE3$_0PmLb0EEEvT1_S9_T0_NS_15iterator_traitsIS9_E15difference_typeEb', symObjAddr: 0x9320, symBinAddr: 0xCBF30, symSize: 0xAD8 }
  - { offset: 0x502A68, size: 0x8, addend: 0x0, symName: '__ZNSt3__127__insertion_sort_incompleteB8ne200100INS_17_ClassicAlgPolicyERZL27llama_sampler_typical_applyP13llama_samplerP22llama_token_data_arrayE3$_0PmEEbT1_S9_T0_', symObjAddr: 0x9F94, symBinAddr: 0xCCBA4, symSize: 0x358 }
  - { offset: 0x50B3F8, size: 0x8, addend: 0x0, symName: __ZNSt3__113regex_replaceB8ne200100INS_20back_insert_iteratorINS_12basic_stringIcNS_11char_traitsIcEENS_9allocatorIcEEEEEEPKcNS_12regex_traitsIcEEcEET_SD_T0_SE_RKNS_11basic_regexIT2_T1_EEPKSG_NS_15regex_constants15match_flag_typeE, symObjAddr: 0x14A38, symBinAddr: 0xCE844, symSize: 0x284 }
  - { offset: 0x50DDD1, size: 0x8, addend: 0x0, symName: '__ZNSt3__17__sort5B8ne200100INS_17_ClassicAlgPolicyERZL26llama_sampler_softmax_implP22llama_token_data_arrayE3$_0P16llama_token_dataLi0EEEvT1_S8_S8_S8_S8_T0_', symObjAddr: 0x40EC, symBinAddr: 0xC6DC0, symSize: 0x240 }
  - { offset: 0x50ED24, size: 0x8, addend: 0x0, symName: '__ZNSt3__119__partial_sort_implB8ne200100INS_17_ClassicAlgPolicyERZL24llama_sampler_top_k_implP22llama_token_data_arrayiE3$_0P16llama_token_dataS7_EET1_S8_S8_T2_OT0_', symObjAddr: 0x5484, symBinAddr: 0xC80BC, symSize: 0x40C }
  - { offset: 0x50F642, size: 0x8, addend: 0x0, symName: '__ZNSt3__17__sort5B8ne200100INS_17_ClassicAlgPolicyERZL24llama_sampler_top_k_implP22llama_token_data_arrayiE3$_0P16llama_token_dataLi0EEEvT1_S8_S8_S8_S8_T0_', symObjAddr: 0x6670, symBinAddr: 0xC9294, symSize: 0x240 }
  - { offset: 0x510457, size: 0x8, addend: 0x0, symName: '__ZNSt3__17__sort5B8ne200100INS_17_ClassicAlgPolicyERZL25llama_sampler_min_p_applyP13llama_samplerP22llama_token_data_arrayE3$_0P16llama_token_dataLi0EEEvT1_SA_SA_SA_SA_T0_', symObjAddr: 0x83A8, symBinAddr: 0xCAFCC, symSize: 0x240 }
  - { offset: 0x5118E1, size: 0x8, addend: 0x0, symName: '__ZNSt3__17__sort5B8ne200100INS_17_ClassicAlgPolicyERZL27llama_sampler_typical_applyP13llama_samplerP22llama_token_data_arrayE3$_0PmLi0EEEvT1_S9_S9_S9_S9_T0_', symObjAddr: 0x9DF8, symBinAddr: 0xCCA08, symSize: 0x19C }
  - { offset: 0x51194F, size: 0x8, addend: 0x0, symName: '__ZNSt3__17__sort5B8ne200100INS_17_ClassicAlgPolicyERZL27llama_sampler_typical_applyP13llama_samplerP22llama_token_data_arrayE3$_0PmLi0EEEvT1_S9_S9_S9_S9_T0_', symObjAddr: 0x9DF8, symBinAddr: 0xCCA08, symSize: 0x19C }
  - { offset: 0x51756C, size: 0x8, addend: 0x0, symName: __ZL20llama_sampler_temp_i, symObjAddr: 0x1C3E8, symBinAddr: 0x274508, symSize: 0x0 }
  - { offset: 0x517587, size: 0x8, addend: 0x0, symName: __ZL24llama_sampler_temp_ext_i, symObjAddr: 0x1C418, symBinAddr: 0x274538, symSize: 0x0 }
  - { offset: 0x5175A2, size: 0x8, addend: 0x0, symName: __ZL19llama_sampler_xtc_i, symObjAddr: 0x1C448, symBinAddr: 0x274568, symSize: 0x0 }
  - { offset: 0x5175BD, size: 0x8, addend: 0x0, symName: __MergedGlobals, symObjAddr: 0x1C598, symBinAddr: 0x2746B8, symSize: 0x0 }
  - { offset: 0x5175DA, size: 0x8, addend: 0x0, symName: __MergedGlobals, symObjAddr: 0x1C598, symBinAddr: 0x2746B8, symSize: 0x0 }
  - { offset: 0x5175EB, size: 0x8, addend: 0x0, symName: __ZL31llama_sampler_init_grammar_implPK11llama_vocabPKcS3_bPS3_mPKimS4_m, symObjAddr: 0xC3C, symBinAddr: 0xC3968, symSize: 0x598 }
  - { offset: 0x51760C, size: 0x8, addend: 0x0, symName: __MergedGlobals.136, symObjAddr: 0x1E1C40, symBinAddr: 0x2E9428, symSize: 0x0 }
  - { offset: 0x518F98, size: 0x8, addend: 0x0, symName: __ZL23llama_sampler_grammar_i, symObjAddr: 0x1C568, symBinAddr: 0x274688, symSize: 0x0 }
  - { offset: 0x518FB3, size: 0x8, addend: 0x0, symName: __ZL25llama_sampler_penalties_i, symObjAddr: 0x1C478, symBinAddr: 0x274598, symSize: 0x0 }
  - { offset: 0x518FD3, size: 0x8, addend: 0x0, symName: __ZL27llama_sampler_top_n_sigma_i, symObjAddr: 0x1C4A8, symBinAddr: 0x2745C8, symSize: 0x0 }
  - { offset: 0x518FEE, size: 0x8, addend: 0x0, symName: __ZL19llama_sampler_dry_i, symObjAddr: 0x1C4D8, symBinAddr: 0x2745F8, symSize: 0x0 }
  - { offset: 0x519009, size: 0x8, addend: 0x0, symName: __ZL26llama_sampler_logit_bias_i, symObjAddr: 0x1C508, symBinAddr: 0x274628, symSize: 0x0 }
  - { offset: 0x519024, size: 0x8, addend: 0x0, symName: __ZL22llama_sampler_infill_i, symObjAddr: 0x1C538, symBinAddr: 0x274658, symSize: 0x0 }
  - { offset: 0x519CD6, size: 0x8, addend: 0x0, symName: __ZL17llama_sample_distP22llama_token_data_arrayRNSt3__123mersenne_twister_engineIjLm32ELm624ELm397ELm31ELj2567483615ELm11ELj4294967295ELm7ELj2636928640ELm15ELj4022730752ELm18ELj1812433253EEE, symObjAddr: 0x2F58, symBinAddr: 0xC5C2C, symSize: 0x1D0 }
  - { offset: 0x51BAD3, size: 0x8, addend: 0x0, symName: _llama_sampler_init, symObjAddr: 0x0, symBinAddr: 0xC2D2C, symSize: 0x2C }
  - { offset: 0x51BAFA, size: 0x8, addend: 0x0, symName: _llama_sampler_name, symObjAddr: 0x2C, symBinAddr: 0xC2D58, symSize: 0x1C }
  - { offset: 0x51BB32, size: 0x8, addend: 0x0, symName: _llama_sampler_accept, symObjAddr: 0x48, symBinAddr: 0xC2D74, symSize: 0x14 }
  - { offset: 0x51BB61, size: 0x8, addend: 0x0, symName: _llama_sampler_apply, symObjAddr: 0x5C, symBinAddr: 0xC2D88, symSize: 0x40 }
  - { offset: 0x51BB96, size: 0x8, addend: 0x0, symName: _llama_sampler_reset, symObjAddr: 0x9C, symBinAddr: 0xC2DC8, symSize: 0x14 }
  - { offset: 0x51BBC3, size: 0x8, addend: 0x0, symName: _llama_sampler_reset, symObjAddr: 0x9C, symBinAddr: 0xC2DC8, symSize: 0x14 }
  - { offset: 0x51BC12, size: 0x8, addend: 0x0, symName: _llama_sampler_clone, symObjAddr: 0xB0, symBinAddr: 0xC2DDC, symSize: 0x5C }
  - { offset: 0x51BC62, size: 0x8, addend: 0x0, symName: _llama_sampler_free, symObjAddr: 0x10C, symBinAddr: 0xC2E38, symSize: 0x38 }
  - { offset: 0x51BC75, size: 0x8, addend: 0x0, symName: _llama_sampler_free, symObjAddr: 0x10C, symBinAddr: 0xC2E38, symSize: 0x38 }
  - { offset: 0x51C0AF, size: 0x8, addend: 0x0, symName: _llama_sampler_sample, symObjAddr: 0x144, symBinAddr: 0xC2E70, symSize: 0x298 }
  - { offset: 0x51C7E2, size: 0x8, addend: 0x0, symName: __ZNSt3__16vectorI16llama_token_dataNS_9allocatorIS1_EEE20__throw_length_errorB8ne200100Ev, symObjAddr: 0x58A4, symBinAddr: 0xC84C8, symSize: 0x14 }
  - { offset: 0x51C7FA, size: 0x8, addend: 0x0, symName: __ZNSt3__16vectorIP16llama_token_dataNS_9allocatorIS2_EEE20__throw_length_errorB8ne200100Ev, symObjAddr: 0x58B8, symBinAddr: 0xC84DC, symSize: 0x14 }
  - { offset: 0x51C805, size: 0x8, addend: 0x0, symName: _llama_sampler_chain_init, symObjAddr: 0x3DC, symBinAddr: 0xC3108, symSize: 0x50 }
  - { offset: 0x51CBA6, size: 0x8, addend: 0x0, symName: _llama_sampler_chain_add, symObjAddr: 0x42C, symBinAddr: 0xC3158, symSize: 0xE4 }
  - { offset: 0x51CF9C, size: 0x8, addend: 0x0, symName: _llama_sampler_chain_get, symObjAddr: 0x510, symBinAddr: 0xC323C, symSize: 0x2C }
  - { offset: 0x51CFA7, size: 0x8, addend: 0x0, symName: __ZNSt3__16vectorIP13llama_samplerNS_9allocatorIS2_EEE20__throw_length_errorB8ne200100Ev, symObjAddr: 0x1B3F0, symBinAddr: 0xD2714, symSize: 0x14 }
  - { offset: 0x51CFCA, size: 0x8, addend: 0x0, symName: _llama_sampler_chain_get, symObjAddr: 0x510, symBinAddr: 0xC323C, symSize: 0x2C }
  - { offset: 0x51D165, size: 0x8, addend: 0x0, symName: _llama_sampler_chain_remove, symObjAddr: 0x53C, symBinAddr: 0xC3268, symSize: 0x88 }
  - { offset: 0x51D3B7, size: 0x8, addend: 0x0, symName: _llama_sampler_chain_n, symObjAddr: 0x5C4, symBinAddr: 0xC32F0, symSize: 0x14 }
  - { offset: 0x51D412, size: 0x8, addend: 0x0, symName: _llama_sampler_init_greedy, symObjAddr: 0x5D8, symBinAddr: 0xC3304, symSize: 0x24 }
  - { offset: 0x51D4D4, size: 0x8, addend: 0x0, symName: _llama_sampler_init_dist, symObjAddr: 0x5FC, symBinAddr: 0xC3328, symSize: 0x90 }
  - { offset: 0x51D7CC, size: 0x8, addend: 0x0, symName: __ZNSt3__113random_deviceC1B8ne200100Ev, symObjAddr: 0x2B30, symBinAddr: 0xC5804, symSize: 0x98 }
  - { offset: 0x51DB10, size: 0x8, addend: 0x0, symName: _llama_sampler_init_softmax, symObjAddr: 0x7EC, symBinAddr: 0xC3518, symSize: 0x24 }
  - { offset: 0x51DB52, size: 0x8, addend: 0x0, symName: _llama_sampler_init_top_k, symObjAddr: 0x810, symBinAddr: 0xC353C, symSize: 0x40 }
  - { offset: 0x51DB96, size: 0x8, addend: 0x0, symName: _llama_sampler_init_top_p, symObjAddr: 0x850, symBinAddr: 0xC357C, symSize: 0x50 }
  - { offset: 0x51DBE3, size: 0x8, addend: 0x0, symName: _llama_sampler_init_min_p, symObjAddr: 0x8A0, symBinAddr: 0xC35CC, symSize: 0x50 }
  - { offset: 0x51DC30, size: 0x8, addend: 0x0, symName: _llama_sampler_init_typical, symObjAddr: 0x8F0, symBinAddr: 0xC361C, symSize: 0x50 }
  - { offset: 0x51DC7D, size: 0x8, addend: 0x0, symName: _llama_sampler_init_temp, symObjAddr: 0x940, symBinAddr: 0xC366C, symSize: 0x48 }
  - { offset: 0x51DCC1, size: 0x8, addend: 0x0, symName: _llama_sampler_init_temp_ext, symObjAddr: 0x988, symBinAddr: 0xC36B4, symSize: 0x5C }
  - { offset: 0x51DD17, size: 0x8, addend: 0x0, symName: _llama_sampler_init_xtc, symObjAddr: 0x9E4, symBinAddr: 0xC3710, symSize: 0xB0 }
  - { offset: 0x51DE20, size: 0x8, addend: 0x0, symName: _llama_sampler_init_mirostat, symObjAddr: 0xA94, symBinAddr: 0xC37C0, symSize: 0xC8 }
  - { offset: 0x51DF32, size: 0x8, addend: 0x0, symName: _llama_sampler_init_mirostat_v2, symObjAddr: 0xB5C, symBinAddr: 0xC3888, symSize: 0xAC }
  - { offset: 0x51E032, size: 0x8, addend: 0x0, symName: _llama_sampler_init_grammar, symObjAddr: 0xC08, symBinAddr: 0xC3934, symSize: 0x34 }
  - { offset: 0x51E51B, size: 0x8, addend: 0x0, symName: _llama_sampler_init_grammar_lazy, symObjAddr: 0x11D4, symBinAddr: 0xC3F00, symSize: 0x34 }
  - { offset: 0x51E5EB, size: 0x8, addend: 0x0, symName: _llama_sampler_init_grammar_lazy_patterns, symObjAddr: 0x1208, symBinAddr: 0xC3F34, symSize: 0x34 }
  - { offset: 0x51E95A, size: 0x8, addend: 0x0, symName: _llama_sampler_init_penalties, symObjAddr: 0x123C, symBinAddr: 0xC3F68, symSize: 0xE0 }
  - { offset: 0x51EC7F, size: 0x8, addend: 0x0, symName: _llama_sampler_init_top_n_sigma, symObjAddr: 0x131C, symBinAddr: 0xC4048, symSize: 0x48 }
  - { offset: 0x5201BA, size: 0x8, addend: 0x0, symName: _llama_sampler_init_dry, symObjAddr: 0x1364, symBinAddr: 0xC4090, symSize: 0xBA0 }
  - { offset: 0x523457, size: 0x8, addend: 0x0, symName: __ZNSt3__112__hash_tableINS_17__hash_value_typeIiNS_6vectorIiNS_9allocatorIiEEEEEENS_22__unordered_map_hasherIiS6_NS_4hashIiEENS_8equal_toIiEELb1EEENS_21__unordered_map_equalIiS6_SB_S9_Lb1EEENS3_IS6_EEE27__node_insert_multi_prepareEmRS6_, symObjAddr: 0x18B7C, symBinAddr: 0xCFEA0, symSize: 0x27C }
  - { offset: 0x523716, size: 0x8, addend: 0x0, symName: __ZNSt3__112__hash_tableINS_17__hash_value_typeIiNS_6vectorIiNS_9allocatorIiEEEEEENS_22__unordered_map_hasherIiS6_NS_4hashIiEENS_8equal_toIiEELb1EEENS_21__unordered_map_equalIiS6_SB_S9_Lb1EEENS3_IS6_EEE19__node_insert_multiEPNS_11__hash_nodeIS6_PvEE, symObjAddr: 0x189F0, symBinAddr: 0xCFD14, symSize: 0x12C }
  - { offset: 0x523933, size: 0x8, addend: 0x0, symName: __ZNSt3__16vectorI16llama_token_dataNS_9allocatorIS1_EEE20__throw_length_errorB8ne200100Ev, symObjAddr: 0x58A4, symBinAddr: 0xC84C8, symSize: 0x14 }
  - { offset: 0x523AC9, size: 0x8, addend: 0x0, symName: __ZNSt3__118unordered_multimapIiNS_6vectorIiNS_9allocatorIiEEEENS_4hashIiEENS_8equal_toIiEENS2_INS_4pairIKiS4_EEEEED1B8ne200100Ev, symObjAddr: 0x1F4C, symBinAddr: 0xC4C30, symSize: 0x68 }
  - { offset: 0x523EDA, size: 0x8, addend: 0x0, symName: __ZNSt3__110unique_ptrINS_11__hash_nodeINS_17__hash_value_typeIiNS_6vectorIiNS_9allocatorIiEEEEEEPvEENS_22__hash_node_destructorINS4_IS9_EEEEED1B8ne200100Ev, symObjAddr: 0x18B1C, symBinAddr: 0xCFE40, symSize: 0x60 }
  - { offset: 0x5245B1, size: 0x8, addend: 0x0, symName: __Z30llama_sampler_init_dry_testingiffiiRKNSt3__16vectorINS0_IiNS_9allocatorIiEEEENS1_IS3_EEEE, symObjAddr: 0x1FB4, symBinAddr: 0xC4C98, symSize: 0x2B4 }
  - { offset: 0x525473, size: 0x8, addend: 0x0, symName: _llama_sampler_init_logit_bias, symObjAddr: 0x2268, symBinAddr: 0xC4F4C, symSize: 0xC0 }
  - { offset: 0x525845, size: 0x8, addend: 0x0, symName: __ZNSt3__16vectorI16llama_logit_biasNS_9allocatorIS1_EEE20__throw_length_errorB8ne200100Ev, symObjAddr: 0x1AAD8, symBinAddr: 0xD1DFC, symSize: 0x14 }
  - { offset: 0x52585D, size: 0x8, addend: 0x0, symName: __ZL25llama_sampler_infill_namePK13llama_sampler, symObjAddr: 0x1AAEC, symBinAddr: 0xD1E10, symSize: 0xC }
  - { offset: 0x525A57, size: 0x8, addend: 0x0, symName: _llama_sampler_init_infill, symObjAddr: 0x2328, symBinAddr: 0xC500C, symSize: 0x138 }
  - { offset: 0x525EE7, size: 0x8, addend: 0x0, symName: _llama_sampler_get_seed, symObjAddr: 0x2460, symBinAddr: 0xC5144, symSize: 0xBC }
  - { offset: 0x526009, size: 0x8, addend: 0x0, symName: _llama_perf_sampler, symObjAddr: 0x251C, symBinAddr: 0xC5200, symSize: 0x7C }
  - { offset: 0x526096, size: 0x8, addend: 0x0, symName: _llama_perf_sampler_print, symObjAddr: 0x2598, symBinAddr: 0xC527C, symSize: 0xC4 }
  - { offset: 0x526101, size: 0x8, addend: 0x0, symName: _llama_perf_sampler_print, symObjAddr: 0x2598, symBinAddr: 0xC527C, symSize: 0xC4 }
  - { offset: 0x5261B7, size: 0x8, addend: 0x0, symName: _llama_perf_sampler_reset, symObjAddr: 0x265C, symBinAddr: 0xC5340, symSize: 0x58 }
  - { offset: 0x5261CA, size: 0x8, addend: 0x0, symName: _llama_perf_sampler_reset, symObjAddr: 0x265C, symBinAddr: 0xC5340, symSize: 0x58 }
  - { offset: 0x526204, size: 0x8, addend: 0x0, symName: __ZL24llama_sampler_chain_namePK13llama_sampler, symObjAddr: 0x26B4, symBinAddr: 0xC5398, symSize: 0xC }
  - { offset: 0x526217, size: 0x8, addend: 0x0, symName: __ZL24llama_sampler_chain_namePK13llama_sampler, symObjAddr: 0x26B4, symBinAddr: 0xC5398, symSize: 0xC }
  - { offset: 0x526271, size: 0x8, addend: 0x0, symName: __ZL26llama_sampler_chain_acceptP13llama_sampleri, symObjAddr: 0x26C0, symBinAddr: 0xC53A4, symSize: 0x9C }
  - { offset: 0x526392, size: 0x8, addend: 0x0, symName: __ZL25llama_sampler_chain_applyP13llama_samplerP22llama_token_data_array, symObjAddr: 0x275C, symBinAddr: 0xC5440, symSize: 0xCC }
  - { offset: 0x5264C7, size: 0x8, addend: 0x0, symName: __ZL25llama_sampler_chain_resetP13llama_sampler, symObjAddr: 0x2828, symBinAddr: 0xC550C, symSize: 0x58 }
  - { offset: 0x526650, size: 0x8, addend: 0x0, symName: __ZL25llama_sampler_chain_clonePK13llama_sampler, symObjAddr: 0x2880, symBinAddr: 0xC5564, symSize: 0x1A8 }
  - { offset: 0x526B94, size: 0x8, addend: 0x0, symName: __ZL24llama_sampler_chain_freeP13llama_sampler, symObjAddr: 0x2A28, symBinAddr: 0xC570C, symSize: 0x90 }
  - { offset: 0x526C64, size: 0x8, addend: 0x0, symName: __ZL24llama_sampler_chain_freeP13llama_sampler, symObjAddr: 0x2A28, symBinAddr: 0xC570C, symSize: 0x90 }
  - { offset: 0x526EA7, size: 0x8, addend: 0x0, symName: __ZL25llama_sampler_greedy_namePK13llama_sampler, symObjAddr: 0x2AC8, symBinAddr: 0xC579C, symSize: 0xC }
  - { offset: 0x526ED0, size: 0x8, addend: 0x0, symName: __ZL26llama_sampler_greedy_applyP13llama_samplerP22llama_token_data_array, symObjAddr: 0x2AD4, symBinAddr: 0xC57A8, symSize: 0x5C }
  - { offset: 0x526F22, size: 0x8, addend: 0x0, symName: __ZL23llama_sampler_dist_namePK13llama_sampler, symObjAddr: 0x2BC8, symBinAddr: 0xC589C, symSize: 0xC }
  - { offset: 0x526FAC, size: 0x8, addend: 0x0, symName: __ZL24llama_sampler_dist_applyP13llama_samplerP22llama_token_data_array, symObjAddr: 0x2BD4, symBinAddr: 0xC58A8, symSize: 0x25C }
  - { offset: 0x5270FA, size: 0x8, addend: 0x0, symName: __ZL24llama_sampler_dist_resetP13llama_sampler, symObjAddr: 0x2E30, symBinAddr: 0xC5B04, symSize: 0x64 }
  - { offset: 0x52710D, size: 0x8, addend: 0x0, symName: __ZL24llama_sampler_dist_resetP13llama_sampler, symObjAddr: 0x2E30, symBinAddr: 0xC5B04, symSize: 0x64 }
  - { offset: 0x5271B3, size: 0x8, addend: 0x0, symName: __ZL24llama_sampler_dist_clonePK13llama_sampler, symObjAddr: 0x2E94, symBinAddr: 0xC5B68, symSize: 0xB4 }
  - { offset: 0x52730C, size: 0x8, addend: 0x0, symName: __ZL23llama_sampler_dist_freeP13llama_sampler, symObjAddr: 0x2F48, symBinAddr: 0xC5C1C, symSize: 0x10 }
  - { offset: 0x5279E1, size: 0x8, addend: 0x0, symName: __ZNSt3__121discrete_distributionIiE10param_type6__initEv, symObjAddr: 0x47E0, symBinAddr: 0xC74B4, symSize: 0x218 }
  - { offset: 0x527D82, size: 0x8, addend: 0x0, symName: __ZNSt3__16vectorIdNS_9allocatorIdEEE20__throw_length_errorB8ne200100Ev, symObjAddr: 0x49F8, symBinAddr: 0xC76CC, symSize: 0x14 }
  - { offset: 0x527D8D, size: 0x8, addend: 0x0, symName: __ZNSt3__121discrete_distributionIiEclINS_23mersenne_twister_engineIjLm32ELm624ELm397ELm31ELj2567483615ELm11ELj4294967295ELm7ELj2636928640ELm15ELj4022730752ELm18ELj1812433253EEEEEiRT_RKNS1_10param_typeE, symObjAddr: 0x4B60, symBinAddr: 0xC7798, symSize: 0x164 }
  - { offset: 0x527DE2, size: 0x8, addend: 0x0, symName: __ZNSt3__121discrete_distributionIiEclINS_23mersenne_twister_engineIjLm32ELm624ELm397ELm31ELj2567483615ELm11ELj4294967295ELm7ELj2636928640ELm15ELj4022730752ELm18ELj1812433253EEEEEiRT_RKNS1_10param_typeE, symObjAddr: 0x4B60, symBinAddr: 0xC7798, symSize: 0x164 }
  - { offset: 0x528087, size: 0x8, addend: 0x0, symName: __ZNSt3__16vectorIdNS_9allocatorIdEEE20__throw_length_errorB8ne200100Ev, symObjAddr: 0x49F8, symBinAddr: 0xC76CC, symSize: 0x14 }
  - { offset: 0x528297, size: 0x8, addend: 0x0, symName: __ZNSt3__16vectorIdNS_9allocatorIdEEE13shrink_to_fitEv, symObjAddr: 0x4AA8, symBinAddr: 0xC76E0, symSize: 0xB8 }
  - { offset: 0x528738, size: 0x8, addend: 0x0, symName: __ZL26llama_sampler_softmax_namePK13llama_sampler, symObjAddr: 0x4CC4, symBinAddr: 0xC78FC, symSize: 0xC }
  - { offset: 0x528761, size: 0x8, addend: 0x0, symName: __ZL27llama_sampler_softmax_applyP13llama_samplerP22llama_token_data_array, symObjAddr: 0x4CD0, symBinAddr: 0xC7908, symSize: 0x238 }
  - { offset: 0x528878, size: 0x8, addend: 0x0, symName: __ZL24llama_sampler_top_k_namePK13llama_sampler, symObjAddr: 0x4F08, symBinAddr: 0xC7B40, symSize: 0xC }
  - { offset: 0x52888B, size: 0x8, addend: 0x0, symName: __ZL24llama_sampler_top_k_namePK13llama_sampler, symObjAddr: 0x4F08, symBinAddr: 0xC7B40, symSize: 0xC }
  - { offset: 0x5288B4, size: 0x8, addend: 0x0, symName: __ZL25llama_sampler_top_k_applyP13llama_samplerP22llama_token_data_array, symObjAddr: 0x4F14, symBinAddr: 0xC7B4C, symSize: 0x14 }
  - { offset: 0x528916, size: 0x8, addend: 0x0, symName: __ZL24llama_sampler_top_k_implP22llama_token_data_arrayi, symObjAddr: 0x4F7C, symBinAddr: 0xC7BB4, symSize: 0x508 }
  - { offset: 0x529A72, size: 0x8, addend: 0x0, symName: __ZL25llama_sampler_top_k_clonePK13llama_sampler, symObjAddr: 0x4F28, symBinAddr: 0xC7B60, symSize: 0x44 }
  - { offset: 0x529AF5, size: 0x8, addend: 0x0, symName: __ZL24llama_sampler_top_k_freeP13llama_sampler, symObjAddr: 0x4F6C, symBinAddr: 0xC7BA4, symSize: 0x10 }
  - { offset: 0x52A026, size: 0x8, addend: 0x0, symName: __ZNSt3__16vectorIP16llama_token_dataNS_9allocatorIS2_EEE20__throw_length_errorB8ne200100Ev, symObjAddr: 0x58B8, symBinAddr: 0xC84DC, symSize: 0x14 }
